 leveldown

 Timestamp is 57c04cb8 (Fri Aug 26 17:05:44 2016)

 Preferred load address is 10000000

 Start         Length     Name                   Class
 0001:00000000 00000110H .text$di                CODE
 0001:00000110 000493f0H .text$mn                CODE
 0001:00049500 00006470H .text$x                 CODE
 0001:0004f970 000000cdH .text$yd                CODE
 0002:00000000 00000178H .idata$5                DATA
 0002:00000178 00000004H .00cfg                  DATA
 0002:0000017c 00000004H .CRT$XCA                DATA
 0002:00000180 00000014H .CRT$XCU                DATA
 0002:00000194 00000004H .CRT$XCZ                DATA
 0002:00000198 00000004H .CRT$XIA                DATA
 0002:0000019c 0000000cH .CRT$XIC                DATA
 0002:000001a8 00000004H .CRT$XIZ                DATA
 0002:000001ac 00000004H .CRT$XPA                DATA
 0002:000001b0 00000008H .CRT$XPX                DATA
 0002:000001b8 00000004H .CRT$XPXA               DATA
 0002:000001bc 00000004H .CRT$XPZ                DATA
 0002:000001c0 00000004H .CRT$XTA                DATA
 0002:000001c4 0000000cH .CRT$XTZ                DATA
 0002:000001d0 0000af24H .rdata                  DATA
 0002:0000b0f4 0000026cH .rdata$r                DATA
 0002:0000b360 00000544H .rdata$sxdata           DATA
 0002:0000b8a4 000003f4H .rdata$zzzdbg           DATA
 0002:0000bc98 00000004H .rtc$IAA                DATA
 0002:0000bc9c 00000004H .rtc$IZZ                DATA
 0002:0000bca0 00000004H .rtc$TAA                DATA
 0002:0000bca4 00000004H .rtc$TZZ                DATA
 0002:0000bca8 00005c8cH .xdata$x                DATA
 0002:00011934 00000020H .didat$2                DATA
 0002:00011954 00000020H .didat$3                DATA
 0002:00011974 00000150H .didat$4                DATA
 0002:00011ac4 0000116cH .didat$6                DATA
 0002:00012c30 00000150H .didat$7                DATA
 0002:00012d80 00000058H .edata                  DATA
 0002:00012dd8 00000014H .idata$2                DATA
 0002:00012dec 00000014H .idata$3                DATA
 0002:00012e00 00000178H .idata$4                DATA
 0002:00012f78 000006b0H .idata$6                DATA
 0003:00000000 000008c0H .data                   DATA
 0003:000008c0 000000f8H .data$r                 DATA
 0003:000009b8 00000150H .didat$5                DATA
 0003:00000b08 00000a88H .bss                    DATA
 0004:00000000 00000094H .gfids$x                DATA
 0004:00000094 00000084H .gfids$y                DATA
 0005:00000000 00000060H .rsrc$01                DATA
 0005:00000060 00000180H .rsrc$02                DATA

  Address         Publics by Value              Rva+Base       Lib:Object

 0000:00000000       __except_list              00000000     <absolute>
 0000:00000000       ___guard_longjmp_count     00000000     <absolute>
 0000:00000000       ___guard_fids_count        00000000     <absolute>
 0000:00000000       ___guard_longjmp_table     00000000     <absolute>
 0000:00000000       ___guard_iat_table         00000000     <absolute>
 0000:00000000       ___guard_iat_count         00000000     <absolute>
 0000:00000000       ___guard_fids_table        00000000     <absolute>
 0000:00000000       ___dynamic_value_reloc_table 00000000     <absolute>
 0000:00000100       ___guard_flags             00000100     <absolute>
 0000:00000151       ___safe_se_handler_count   00000151     <absolute>
 0000:00000000       ___ImageBase               10000000     <linker-defined>
 0001:000001b0       ?New@?$Factory@VFunctionTemplate@v8@@@imp@Nan@@SA?AV?$Local@VFunctionTemplate@v8@@@v8@@P6AXABV?$FunctionCallbackInfo@VValue@v8@@@3@@ZV?$Local@VValue@v8@@@5@V?$Local@VSignature@v8@@@5@@Z 100011b0 f i batch.obj
 0001:00000310       ??1EscapableHandleScope@Nan@@QAE@XZ 10001310 f i batch.obj
 0001:00000360       ??1HandleScope@Nan@@QAE@XZ 10001360 f i batch.obj
 0001:000003b0       ??0Callback@Nan@@QAE@ABV?$Local@VFunction@v8@@@v8@@@Z 100013b0 f i batch.obj
 0001:00000470       ?SetFunction@Callback@Nan@@QAEXABV?$Local@VFunction@v8@@@v8@@@Z 10001470 f i batch.obj
 0001:00000520       ??1?$Persistent@VObject@v8@@V?$NonCopyablePersistentTraits@VObject@v8@@@2@@Nan@@QAE@XZ 10001520 f i batch.obj
 0001:00000560       ?SaveToPersistent@AsyncWorker@Nan@@QAEXPBDABV?$Local@VValue@v8@@@v8@@@Z 10001560 f i batch.obj
 0001:00000620       ?AsyncExecute@Nan@@YAXPAUuv_work_s@@@Z 10001620 f i batch.obj
 0001:00000630       ?AsyncExecuteComplete@Nan@@YAXPAUuv_work_s@@@Z 10001630 f i batch.obj
 0001:00000660       ?SetPrototypeMethod@Nan@@YAXV?$Local@VFunctionTemplate@v8@@@v8@@PBDP6AXABV?$FunctionCallbackInfo@VValue@v8@@@1@@Z@Z 10001660 f i batch.obj
 0001:00000740       ??1ObjectWrap@Nan@@UAE@XZ  10001740 f i batch.obj
 0001:000007f0       ?Wrap@ObjectWrap@Nan@@IAEXV?$Local@VObject@v8@@@v8@@@Z 100017f0 f i batch.obj
 0001:000008a0       ?Ref@ObjectWrap@Nan@@MAEXXZ 100018a0 f i batch.obj
 0001:000008d0       ?Unref@ObjectWrap@Nan@@MAEXXZ 100018d0 f i batch.obj
 0001:00000960       ?WeakCallback@ObjectWrap@Nan@@CAXABV?$WeakCallbackInfo@VObjectWrap@Nan@@@v8@@@Z 10001960 f i batch.obj
 0001:000009d0       ??_EObjectWrap@Nan@@UAEPAXI@Z 100019d0 f i * CIL library *:* CIL module *
 0001:000009d0       ??_GObjectWrap@Nan@@UAEPAXI@Z 100019d0 f i batch.obj
 0001:000009f0       ??1Status@leveldb@@QAE@XZ  100019f0 f i batch.obj
 0001:00000a00       ?BooleanOptionValue@leveldown@@YA_NV?$Local@VObject@v8@@@v8@@PBD_N@Z 10001a00 f i batch.obj
 0001:00000ad0       ??0Batch@leveldown@@QAE@PAVDatabase@1@_N@Z 10001ad0 f   batch.obj
 0001:00000b90       ??_GBatch@leveldown@@UAEPAXI@Z 10001b90 f i batch.obj
 0001:00000b90       ??_EBatch@leveldown@@UAEPAXI@Z 10001b90 f i * CIL library *:* CIL module *
 0001:00000bb0       ??1Batch@leveldown@@UAE@XZ 10001bb0 f   batch.obj
 0001:00000c60       ?Write@Batch@leveldown@@QAE?AVStatus@leveldb@@XZ 10001c60 f   batch.obj
 0001:00000cc0       ?Init@Batch@leveldown@@SAXXZ 10001cc0 f   batch.obj
 0001:00000dc0       ?New@Batch@leveldown@@CAXABV?$FunctionCallbackInfo@VValue@v8@@@Nan@@@Z 10001dc0 f   batch.obj
 0001:00000f00       ?NewInstance@Batch@leveldown@@SA?AV?$Local@VValue@v8@@@v8@@V?$Local@VObject@v8@@@4@0@Z 10001f00 f   batch.obj
 0001:00000ff0       ?Put@Batch@leveldown@@CAXABV?$FunctionCallbackInfo@VValue@v8@@@Nan@@@Z 10001ff0 f   batch.obj
 0001:000012f0       ?Del@Batch@leveldown@@CAXABV?$FunctionCallbackInfo@VValue@v8@@@Nan@@@Z 100022f0 f   batch.obj
 0001:000014c0       ?Clear@Batch@leveldown@@CAXABV?$FunctionCallbackInfo@VValue@v8@@@Nan@@@Z 100024c0 f   batch.obj
 0001:00001580       ?Write@Batch@leveldown@@CAXABV?$FunctionCallbackInfo@VValue@v8@@@Nan@@@Z 10002580 f   batch.obj
 0001:00001750       ??1?$Persistent@VFunctionTemplate@v8@@V?$NonCopyablePersistentTraits@VFunctionTemplate@v8@@@2@@v8@@QAE@XZ 10002750 f i batch.obj
 0001:00001750       ??1?$Persistent@VObject@v8@@V?$NonCopyablePersistentTraits@VObject@v8@@@2@@v8@@QAE@XZ 10002750 f i batch.obj
 0001:00001790       ??$Unwrap@VIterator@leveldown@@@ObjectWrap@Nan@@SAPAVIterator@leveldown@@V?$Local@VObject@v8@@@v8@@@Z 10002790 f i database.obj
 0001:00001790       ??$Unwrap@VDatabase@leveldown@@@ObjectWrap@Nan@@SAPAVDatabase@leveldown@@V?$Local@VObject@v8@@@v8@@@Z 10002790 f i batch.obj
 0001:000017f0       ??4Status@leveldb@@QAEXABV01@@Z 100027f0 f i batch_async.obj
 0001:00001840       ?Call_@Callback@Nan@@ABE?AV?$Local@VValue@v8@@@v8@@PAVIsolate@4@V?$Local@VObject@v8@@@4@HQAV34@@Z 10002840 f i batch_async.obj
 0001:00001910       ??0AsyncWorker@Nan@@QAE@PAVCallback@1@@Z 10002910 f i batch_async.obj
 0001:000019f0       ??1AsyncWorker@Nan@@UAE@XZ 100029f0 f i batch_async.obj
 0001:00001ad0       ?WorkComplete@AsyncWorker@Nan@@UAEXXZ 10002ad0 f i batch_async.obj
 0001:00001b80       ?Destroy@AsyncWorker@Nan@@UAEXXZ 10002b80 f i batch_async.obj
 0001:00001b90       ?HandleOKCallback@AsyncWorker@Nan@@MAEXXZ 10002b90 f i batch_async.obj
 0001:00001be0       ?HandleErrorCallback@AsyncWorker@Nan@@MAEXXZ 10002be0 f i batch_async.obj
 0001:00001cb0       ??_GAsyncWorker@Nan@@UAEPAXI@Z 10002cb0 f i batch_async.obj
 0001:00001cb0       ??_EAsyncWorker@Nan@@UAEPAXI@Z 10002cb0 f i * CIL library *:* CIL module *
 0001:00001cd0       ?SetStatus@AsyncWorker@leveldown@@IAEXVStatus@leveldb@@@Z 10002cd0 f i batch_async.obj
 0001:00001df0       ??_EAsyncWorker@leveldown@@UAEPAXI@Z 10002df0 f i * CIL library *:* CIL module *
 0001:00001df0       ??_GAsyncWorker@leveldown@@UAEPAXI@Z 10002df0 f i batch_async.obj
 0001:00001e60       ??1AsyncWorker@leveldown@@UAE@XZ 10002e60 f i batch_async.obj
 0001:00001ec0       ??_EBatchWriteWorker@leveldown@@UAEPAXI@Z 10002ec0 f i * CIL library *:* CIL module *
 0001:00001ec0       ??_GBatchWriteWorker@leveldown@@UAEPAXI@Z 10002ec0 f i batch_async.obj
 0001:00001f40       ?Execute@BatchWriteWorker@leveldown@@UAEXXZ 10002f40 f   batch_async.obj
 0001:00001fa0       ??1?$basic_string@DU?$char_traits@D@std@@V?$allocator@D@2@@std@@QAE@XZ 10002fa0 f i batch_async.obj
 0001:00001fe0       ?deallocate@?$_Wrap_alloc@V?$allocator@D@std@@@std@@QAEXPADI@Z 10002fe0 f i batch_async.obj
 0001:00002030       ?EmptyMethod@leveldown@@YAXABV?$FunctionCallbackInfo@VValue@v8@@@Nan@@@Z 10003030 f i database.obj
 0001:00002030       @_guard_check_icall_nop@4  10003030 f i LIBCMT:guard_support.obj
 0001:00002030       ___except_validate_context_record 10003030 f i libvcruntime:jbcxrval.obj
 0001:00002030       ___except_validate_jump_buffer 10003030 f i libvcruntime:jbcxrval.obj
 0001:00002030       ??3@YAXPAX0@Z              10003030 f i database.obj
 0001:00002040       ?ThrowError@Nan@@YAXPBD@Z  10003040 f i database.obj
 0001:000020f0       ??0Utf8String@Nan@@QAE@V?$Local@VValue@v8@@@v8@@@Z 100030f0 f i database.obj
 0001:000021a0       ??1Utf8String@Nan@@QAE@XZ  100031a0 f i database.obj
 0001:000021f0       ?UInt32OptionValue@leveldown@@YAIV?$Local@VObject@v8@@@v8@@PBDI@Z 100031f0 f i database.obj
 0001:000022d0       ??0Database@leveldown@@QAE@ABV?$Local@VValue@v8@@@v8@@@Z 100032d0 f   database.obj
 0001:000023d0       ??_GDatabase@leveldown@@UAEPAXI@Z 100033d0 f i database.obj
 0001:000023d0       ??_EDatabase@leveldown@@UAEPAXI@Z 100033d0 f i * CIL library *:* CIL module *
 0001:000023f0       ??1?$set@U?$pair@H_K@std@@U?$less@U?$pair@H_K@std@@@2@V?$allocator@U?$pair@H_K@std@@@2@@std@@QAE@XZ 100033f0 f i leveldb:db_impl.obj
 0001:000023f0       ??1?$set@_KU?$less@_K@std@@V?$allocator@_K@2@@std@@QAE@XZ 100033f0 f i leveldb:db_impl.obj
 0001:000023f0       ??1?$map@IPAVIterator@leveldown@@U?$less@I@std@@V?$allocator@U?$pair@$$CBIPAVIterator@leveldown@@@std@@@4@@std@@QAE@XZ 100033f0 f i database.obj
 0001:00002460       ??1Database@leveldown@@UAE@XZ 10003460 f   database.obj
 0001:00002520       ?OpenDatabase@Database@leveldown@@QAE?AVStatus@leveldb@@PAUOptions@4@@Z 10003520 f   database.obj
 0001:00002620       ?PutToDatabase@Database@leveldown@@QAE?AVStatus@leveldb@@PAUWriteOptions@4@VSlice@4@1@Z 10003620 f   database.obj
 0001:00002690       ?GetFromDatabase@Database@leveldown@@QAE?AVStatus@leveldb@@PAUReadOptions@4@VSlice@4@AAV?$basic_string@DU?$char_traits@D@std@@V?$allocator@D@2@@std@@@Z 10003690 f   database.obj
 0001:00002700       ?DeleteFromDatabase@Database@leveldown@@QAE?AVStatus@leveldb@@PAUWriteOptions@4@VSlice@4@@Z 10003700 f   database.obj
 0001:00002760       ?WriteBatchToDatabase@Database@leveldown@@QAE?AVStatus@leveldb@@PAUWriteOptions@4@PAVWriteBatch@4@@Z 10003760 f   database.obj
 0001:000027c0       ?LevelDOWN@leveldown@@YAXABV?$FunctionCallbackInfo@VValue@v8@@@Nan@@@Z 100037c0 f   database.obj
 0001:00002810       ?Init@Database@leveldown@@SAXXZ 10003810 f   database.obj
 0001:00002970       ?New@Database@leveldown@@CAXABV?$FunctionCallbackInfo@VValue@v8@@@Nan@@@Z 10003970 f   database.obj
 0001:00002a20       ?NewInstance@Database@leveldown@@SA?AV?$Local@VValue@v8@@@v8@@AAV?$Local@VString@v8@@@4@@Z 10003a20 f   database.obj
 0001:00002af0       ?Open@Database@leveldown@@CAXABV?$FunctionCallbackInfo@VValue@v8@@@Nan@@@Z 10003af0 f   database.obj
 0001:00002da0       ?Close@Database@leveldown@@CAXABV?$FunctionCallbackInfo@VValue@v8@@@Nan@@@Z 10003da0 f   database.obj
 0001:00003040       ?Put@Database@leveldown@@CAXABV?$FunctionCallbackInfo@VValue@v8@@@Nan@@@Z 10004040 f   database.obj
 0001:00003430       ?Get@Database@leveldown@@CAXABV?$FunctionCallbackInfo@VValue@v8@@@Nan@@@Z 10004430 f   database.obj
 0001:00003720       ?Delete@Database@leveldown@@CAXABV?$FunctionCallbackInfo@VValue@v8@@@Nan@@@Z 10004720 f   database.obj
 0001:00003a00       ?Batch@Database@leveldown@@CAXABV?$FunctionCallbackInfo@VValue@v8@@@Nan@@@Z 10004a00 f   database.obj
 0001:00004220       ?ApproximateSize@Database@leveldown@@CAXABV?$FunctionCallbackInfo@VValue@v8@@@Nan@@@Z 10005220 f   database.obj
 0001:00004580       ?GetProperty@Database@leveldown@@CAXABV?$FunctionCallbackInfo@VValue@v8@@@Nan@@@Z 10005580 f   database.obj
 0001:000047e0       ?Iterator@Database@leveldown@@CAXABV?$FunctionCallbackInfo@VValue@v8@@@Nan@@@Z 100057e0 f   database.obj
 0001:00004970       ??1?$_Tree@V?$_Tset_traits@_KU?$less@_K@std@@V?$allocator@_K@2@$0A@@std@@@std@@QAE@XZ 10005970 f i leveldb:db_impl.obj
 0001:00004970       ??1?$_Tree@V?$_Tmap_traits@IPAVIterator@leveldown@@U?$less@I@std@@V?$allocator@U?$pair@$$CBIPAVIterator@leveldown@@@std@@@4@$0A@@std@@@std@@QAE@XZ 10005970 f i database.obj
 0001:00004970       ??1?$_Tree@V?$_Tset_traits@U?$pair@H_K@std@@U?$less@U?$pair@H_K@std@@@2@V?$allocator@U?$pair@H_K@std@@@2@$0A@@std@@@std@@QAE@XZ 10005970 f i leveldb:db_impl.obj
 0001:000049e0       ??0?$basic_string@DU?$char_traits@D@std@@V?$allocator@D@2@@std@@QAE@PBD@Z 100059e0 f i database.obj
 0001:00004a30       ??0?$basic_string@DU?$char_traits@D@std@@V?$allocator@D@2@@std@@QAE@XZ 10005a30 f i database.obj
 0001:00004a50       ??1?$_Tree_comp_alloc@V?$_Tset_traits@_KU?$less@_K@std@@V?$allocator@_K@2@$0A@@std@@@std@@QAE@XZ 10005a50 f i leveldb:db_impl.obj
 0001:00004a50       ??1?$_Tree_comp_alloc@V?$_Tmap_traits@IPAVIterator@leveldown@@U?$less@I@std@@V?$allocator@U?$pair@$$CBIPAVIterator@leveldown@@@std@@@4@$0A@@std@@@std@@QAE@XZ 10005a50 f i database.obj
 0001:00004a50       ??1?$_Tree_comp_alloc@V?$_Tset_traits@U?$pair@H_K@std@@U?$less@U?$pair@H_K@std@@@2@V?$allocator@U?$pair@H_K@std@@@2@$0A@@std@@@std@@QAE@XZ 10005a50 f i leveldb:db_impl.obj
 0001:00004a60       ?erase@?$_Tree@V?$_Tset_traits@U?$pair@H_K@std@@U?$less@U?$pair@H_K@std@@@2@V?$allocator@U?$pair@H_K@std@@@2@$0A@@std@@@std@@QAE?AV?$_Tree_const_iterator@V?$_Tree_val@U?$_Tree_simple_types@U?$pair@H_K@std@@@std@@@std@@@2@V32@0@Z 10005a60 f i leveldb:db_impl.obj
 0001:00004a60       ?erase@?$_Tree@V?$_Tmap_traits@IPAVIterator@leveldown@@U?$less@I@std@@V?$allocator@U?$pair@$$CBIPAVIterator@leveldown@@@std@@@4@$0A@@std@@@std@@QAE?AV?$_Tree_iterator@V?$_Tree_val@U?$_Tree_simple_types@U?$pair@$$CBIPAVIterator@leveldown@@@std@@@std@@@std@@@2@V?$_Tree_const_iterator@V?$_Tree_val@U?$_Tree_simple_types@U?$pair@$$CBIPAVIterator@leveldown@@@std@@@std@@@std@@@2@0@Z 10005a60 f i database.obj
 0001:00004a60       ?erase@?$_Tree@V?$_Tset_traits@_KU?$less@_K@std@@V?$allocator@_K@2@$0A@@std@@@std@@QAE?AV?$_Tree_const_iterator@V?$_Tree_val@U?$_Tree_simple_types@_K@std@@@std@@@2@V32@0@Z 10005a60 f i leveldb:db_impl.obj
 0001:00004b10       ?assign@?$basic_string@DU?$char_traits@D@std@@V?$allocator@D@2@@std@@QAEAAV12@PBDI@Z 10005b10 f i database.obj
 0001:00004c10       ?assign@?$basic_string@DU?$char_traits@D@std@@V?$allocator@D@2@@std@@QAEAAV12@ABV12@II@Z 10005c10 f i database.obj
 0001:00004d20       ??E?$_Tree_unchecked_const_iterator@V?$_Tree_val@U?$_Tree_simple_types@PAUFileMetaData@leveldb@@@std@@@std@@U_Iterator_base0@2@@std@@QAEAAV01@XZ 10005d20 f i leveldb:version_set.obj
 0001:00004d20       ??E?$_Tree_unchecked_const_iterator@V?$_Tree_val@U?$_Tree_simple_types@U?$pair@$$CBIPAVIterator@leveldown@@@std@@@std@@@std@@U_Iterator_base0@2@@std@@QAEAAV01@XZ 10005d20 f i database.obj
 0001:00004d20       ??E?$_Tree_unchecked_const_iterator@V?$_Tree_val@U?$_Tree_simple_types@_K@std@@@std@@U_Iterator_base0@2@@std@@QAEAAV01@XZ 10005d20 f i leveldb:db_impl.obj
 0001:00004d20       ??E?$_Tree_unchecked_const_iterator@V?$_Tree_val@U?$_Tree_simple_types@U?$pair@H_K@std@@@std@@@std@@U_Iterator_base0@2@@std@@QAEAAV01@XZ 10005d20 f i leveldb:db_impl.obj
 0001:00004d70       ?clear@?$_Tree@V?$_Tmap_traits@IPAVIterator@leveldown@@U?$less@I@std@@V?$allocator@U?$pair@$$CBIPAVIterator@leveldown@@@std@@@4@$0A@@std@@@std@@QAEXXZ 10005d70 f i database.obj
 0001:00004d70       ?clear@?$_Tree@V?$_Tset_traits@_KU?$less@_K@std@@V?$allocator@_K@2@$0A@@std@@@std@@QAEXXZ 10005d70 f i leveldb:db_impl.obj
 0001:00004d70       ?clear@?$_Tree@V?$_Tset_traits@U?$pair@H_K@std@@U?$less@U?$pair@H_K@std@@@2@V?$allocator@U?$pair@H_K@std@@@2@$0A@@std@@@std@@QAEXXZ 10005d70 f i leveldb:db_impl.obj
 0001:00004dc0       ?erase@?$_Tree@V?$_Tmap_traits@IPAVIterator@leveldown@@U?$less@I@std@@V?$allocator@U?$pair@$$CBIPAVIterator@leveldown@@@std@@@4@$0A@@std@@@std@@QAE?AV?$_Tree_iterator@V?$_Tree_val@U?$_Tree_simple_types@U?$pair@$$CBIPAVIterator@leveldown@@@std@@@std@@@std@@@2@V?$_Tree_const_iterator@V?$_Tree_val@U?$_Tree_simple_types@U?$pair@$$CBIPAVIterator@leveldown@@@std@@@std@@@std@@@2@@Z 10005dc0 f i database.obj
 0001:00004dc0       ?erase@?$_Tree@V?$_Tset_traits@U?$pair@H_K@std@@U?$less@U?$pair@H_K@std@@@2@V?$allocator@U?$pair@H_K@std@@@2@$0A@@std@@@std@@QAE?AV?$_Tree_const_iterator@V?$_Tree_val@U?$_Tree_simple_types@U?$pair@H_K@std@@@std@@@std@@@2@V32@@Z 10005dc0 f i leveldb:db_impl.obj
 0001:00004dc0       ?erase@?$_Tree@V?$_Tset_traits@_KU?$less@_K@std@@V?$allocator@_K@2@$0A@@std@@@std@@QAE?AV?$_Tree_const_iterator@V?$_Tree_val@U?$_Tree_simple_types@_K@std@@@std@@@2@V32@@Z 10005dc0 f i leveldb:db_impl.obj
 0001:00005070       ?_Grow@?$basic_string@DU?$char_traits@D@std@@V?$allocator@D@2@@std@@QAE_NI_N@Z 10006070 f i database.obj
 0001:00005120       ?erase@?$basic_string@DU?$char_traits@D@std@@V?$allocator@D@2@@std@@QAEAAV12@II@Z 10006120 f i database.obj
 0001:000051c0       ?_Rrotate@?$_Tree@V?$_Tset_traits@_KU?$less@_K@std@@V?$allocator@_K@2@$0A@@std@@@std@@IAEXPAU?$_Tree_node@_KPAX@2@@Z 100061c0 f i leveldb:db_impl.obj
 0001:000051c0       ?_Rrotate@?$_Tree@V?$_Tmap_traits@IPAVIterator@leveldown@@U?$less@I@std@@V?$allocator@U?$pair@$$CBIPAVIterator@leveldown@@@std@@@4@$0A@@std@@@std@@IAEXPAU?$_Tree_node@U?$pair@$$CBIPAVIterator@leveldown@@@std@@PAX@2@@Z 100061c0 f i database.obj
 0001:000051c0       ?_Rrotate@?$_Tree@V?$_Tset_traits@U?$pair@H_K@std@@U?$less@U?$pair@H_K@std@@@2@V?$allocator@U?$pair@H_K@std@@@2@$0A@@std@@@std@@IAEXPAU?$_Tree_node@U?$pair@H_K@std@@PAX@2@@Z 100061c0 f i leveldb:db_impl.obj
 0001:00005220       ?_Lrotate@?$_Tree@V?$_Tset_traits@_KU?$less@_K@std@@V?$allocator@_K@2@$0A@@std@@@std@@IAEXPAU?$_Tree_node@_KPAX@2@@Z 10006220 f i leveldb:db_impl.obj
 0001:00005220       ?_Lrotate@?$_Tree@V?$_Tmap_traits@IPAVIterator@leveldown@@U?$less@I@std@@V?$allocator@U?$pair@$$CBIPAVIterator@leveldown@@@std@@@4@$0A@@std@@@std@@IAEXPAU?$_Tree_node@U?$pair@$$CBIPAVIterator@leveldown@@@std@@PAX@2@@Z 10006220 f i database.obj
 0001:00005220       ?_Lrotate@?$_Tree@V?$_Tset_traits@U?$pair@H_K@std@@U?$less@U?$pair@H_K@std@@@2@V?$allocator@U?$pair@H_K@std@@@2@$0A@@std@@@std@@IAEXPAU?$_Tree_node@U?$pair@H_K@std@@PAX@2@@Z 10006220 f i leveldb:db_impl.obj
 0001:00005270       ?_Erase@?$_Tree@V?$_Tmap_traits@IPAVIterator@leveldown@@U?$less@I@std@@V?$allocator@U?$pair@$$CBIPAVIterator@leveldown@@@std@@@4@$0A@@std@@@std@@IAEXPAU?$_Tree_node@U?$pair@$$CBIPAVIterator@leveldown@@@std@@PAX@2@@Z 10006270 f i database.obj
 0001:00005270       ?_Erase@?$_Tree@V?$_Tset_traits@PAUFileMetaData@leveldb@@UBySmallestKey@Builder@VersionSet@2@V?$allocator@PAUFileMetaData@leveldb@@@std@@$0A@@std@@@std@@IAEXPAU?$_Tree_node@PAUFileMetaData@leveldb@@PAX@2@@Z 10006270 f i leveldb:version_set.obj
 0001:00005270       ?_Erase@?$_Tree@V?$_Tset_traits@U?$pair@H_K@std@@U?$less@U?$pair@H_K@std@@@2@V?$allocator@U?$pair@H_K@std@@@2@$0A@@std@@@std@@IAEXPAU?$_Tree_node@U?$pair@H_K@std@@PAX@2@@Z 10006270 f i leveldb:db_impl.obj
 0001:00005270       ?_Erase@?$_Tree@V?$_Tset_traits@_KU?$less@_K@std@@V?$allocator@_K@2@$0A@@std@@@std@@IAEXPAU?$_Tree_node@_KPAX@2@@Z 10006270 f i leveldb:db_impl.obj
 0001:000052b0       ?_Copy@?$basic_string@DU?$char_traits@D@std@@V?$allocator@D@2@@std@@QAEXII@Z 100062b0 f i database.obj
 0001:000053a0       ??$_Eqrange@I@?$_Tree@V?$_Tmap_traits@IPAVIterator@leveldown@@U?$less@I@std@@V?$allocator@U?$pair@$$CBIPAVIterator@leveldown@@@std@@@4@$0A@@std@@@std@@IBE?AU?$pair@V?$_Tree_const_iterator@V?$_Tree_val@U?$_Tree_simple_types@U?$pair@$$CBIPAVIterator@leveldown@@@std@@@std@@@std@@@std@@V12@@1@ABI@Z 100063a0 f i database.obj
 0001:00005420       ??$_Try_emplace@ABI$$V@?$map@IPAVIterator@leveldown@@U?$less@I@std@@V?$allocator@U?$pair@$$CBIPAVIterator@leveldown@@@std@@@4@@std@@QAE?AU?$pair@V?$_Tree_iterator@V?$_Tree_val@U?$_Tree_simple_types@U?$pair@$$CBIPAVIterator@leveldown@@@std@@@std@@@std@@@std@@_N@1@ABI@Z 10006420 f i database.obj
 0001:00005520       ??$_Insert_hint@AAU?$pair@$$CBIPAVIterator@leveldown@@@std@@PAU?$_Tree_node@U?$pair@$$CBIPAVIterator@leveldown@@@std@@PAX@2@@?$_Tree@V?$_Tmap_traits@IPAVIterator@leveldown@@U?$less@I@std@@V?$allocator@U?$pair@$$CBIPAVIterator@leveldown@@@std@@@4@$0A@@std@@@std@@IAE?AV?$_Tree_iterator@V?$_Tree_val@U?$_Tree_simple_types@U?$pair@$$CBIPAVIterator@leveldown@@@std@@@std@@@std@@@1@V?$_Tree_const_iterator@V?$_Tree_val@U?$_Tree_simple_types@U?$pair@$$CBIPAVIterator@leveldown@@@std@@@std@@@std@@@1@AAU?$pair@$$CBIPAVIterator@leveldown@@@1@PAU?$_Tree_node@U?$pair@$$CBIPAVIterator@leveldown@@@std@@PAX@1@@Z 10006520 f i database.obj
 0001:00005690       ??F?$_Tree_unchecked_const_iterator@V?$_Tree_val@U?$_Tree_simple_types@U?$pair@H_K@std@@@std@@@std@@U_Iterator_base0@2@@std@@QAEAAV01@XZ 10006690 f i leveldb:db_impl.obj
 0001:00005690       ??F?$_Tree_unchecked_const_iterator@V?$_Tree_val@U?$_Tree_simple_types@U?$pair@$$CBIPAVIterator@leveldown@@@std@@@std@@@std@@U_Iterator_base0@2@@std@@QAEAAV01@XZ 10006690 f i database.obj
 0001:00005690       ??F?$_Tree_unchecked_const_iterator@V?$_Tree_val@U?$_Tree_simple_types@_K@std@@@std@@U_Iterator_base0@2@@std@@QAEAAV01@XZ 10006690 f i leveldb:db_impl.obj
 0001:00005690       ??F?$_Tree_unchecked_const_iterator@V?$_Tree_val@U?$_Tree_simple_types@PAUFileMetaData@leveldb@@@std@@@std@@U_Iterator_base0@2@@std@@QAEAAV01@XZ 10006690 f i leveldb:version_set.obj
 0001:000056f0       ??$_Insert_at@AAU?$pair@$$CBIPAVIterator@leveldown@@@std@@PAU?$_Tree_node@U?$pair@$$CBIPAVIterator@leveldown@@@std@@PAX@2@@?$_Tree@V?$_Tmap_traits@IPAVIterator@leveldown@@U?$less@I@std@@V?$allocator@U?$pair@$$CBIPAVIterator@leveldown@@@std@@@4@$0A@@std@@@std@@IAE?AV?$_Tree_iterator@V?$_Tree_val@U?$_Tree_simple_types@U?$pair@$$CBIPAVIterator@leveldown@@@std@@@std@@@std@@@1@_NPAU?$_Tree_node@U?$pair@$$CBIPAVIterator@leveldown@@@std@@PAX@1@AAU?$pair@$$CBIPAVIterator@leveldown@@@1@1@Z 100066f0 f i database.obj
 0001:000058d0       ??$_Insert_nohint@AAU?$pair@$$CBIPAVIterator@leveldown@@@std@@PAU?$_Tree_node@U?$pair@$$CBIPAVIterator@leveldown@@@std@@PAX@2@@?$_Tree@V?$_Tmap_traits@IPAVIterator@leveldown@@U?$less@I@std@@V?$allocator@U?$pair@$$CBIPAVIterator@leveldown@@@std@@@4@$0A@@std@@@std@@IAE?AU?$pair@V?$_Tree_iterator@V?$_Tree_val@U?$_Tree_simple_types@U?$pair@$$CBIPAVIterator@leveldown@@@std@@@std@@@std@@@std@@_N@1@_NAAU?$pair@$$CBIPAVIterator@leveldown@@@1@PAU?$_Tree_node@U?$pair@$$CBIPAVIterator@leveldown@@@std@@PAX@1@@Z 100068d0 f i database.obj
 0001:00005990       ?GetFromPersistent@AsyncWorker@Nan@@QBE?AV?$Local@VValue@v8@@@v8@@PBD@Z 10006990 f i database_async.obj
 0001:00005a70       ??0OpenWorker@leveldown@@QAE@PAVDatabase@1@PAVCallback@Nan@@PAVCache@leveldb@@PBVFilterPolicy@6@_N44IIII@Z 10006a70 f   database_async.obj
 0001:00005b60       ??_EOpenWorker@leveldown@@UAEPAXI@Z 10006b60 f i * CIL library *:* CIL module *
 0001:00005b60       ??_GOpenWorker@leveldown@@UAEPAXI@Z 10006b60 f i database_async.obj
 0001:00005bf0       ?Execute@OpenWorker@leveldown@@UAEXXZ 10006bf0 f   database_async.obj
 0001:00005c50       ??_GCloseWorker@leveldown@@UAEPAXI@Z 10006c50 f i database_async.obj
 0001:00005c50       ??_ECloseWorker@leveldown@@UAEPAXI@Z 10006c50 f i * CIL library *:* CIL module *
 0001:00005cd0       ?Execute@CloseWorker@leveldown@@UAEXXZ 10006cd0 f   database_async.obj
 0001:00005d20       ?WorkComplete@CloseWorker@leveldown@@UAEXXZ 10006d20 f   database_async.obj
 0001:00005e10       ??0IOWorker@leveldown@@QAE@PAVDatabase@1@PAVCallback@Nan@@VSlice@leveldb@@AAV?$Local@VObject@v8@@@v8@@@Z 10006e10 f   database_async.obj
 0001:00005ed0       ??_GIOWorker@leveldown@@UAEPAXI@Z 10006ed0 f i database_async.obj
 0001:00005ed0       ??_EIOWorker@leveldown@@UAEPAXI@Z 10006ed0 f i * CIL library *:* CIL module *
 0001:00005f50       ??1IOWorker@leveldown@@UAE@XZ 10006f50 f   database_async.obj
 0001:00005fc0       ?WorkComplete@IOWorker@leveldown@@UAEXXZ 10006fc0 f   database_async.obj
 0001:00006060       ??0ReadWorker@leveldown@@QAE@PAVDatabase@1@PAVCallback@Nan@@VSlice@leveldb@@_N3AAV?$Local@VObject@v8@@@v8@@@Z 10007060 f   database_async.obj
 0001:00006160       ??_GReadWorker@leveldown@@UAEPAXI@Z 10007160 f i database_async.obj
 0001:00006160       ??_EReadWorker@leveldown@@UAEPAXI@Z 10007160 f i * CIL library *:* CIL module *
 0001:00006190       ??1ReadWorker@leveldown@@UAE@XZ 10007190 f   database_async.obj
 0001:00006250       ?Execute@ReadWorker@leveldown@@UAEXXZ 10007250 f   database_async.obj
 0001:000062c0       ?HandleOKCallback@ReadWorker@leveldown@@UAEXXZ 100072c0 f   database_async.obj
 0001:00006400       ??0DeleteWorker@leveldown@@QAE@PAVDatabase@1@PAVCallback@Nan@@VSlice@leveldb@@_NAAV?$Local@VObject@v8@@@v8@@@Z 10007400 f   database_async.obj
 0001:000064c0       ??_GDeleteWorker@leveldown@@UAEPAXI@Z 100074c0 f i database_async.obj
 0001:000064c0       ??_EDeleteWorker@leveldown@@UAEPAXI@Z 100074c0 f i * CIL library *:* CIL module *
 0001:00006560       ??1DeleteWorker@leveldown@@UAE@XZ 10007560 f   database_async.obj
 0001:000065e0       ?Execute@DeleteWorker@leveldown@@UAEXXZ 100075e0 f   database_async.obj
 0001:00006650       ??0WriteWorker@leveldown@@QAE@PAVDatabase@1@PAVCallback@Nan@@VSlice@leveldb@@2_NAAV?$Local@VObject@v8@@@v8@@4@Z 10007650 f   database_async.obj
 0001:00006710       ??_EWriteWorker@leveldown@@UAEPAXI@Z 10007710 f i * CIL library *:* CIL module *
 0001:00006710       ??_GWriteWorker@leveldown@@UAEPAXI@Z 10007710 f i database_async.obj
 0001:000067c0       ?Execute@WriteWorker@leveldown@@UAEXXZ 100077c0 f   database_async.obj
 0001:00006830       ?WorkComplete@WriteWorker@leveldown@@UAEXXZ 10007830 f   database_async.obj
 0001:000068e0       ??0BatchWorker@leveldown@@QAE@PAVDatabase@1@PAVCallback@Nan@@PAVWriteBatch@leveldb@@_N@Z 100078e0 f   database_async.obj
 0001:00006980       ??_EBatchWorker@leveldown@@UAEPAXI@Z 10007980 f i * CIL library *:* CIL module *
 0001:00006980       ??_GBatchWorker@leveldown@@UAEPAXI@Z 10007980 f i database_async.obj
 0001:000069a0       ??1BatchWorker@leveldown@@UAE@XZ 100079a0 f   database_async.obj
 0001:00006a60       ?Execute@BatchWorker@leveldown@@UAEXXZ 10007a60 f   database_async.obj
 0001:00006ac0       ??0ApproximateSizeWorker@leveldown@@QAE@PAVDatabase@1@PAVCallback@Nan@@VSlice@leveldb@@2AAV?$Local@VObject@v8@@@v8@@3@Z 10007ac0 f   database_async.obj
 0001:00006bb0       ??_GApproximateSizeWorker@leveldown@@UAEPAXI@Z 10007bb0 f i database_async.obj
 0001:00006bb0       ??_EApproximateSizeWorker@leveldown@@UAEPAXI@Z 10007bb0 f i * CIL library *:* CIL module *
 0001:00006c30       ?Execute@ApproximateSizeWorker@leveldown@@UAEXXZ 10007c30 f   database_async.obj
 0001:00006c70       ?WorkComplete@ApproximateSizeWorker@leveldown@@UAEXXZ 10007c70 f   database_async.obj
 0001:00006d50       ?HandleOKCallback@ApproximateSizeWorker@leveldown@@UAEXXZ 10007d50 f   database_async.obj
 0001:00006e20       ??0Slice@leveldb@@QAE@ABV?$basic_string@DU?$char_traits@D@std@@V?$allocator@D@2@@std@@@Z 10007e20 f i iterator.obj
 0001:00006e50       ?ToString@Slice@leveldb@@QBE?AV?$basic_string@DU?$char_traits@D@std@@V?$allocator@D@2@@std@@XZ 10007e50 f i iterator.obj
 0001:00006ec0       ?compare@Slice@leveldb@@QBEHABV12@@Z 10007ec0 f i iterator.obj
 0001:00007010       ??0Iterator@leveldown@@QAE@PAVDatabase@1@IPAVSlice@leveldb@@PAV?$basic_string@DU?$char_traits@D@std@@V?$allocator@D@2@@std@@_N33H2222333I@Z 10008010 f   iterator.obj
 0001:00007160       ??_GIterator@leveldown@@UAEPAXI@Z 10008160 f i iterator.obj
 0001:00007160       ??_EIterator@leveldown@@UAEPAXI@Z 10008160 f i * CIL library *:* CIL module *
 0001:00007180       ??1Iterator@leveldown@@UAE@XZ 10008180 f   iterator.obj
 0001:00007380       ?GetIterator@Iterator@leveldown@@AAE_NXZ 10008380 f   iterator.obj
 0001:00007590       ?Read@Iterator@leveldown@@AAE_NAAV?$basic_string@DU?$char_traits@D@std@@V?$allocator@D@2@@std@@0@Z 10008590 f   iterator.obj
 0001:000077c0       ?IteratorNext@Iterator@leveldown@@QAE_NAAV?$vector@U?$pair@V?$basic_string@DU?$char_traits@D@std@@V?$allocator@D@2@@std@@V12@@std@@V?$allocator@U?$pair@V?$basic_string@DU?$char_traits@D@std@@V?$allocator@D@2@@std@@V12@@std@@@2@@std@@@Z 100087c0 f   iterator.obj
 0001:00007a60       ??1?$pair@V?$basic_string@DU?$char_traits@D@std@@V?$allocator@D@2@@std@@V12@@std@@QAE@XZ 10008a60 f i iterator.obj
 0001:00007b20       ?IteratorStatus@Iterator@leveldown@@QAE?AVStatus@leveldb@@XZ 10008b20 f   iterator.obj
 0001:00007b80       ?Release@Iterator@leveldown@@QAEXXZ 10008b80 f   iterator.obj
 0001:00007bf0       ?checkEndCallback@leveldown@@YAXPAVIterator@1@@Z 10008bf0 f   iterator.obj
 0001:00007c30       ?Seek@Iterator@leveldown@@CAXABV?$FunctionCallbackInfo@VValue@v8@@@Nan@@@Z 10008c30 f   iterator.obj
 0001:00007e50       ?Next@Iterator@leveldown@@CAXABV?$FunctionCallbackInfo@VValue@v8@@@Nan@@@Z 10008e50 f   iterator.obj
 0001:00007fe0       ?End@Iterator@leveldown@@CAXABV?$FunctionCallbackInfo@VValue@v8@@@Nan@@@Z 10008fe0 f   iterator.obj
 0001:000081a0       ?Init@Iterator@leveldown@@SAXXZ 100091a0 f   iterator.obj
 0001:00008290       ?NewInstance@Iterator@leveldown@@SA?AV?$Local@VObject@v8@@@v8@@V34@V?$Local@VNumber@v8@@@4@0@Z 10009290 f   iterator.obj
 0001:00008390       ?New@Iterator@leveldown@@CAXABV?$FunctionCallbackInfo@VValue@v8@@@Nan@@@Z 10009390 f   iterator.obj
 0001:00009500       ?push_back@?$vector@U?$pair@V?$basic_string@DU?$char_traits@D@std@@V?$allocator@D@2@@std@@V12@@std@@V?$allocator@U?$pair@V?$basic_string@DU?$char_traits@D@std@@V?$allocator@D@2@@std@@V12@@std@@@2@@std@@QAEX$$QAU?$pair@V?$basic_string@DU?$char_traits@D@std@@V?$allocator@D@2@@std@@V12@@2@@Z 1000a500 f i iterator.obj
 0001:000095e0       ?compare@?$basic_string@DU?$char_traits@D@std@@V?$allocator@D@2@@std@@QBEHABV12@@Z 1000a5e0 f i iterator.obj
 0001:00009620       ??0?$basic_string@DU?$char_traits@D@std@@V?$allocator@D@2@@std@@QAE@$$QAV01@@Z 1000a620 f i iterator.obj
 0001:000096a0       ?_Reserve@?$vector@U?$pair@V?$basic_string@DU?$char_traits@D@std@@V?$allocator@D@2@@std@@V12@@std@@V?$allocator@U?$pair@V?$basic_string@DU?$char_traits@D@std@@V?$allocator@D@2@@std@@V12@@std@@@2@@std@@IAEXI@Z 1000a6a0 f i iterator.obj
 0001:00009730       ?_Traits_compare@?$basic_string@DU?$char_traits@D@std@@V?$allocator@D@2@@std@@SAHQBDI0I@Z 1000a730 f i iterator.obj
 0001:000097c0       ?_Assign_rv@?$basic_string@DU?$char_traits@D@std@@V?$allocator@D@2@@std@@QAEX$$QAV12@@Z 1000a7c0 f i iterator.obj
 0001:00009830       ?_Reallocate@?$vector@U?$pair@V?$basic_string@DU?$char_traits@D@std@@V?$allocator@D@2@@std@@V12@@std@@V?$allocator@U?$pair@V?$basic_string@DU?$char_traits@D@std@@V?$allocator@D@2@@std@@V12@@std@@@2@@std@@IAEXI@Z 1000a830 f i iterator.obj
 0001:00009930       ?deallocate@?$_Wrap_alloc@V?$allocator@U?$pair@V?$basic_string@DU?$char_traits@D@std@@V?$allocator@D@2@@std@@V12@@std@@@std@@@std@@QAEXPAU?$pair@V?$basic_string@DU?$char_traits@D@std@@V?$allocator@D@2@@std@@V12@@2@I@Z 1000a930 f i iterator.obj
 0001:00009990       ??$make_pair@AAV?$basic_string@DU?$char_traits@D@std@@V?$allocator@D@2@@std@@AAV12@@std@@YA?AU?$pair@V?$basic_string@DU?$char_traits@D@std@@V?$allocator@D@2@@std@@V12@@0@AAV?$basic_string@DU?$char_traits@D@std@@V?$allocator@D@2@@0@0@Z 1000a990 f i iterator.obj
 0001:00009a30       ??$_Destroy_range1@V?$allocator@U?$pair@V?$basic_string@DU?$char_traits@D@std@@V?$allocator@D@2@@std@@V12@@std@@@std@@PAU?$pair@V?$basic_string@DU?$char_traits@D@std@@V?$allocator@D@2@@std@@V12@@2@@std@@YAXPAU?$pair@V?$basic_string@DU?$char_traits@D@std@@V?$allocator@D@2@@std@@V12@@0@0AAU?$_Wrap_alloc@V?$allocator@U?$pair@V?$basic_string@DU?$char_traits@D@std@@V?$allocator@D@2@@std@@V12@@std@@@std@@@0@U?$integral_constant@_N$0A@@0@@Z 1000aa30 f i iterator.obj
 0001:00009b60       ??$_Uninitialized_move_al_unchecked1@PAU?$pair@V?$basic_string@DU?$char_traits@D@std@@V?$allocator@D@2@@std@@V12@@std@@PAU12@V?$allocator@U?$pair@V?$basic_string@DU?$char_traits@D@std@@V?$allocator@D@2@@std@@V12@@std@@@2@@std@@YAPAU?$pair@V?$basic_string@DU?$char_traits@D@std@@V?$allocator@D@2@@std@@V12@@0@PAU10@00AAU?$_Wrap_alloc@V?$allocator@U?$pair@V?$basic_string@DU?$char_traits@D@std@@V?$allocator@D@2@@std@@V12@@std@@@std@@@0@U_General_ptr_iterator_tag@0@U_Any_tag@0@@Z 1000ab60 f i iterator.obj
 0001:00009bf0       ??0NextWorker@leveldown@@QAE@PAVIterator@1@PAVCallback@Nan@@P6AX0@Z@Z 1000abf0 f   iterator_async.obj
 0001:00009c90       ??_GNextWorker@leveldown@@UAEPAXI@Z 1000ac90 f i iterator_async.obj
 0001:00009c90       ??_ENextWorker@leveldown@@UAEPAXI@Z 1000ac90 f i * CIL library *:* CIL module *
 0001:00009cc0       ??1NextWorker@leveldown@@UAE@XZ 1000acc0 f   iterator_async.obj
 0001:00009d80       ?Execute@NextWorker@leveldown@@UAEXXZ 1000ad80 f   iterator_async.obj
 0001:00009df0       ?HandleOKCallback@NextWorker@leveldown@@UAEXXZ 1000adf0 f   iterator_async.obj
 0001:0000a390       ??_GEndWorker@leveldown@@UAEPAXI@Z 1000b390 f i iterator_async.obj
 0001:0000a390       ??_EEndWorker@leveldown@@UAEPAXI@Z 1000b390 f i * CIL library *:* CIL module *
 0001:0000a410       ?Execute@EndWorker@leveldown@@UAEXXZ 1000b410 f   iterator_async.obj
 0001:0000a440       ?HandleOKCallback@EndWorker@leveldown@@UAEXXZ 1000b440 f   iterator_async.obj
 0001:0000a490       ??1?$vector@U?$pair@V?$basic_string@DU?$char_traits@D@std@@V?$allocator@D@2@@std@@V12@@std@@V?$allocator@U?$pair@V?$basic_string@DU?$char_traits@D@std@@V?$allocator@D@2@@std@@V12@@std@@@2@@std@@QAE@XZ 1000b490 f i iterator_async.obj
 0001:0000a4e0       ?DestroyDB@leveldown@@YAXABV?$FunctionCallbackInfo@VValue@v8@@@Nan@@@Z 1000b4e0 f   leveldown.obj
 0001:0000a630       ?RepairDB@leveldown@@YAXABV?$FunctionCallbackInfo@VValue@v8@@@Nan@@@Z 1000b630 f   leveldown.obj
 0001:0000a780       ?Init@leveldown@@YAXV?$Local@VObject@v8@@@v8@@@Z 1000b780 f   leveldown.obj
 0001:0000a8e0       ??_GDestroyWorker@leveldown@@UAEPAXI@Z 1000b8e0 f i leveldown_async.obj
 0001:0000a8e0       ??_EDestroyWorker@leveldown@@UAEPAXI@Z 1000b8e0 f i * CIL library *:* CIL module *
 0001:0000a990       ?Execute@DestroyWorker@leveldown@@UAEXXZ 1000b990 f   leveldown_async.obj
 0001:0000aa80       ??_ERepairWorker@leveldown@@UAEPAXI@Z 1000ba80 f i * CIL library *:* CIL module *
 0001:0000aa80       ??_GRepairWorker@leveldown@@UAEPAXI@Z 1000ba80 f i leveldown_async.obj
 0001:0000ab30       ?Execute@RepairWorker@leveldown@@UAEXXZ 1000bb30 f   leveldown_async.obj
 0001:0000ac70       ?remove_prefix@Slice@leveldb@@QAEXI@Z 1000bc70 f i leveldb:write_batch.obj
 0001:0000aca0       ?OK@Status@leveldb@@SA?AV12@XZ 1000bca0 f i leveldb:write_batch.obj
 0001:0000ad00       ?Corruption@Status@leveldb@@SA?AV12@ABVSlice@2@0@Z 1000bd00 f i leveldb:write_batch.obj
 0001:0000adc0       ?GetVarint32Ptr@leveldb@@YAPBDPBD0PAI@Z 1000bdc0 f i leveldb:write_batch.obj
 0001:0000ae20       ??0WriteBatch@leveldb@@QAE@XZ 1000be20 f   leveldb:write_batch.obj
 0001:0000aed0       ??1WriteBatch@leveldb@@QAE@XZ 1000bed0 f   leveldb:write_batch.obj
 0001:0000aed0       ??1InternalKey@leveldb@@QAE@XZ 1000bed0 f   leveldb:db_impl.obj
 0001:0000af50       ??1SequentialFile@leveldb@@UAE@XZ 1000bf50 f   leveldb:env.obj
 0001:0000af50       ??1Handler@WriteBatch@leveldb@@UAE@XZ 1000bf50 f   leveldb:write_batch.obj
 0001:0000af60       ??_EHandler@WriteBatch@leveldb@@UAEPAXI@Z 1000bf60 f i * CIL library *:* CIL module *
 0001:0000af60       ??_ESequentialFile@leveldb@@UAEPAXI@Z 1000bf60 f i * CIL library *:* CIL module *
 0001:0000af60       ??_GSequentialFile@leveldb@@UAEPAXI@Z 1000bf60 f i leveldb:env.obj
 0001:0000af60       ??_GHandler@WriteBatch@leveldb@@UAEPAXI@Z 1000bf60 f i leveldb:write_batch.obj
 0001:0000af90       ?Clear@WriteBatch@leveldb@@QAEXXZ 1000bf90 f   leveldb:write_batch.obj
 0001:0000afe0       ?Iterate@WriteBatch@leveldb@@QBE?AVStatus@2@PAVHandler@12@@Z 1000bfe0 f   leveldb:write_batch.obj
 0001:0000b320       ?Put@WriteBatch@leveldb@@QAEXABVSlice@2@0@Z 1000c320 f   leveldb:write_batch.obj
 0001:0000b3f0       ?Delete@WriteBatch@leveldb@@QAEXABVSlice@2@@Z 1000c3f0 f   leveldb:write_batch.obj
 0001:0000b500       ?InsertInto@WriteBatchInternal@leveldb@@SA?AVStatus@2@PBVWriteBatch@2@PAVMemTable@2@@Z 1000c500 f   leveldb:write_batch.obj
 0001:0000b5f0       ??_EMemTableInserter@?A0x588df0ed@leveldb@@UAEPAXI@Z 1000c5f0 f i * CIL library *:* CIL module *
 0001:0000b5f0       ??_GMemTableInserter@?A0x588df0ed@leveldb@@UAEPAXI@Z 1000c5f0 f i leveldb:write_batch.obj
 0001:0000b650       ?Append@WriteBatchInternal@leveldb@@SAXPAVWriteBatch@2@PBV32@@Z 1000c650 f   leveldb:write_batch.obj
 0001:0000b6c0       ?push_back@?$basic_string@DU?$char_traits@D@std@@V?$allocator@D@2@@std@@QAEXD@Z 1000c6c0 f i leveldb:write_batch.obj
 0001:0000b730       ?append@?$basic_string@DU?$char_traits@D@std@@V?$allocator@D@2@@std@@QAEAAV12@PBDI@Z 1000c730 f i leveldb:write_batch.obj
 0001:0000b860       ?append@?$basic_string@DU?$char_traits@D@std@@V?$allocator@D@2@@std@@QAEAAV12@ABV12@II@Z 1000c860 f i leveldb:write_batch.obj
 0001:0000b960       ?_Chassign@?$basic_string@DU?$char_traits@D@std@@V?$allocator@D@2@@std@@QAEXIID@Z 1000c960 f i leveldb:write_batch.obj
 0001:0000b9a0       ?append@?$basic_string@DU?$char_traits@D@std@@V?$allocator@D@2@@std@@QAEAAV12@ID@Z 1000c9a0 f i leveldb:write_batch.obj
 0001:0000ba40       ___local_stdio_printf_options 1000ca40 f i leveldb:status.obj
 0001:0000ba50       _vsnprintf                 1000ca50 f i leveldb:status.obj
 0001:0000ba90       _snprintf                  1000ca90 f i leveldb:status.obj
 0001:0000bab0       ?ToString@Status@leveldb@@QBE?AV?$basic_string@DU?$char_traits@D@std@@V?$allocator@D@2@@std@@XZ 1000cab0 f   leveldb:status.obj
 0001:0000be10       ??_GBloomFilterPolicy@?A0xdfcd7922@leveldb@@UAEPAXI@Z 1000ce10 f i leveldb:bloom.obj
 0001:0000be10       ??_EBloomFilterPolicy@?A0xdfcd7922@leveldb@@UAEPAXI@Z 1000ce10 f i * CIL library *:* CIL module *
 0001:0000be70       ??_GSource@snappy@@UAEPAXI@Z 1000ce70 f i snappy:snappy.obj
 0001:0000be70       ??_ESource@snappy@@UAEPAXI@Z 1000ce70 f i * CIL library *:* CIL module *
 0001:0000be70       ??_EFilterPolicy@leveldb@@UAEPAXI@Z 1000ce70 f i * CIL library *:* CIL module *
 0001:0000be70       ??_GFilterPolicy@leveldb@@UAEPAXI@Z 1000ce70 f i leveldb:bloom.obj
 0001:0000bea0       ?starts_with@Slice@leveldb@@QBE_NABV12@@Z 1000cea0 f i leveldb:db_impl.obj
 0001:0000bf10       ??8leveldb@@YA_NABVSlice@0@0@Z 1000cf10 f i leveldb:db_impl.obj
 0001:0000bf70       ?InvalidArgument@Status@leveldb@@SA?AV12@ABVSlice@2@0@Z 1000cf70 f i leveldb:db_impl.obj
 0001:0000c030       ?IOError@Status@leveldb@@SA?AV12@ABVSlice@2@0@Z 1000d030 f i leveldb:db_impl.obj
 0001:0000c0f0       ??0Status@leveldb@@QAE@ABV01@@Z 1000d0f0 f i leveldb:db_impl.obj
 0001:0000c130       ??_EDB@leveldb@@UAEPAXI@Z  1000d130 f i * CIL library *:* CIL module *
 0001:0000c130       ??_GDB@leveldb@@UAEPAXI@Z  1000d130 f i leveldb:db_impl.obj
 0001:0000c160       ??_EInternalKeyComparator@leveldb@@UAEPAXI@Z 1000d160 f i * CIL library *:* CIL module *
 0001:0000c160       ??_GInternalKeyComparator@leveldb@@UAEPAXI@Z 1000d160 f i leveldb:db_impl.obj
 0001:0000c1c0       ??1InternalKeyComparator@leveldb@@UAE@XZ 1000d1c0 f i leveldb:db_impl.obj
 0001:0000c210       ??_GComparator@leveldb@@UAEPAXI@Z 1000d210 f i leveldb:db_impl.obj
 0001:0000c210       ??_GWritableFile@leveldb@@UAEPAXI@Z 1000d210 f i leveldb:env.obj
 0001:0000c210       ??_EWritableFile@leveldb@@UAEPAXI@Z 1000d210 f i * CIL library *:* CIL module *
 0001:0000c210       ??_EComparator@leveldb@@UAEPAXI@Z 1000d210 f i * CIL library *:* CIL module *
 0001:0000c240       ??_GInternalFilterPolicy@leveldb@@UAEPAXI@Z 1000d240 f i leveldb:db_impl.obj
 0001:0000c240       ??_EInternalFilterPolicy@leveldb@@UAEPAXI@Z 1000d240 f i * CIL library *:* CIL module *
 0001:0000c2a0       ??1InternalFilterPolicy@leveldb@@UAE@XZ 1000d2a0 f i leveldb:db_impl.obj
 0001:0000c2f0       ??1LookupKey@leveldb@@QAE@XZ 1000d2f0 f i leveldb:db_impl.obj
 0001:0000c310       ??1SnapshotImpl@leveldb@@UAE@XZ 1000d310 f i leveldb:db_impl.obj
 0001:0000c360       ??_ESnapshotImpl@leveldb@@UAEPAXI@Z 1000d360 f i * CIL library *:* CIL module *
 0001:0000c360       ??_GSnapshotImpl@leveldb@@UAEPAXI@Z 1000d360 f i leveldb:db_impl.obj
 0001:0000c3c0       ??_ESnapshot@leveldb@@MAEPAXI@Z 1000d3c0 f i * CIL library *:* CIL module *
 0001:0000c3c0       ??_EFileLock@leveldb@@UAEPAXI@Z 1000d3c0 f i * CIL library *:* CIL module *
 0001:0000c3c0       ??_GFileLock@leveldb@@UAEPAXI@Z 1000d3c0 f i leveldb:env.obj
 0001:0000c3c0       ??_GSnapshot@leveldb@@MAEPAXI@Z 1000d3c0 f i leveldb:db_impl.obj
 0001:0000c3f0       ??0VersionEdit@leveldb@@QAE@XZ 1000d3f0 f i leveldb:db_impl.obj
 0001:0000c4d0       ??1VersionEdit@leveldb@@QAE@XZ 1000d4d0 f i leveldb:db_impl.obj
 0001:0000c5e0       ?SetComparatorName@VersionEdit@leveldb@@QAEXABVSlice@2@@Z 1000d5e0 f i leveldb:db_impl.obj
 0001:0000c6b0       ?AddFile@VersionEdit@leveldb@@QAEXH_K0ABVInternalKey@2@1@Z 1000d6b0 f i leveldb:db_impl.obj
 0001:0000c800       ?DeleteFileA@VersionEdit@leveldb@@QAEXH_K@Z 1000d800 f i leveldb:db_impl.obj
 0001:0000c840       ??1?$pair@HVInternalKey@leveldb@@@std@@QAE@XZ 1000d840 f i leveldb:db_impl.obj
 0001:0000c8d0       ??1FileMetaData@leveldb@@QAE@XZ 1000d8d0 f i leveldb:db_impl.obj
 0001:0000c9a0       ??1?$pair@HUFileMetaData@leveldb@@@std@@QAE@XZ 1000d9a0 f i leveldb:db_impl.obj
 0001:0000c9f0       ?SetLastSequence@VersionSet@leveldb@@QAEX_K@Z 1000d9f0 f i leveldb:db_impl.obj
 0001:0000ca30       ??1MutexLock@leveldb@@QAE@XZ 1000da30 f i leveldb:db_impl.obj
 0001:0000ca70       ??0CompactionState@DBImpl@leveldb@@QAE@PAVCompaction@2@@Z 1000da70 f i leveldb:db_impl.obj
 0001:0000caf0       ?SanitizeOptions@leveldb@@YA?AUOptions@1@ABV?$basic_string@DU?$char_traits@D@std@@V?$allocator@D@2@@std@@PBVInternalKeyComparator@1@PBVInternalFilterPolicy@1@ABU21@@Z 1000daf0 f   leveldb:db_impl.obj
 0001:0000cd20       ??0DBImpl@leveldb@@QAE@ABUOptions@1@ABV?$basic_string@DU?$char_traits@D@std@@V?$allocator@D@2@@std@@@Z 1000dd20 f   leveldb:db_impl.obj
 0001:0000d1c0       ??1DBImpl@leveldb@@UAE@XZ  1000e1c0 f   leveldb:db_impl.obj
 0001:0000d4d0       ?NewDB@DBImpl@leveldb@@AAE?AVStatus@2@XZ 1000e4d0 f   leveldb:db_impl.obj
 0001:0000d8a0       ?MaybeIgnoreError@DBImpl@leveldb@@ABEXPAVStatus@2@@Z 1000e8a0 f   leveldb:db_impl.obj
 0001:0000d9c0       ?DeleteObsoleteFiles@DBImpl@leveldb@@AAEXXZ 1000e9c0 f   leveldb:db_impl.obj
 0001:0000dd80       ?Recover@DBImpl@leveldb@@AAE?AVStatus@2@PAVVersionEdit@2@@Z 1000ed80 f   leveldb:db_impl.obj
 0001:0000e480       ?RecoverLogFile@DBImpl@leveldb@@AAE?AVStatus@2@_KPAVVersionEdit@2@PA_K@Z 1000f480 f   leveldb:db_impl.obj
 0001:0000eac0       ?WriteLevel0Table@DBImpl@leveldb@@AAE?AVStatus@2@PAVMemTable@2@PAVVersionEdit@2@PAVVersion@2@@Z 1000fac0 f   leveldb:db_impl.obj
 0001:0000ee40       ?CompactMemTable@DBImpl@leveldb@@AAEXXZ 1000fe40 f   leveldb:db_impl.obj
 0001:0000f100       ?CompactRange@DBImpl@leveldb@@UAEXPBVSlice@2@0@Z 10010100 f   leveldb:db_impl.obj
 0001:0000f1f0       ?TEST_CompactRange@DBImpl@leveldb@@QAEXHPBVSlice@2@0@Z 100101f0 f   leveldb:db_impl.obj
 0001:0000f610       ?TEST_CompactMemTable@DBImpl@leveldb@@QAE?AVStatus@2@XZ 10010610 f   leveldb:db_impl.obj
 0001:0000f730       ?RecordBackgroundError@DBImpl@leveldb@@AAEXABVStatus@2@@Z 10010730 f   leveldb:db_impl.obj
 0001:0000f7a0       ?MaybeScheduleCompaction@DBImpl@leveldb@@AAEXXZ 100107a0 f   leveldb:db_impl.obj
 0001:0000f810       ?BGWork@DBImpl@leveldb@@CAXPAX@Z 10010810 f   leveldb:db_impl.obj
 0001:0000f820       ?BackgroundCall@DBImpl@leveldb@@AAEXXZ 10010820 f   leveldb:db_impl.obj
 0001:0000f8e0       ?BackgroundCompaction@DBImpl@leveldb@@AAEXXZ 100108e0 f   leveldb:db_impl.obj
 0001:0000fe30       ?CleanupCompaction@DBImpl@leveldb@@AAEXPAUCompactionState@12@@Z 10010e30 f   leveldb:db_impl.obj
 0001:0000ffd0       ?OpenCompactionOutputFile@DBImpl@leveldb@@AAE?AVStatus@2@PAUCompactionState@12@@Z 10010fd0 f   leveldb:db_impl.obj
 0001:000102a0       ?FinishCompactionOutputFile@DBImpl@leveldb@@AAE?AVStatus@2@PAUCompactionState@12@PAVIterator@2@@Z 100112a0 f   leveldb:db_impl.obj
 0001:00010630       ?InstallCompactionResults@DBImpl@leveldb@@AAE?AVStatus@2@PAUCompactionState@12@@Z 10011630 f   leveldb:db_impl.obj
 0001:00010740       ?DoCompactionWork@DBImpl@leveldb@@AAE?AVStatus@2@PAUCompactionState@12@@Z 10011740 f   leveldb:db_impl.obj
 0001:000112c0       ?NewInternalIterator@DBImpl@leveldb@@AAEPAVIterator@2@ABUReadOptions@2@PA_KPAI@Z 100122c0 f   leveldb:db_impl.obj
 0001:00011490       ?Get@DBImpl@leveldb@@UAE?AVStatus@2@ABUReadOptions@2@ABVSlice@2@PAV?$basic_string@DU?$char_traits@D@std@@V?$allocator@D@2@@std@@@Z 10012490 f   leveldb:db_impl.obj
 0001:000117a0       ?NewIterator@DBImpl@leveldb@@UAEPAVIterator@2@ABUReadOptions@2@@Z 100127a0 f   leveldb:db_impl.obj
 0001:00011840       ?GetSnapshot@DBImpl@leveldb@@UAEPBVSnapshot@2@XZ 10012840 f   leveldb:db_impl.obj
 0001:00011900       ?ReleaseSnapshot@DBImpl@leveldb@@UAEXPBVSnapshot@2@@Z 10012900 f   leveldb:db_impl.obj
 0001:000119a0       ?Put@DBImpl@leveldb@@UAE?AVStatus@2@ABUWriteOptions@2@ABVSlice@2@1@Z 100129a0 f   leveldb:db_impl.obj
 0001:00011a00       ?Delete@DBImpl@leveldb@@UAE?AVStatus@2@ABUWriteOptions@2@ABVSlice@2@@Z 10012a00 f   leveldb:db_impl.obj
 0001:00011a60       ?Write@DBImpl@leveldb@@UAE?AVStatus@2@ABUWriteOptions@2@PAVWriteBatch@2@@Z 10012a60 f   leveldb:db_impl.obj
 0001:00011ee0       ?BuildBatchGroup@DBImpl@leveldb@@AAEPAVWriteBatch@2@PAPAUWriter@12@@Z 10012ee0 f   leveldb:db_impl.obj
 0001:00012080       ?MakeRoomForWrite@DBImpl@leveldb@@AAE?AVStatus@2@_N@Z 10013080 f   leveldb:db_impl.obj
 0001:000124e0       ?GetProperty@DBImpl@leveldb@@UAE_NABVSlice@2@PAV?$basic_string@DU?$char_traits@D@std@@V?$allocator@D@2@@std@@@Z 100134e0 f   leveldb:db_impl.obj
 0001:00012900       ?GetApproximateSizes@DBImpl@leveldb@@UAEXPBURange@2@HPA_K@Z 10013900 f   leveldb:db_impl.obj
 0001:00012c10       ?Put@DB@leveldb@@UAE?AVStatus@2@ABUWriteOptions@2@ABVSlice@2@1@Z 10013c10 f   leveldb:db_impl.obj
 0001:00012ce0       ?Delete@DB@leveldb@@UAE?AVStatus@2@ABUWriteOptions@2@ABVSlice@2@@Z 10013ce0 f   leveldb:db_impl.obj
 0001:00012da0       ??1DB@leveldb@@UAE@XZ      10013da0 f   leveldb:db_impl.obj
 0001:00012db0       ?Open@DB@leveldb@@SA?AVStatus@2@ABUOptions@2@ABV?$basic_string@DU?$char_traits@D@std@@V?$allocator@D@2@@std@@PAPAV12@@Z 10013db0 f   leveldb:db_impl.obj
 0001:00013050       ??1FileLock@leveldb@@UAE@XZ 10014050 f   leveldb:env.obj
 0001:00013050       ??1Snapshot@leveldb@@MAE@XZ 10014050 f   leveldb:db_impl.obj
 0001:00013060       ?DestroyDB@leveldb@@YA?AVStatus@1@ABV?$basic_string@DU?$char_traits@D@std@@V?$allocator@D@2@@std@@ABUOptions@1@@Z 10014060 f   leveldb:db_impl.obj
 0001:00013460       ??_EDBImpl@leveldb@@UAEPAXI@Z 10014460 f i * CIL library *:* CIL module *
 0001:00013460       ??_GDBImpl@leveldb@@UAEPAXI@Z 10014460 f i leveldb:db_impl.obj
 0001:00013490       ??1SnapshotList@leveldb@@QAE@XZ 10014490 f i leveldb:db_impl.obj
 0001:000134e0       ??_GLogReporter@?1??RecoverLogFile@DBImpl@leveldb@@AAE?AVStatus@3@_KPAVVersionEdit@3@PA_K@Z@UAEPAXI@Z 100144e0 f i leveldb:db_impl.obj
 0001:000134e0       ??_ELogReporter@?1??RecoverLogFile@DBImpl@leveldb@@AAE?AVStatus@3@_KPAVVersionEdit@3@PA_K@Z@UAEPAXI@Z 100144e0 f i * CIL library *:* CIL module *
 0001:00013590       ??1ManualCompaction@DBImpl@leveldb@@QAE@XZ 10014590 f i leveldb:db_impl.obj
 0001:00013620       ??_GTableBuilder@leveldb@@QAEPAXI@Z 10014620 f i leveldb:db_impl.obj
 0001:000136c0       ??1Output@CompactionState@DBImpl@leveldb@@QAE@XZ 100146c0 f i leveldb:db_impl.obj
 0001:00013790       ??1Writer@DBImpl@leveldb@@QAE@XZ 10014790 f i leveldb:db_impl.obj
 0001:000137f0       ??_ELogger@leveldb@@UAEPAXI@Z 100147f0 f i * CIL library *:* CIL module *
 0001:000137f0       ??_GRandomAccessFile@leveldb@@UAEPAXI@Z 100147f0 f i leveldb:env.obj
 0001:000137f0       ??_GLogger@leveldb@@UAEPAXI@Z 100147f0 f i leveldb:env.obj
 0001:000137f0       ??_GReporter@Reader@log@leveldb@@UAEPAXI@Z 100147f0 f i leveldb:db_impl.obj
 0001:000137f0       ??_EReporter@Reader@log@leveldb@@UAEPAXI@Z 100147f0 f i * CIL library *:* CIL module *
 0001:000137f0       ??_ERandomAccessFile@leveldb@@UAEPAXI@Z 100147f0 f i * CIL library *:* CIL module *
 0001:00013820       ?push_back@?$vector@_KV?$allocator@_K@std@@@std@@QAEXAB_K@Z 10014820 f i leveldb:db_impl.obj
 0001:00013890       ??1?$vector@_KV?$allocator@_K@std@@@std@@QAE@XZ 10014890 f i leveldb:db_impl.obj
 0001:00013890       ??1?$vector@VSlice@leveldb@@V?$allocator@VSlice@leveldb@@@std@@@std@@QAE@XZ 10014890 f i leveldb:table_builder.obj
 0001:000138c0       ??1?$vector@UOutput@CompactionState@DBImpl@leveldb@@V?$allocator@UOutput@CompactionState@DBImpl@leveldb@@@std@@@std@@QAE@XZ 100148c0 f i leveldb:db_impl.obj
 0001:00013910       ??1?$vector@PADV?$allocator@PAD@std@@@std@@QAE@XZ 10014910 f i leveldb:arena.obj
 0001:00013910       ??1?$vector@PAVIterator@leveldb@@V?$allocator@PAVIterator@leveldb@@@std@@@std@@QAE@XZ 10014910 f i leveldb:db_impl.obj
 0001:00013910       ??1?$vector@IV?$allocator@I@std@@@std@@QAE@XZ 10014910 f i leveldb:table_builder.obj
 0001:00013910       ??1?$vector@PAUFileMetaData@leveldb@@V?$allocator@PAUFileMetaData@leveldb@@@std@@@std@@QAE@XZ 10014910 f i leveldb:version_set.obj
 0001:00013940       ?push_back@?$vector@IV?$allocator@I@std@@@std@@QAEX$$QAI@Z 10014940 f i leveldb:block_builder.obj
 0001:00013940       ?push_back@?$vector@PAVIterator@leveldb@@V?$allocator@PAVIterator@leveldb@@@std@@@std@@QAEX$$QAPAVIterator@leveldb@@@Z 10014940 f i leveldb:db_impl.obj
 0001:000139a0       ??1?$vector@U?$pair@HUFileMetaData@leveldb@@@std@@V?$allocator@U?$pair@HUFileMetaData@leveldb@@@std@@@2@@std@@QAE@XZ 100149a0 f i leveldb:db_impl.obj
 0001:000139b0       ?push_back@?$vector@U?$pair@HUFileMetaData@leveldb@@@std@@V?$allocator@U?$pair@HUFileMetaData@leveldb@@@std@@@2@@std@@QAEX$$QAU?$pair@HUFileMetaData@leveldb@@@2@@Z 100149b0 f i leveldb:db_impl.obj
 0001:00013a30       ??1?$vector@U?$pair@HVInternalKey@leveldb@@@std@@V?$allocator@U?$pair@HVInternalKey@leveldb@@@std@@@2@@std@@QAE@XZ 10014a30 f i leveldb:db_impl.obj
 0001:00013a90       ?find@?$_Tree@V?$_Tset_traits@_KU?$less@_K@std@@V?$allocator@_K@2@$0A@@std@@@std@@QAE?AV?$_Tree_const_iterator@V?$_Tree_val@U?$_Tree_simple_types@_K@std@@@std@@@2@AB_K@Z 10014a90 f i leveldb:db_impl.obj
 0001:00013b00       ??0?$set@_KU?$less@_K@std@@V?$allocator@_K@2@@std@@QAE@XZ 10014b00 f i leveldb:db_impl.obj
 0001:00013b80       ?end@?$deque@UBGItem@WinEnv@?A0xea59645f@leveldb@@V?$allocator@UBGItem@WinEnv@?A0xea59645f@leveldb@@@std@@@std@@QAE?AV?$_Deque_iterator@V?$_Deque_val@U?$_Deque_simple_types@UBGItem@WinEnv@?A0xea59645f@leveldb@@@std@@@std@@@2@XZ 10014b80 f i leveldb:env_win.obj
 0001:00013b80       ?end@?$deque@PAUWriter@DBImpl@leveldb@@V?$allocator@PAUWriter@DBImpl@leveldb@@@std@@@std@@QAE?AV?$_Deque_iterator@V?$_Deque_val@U?$_Deque_simple_types@PAUWriter@DBImpl@leveldb@@@std@@@std@@@2@XZ 10014b80 f i leveldb:db_impl.obj
 0001:00013ba0       ?begin@?$deque@PAUWriter@DBImpl@leveldb@@V?$allocator@PAUWriter@DBImpl@leveldb@@@std@@@std@@QAE?AV?$_Deque_iterator@V?$_Deque_val@U?$_Deque_simple_types@PAUWriter@DBImpl@leveldb@@@std@@@std@@@2@XZ 10014ba0 f i leveldb:db_impl.obj
 0001:00013ba0       ?begin@?$deque@UBGItem@WinEnv@?A0xea59645f@leveldb@@V?$allocator@UBGItem@WinEnv@?A0xea59645f@leveldb@@@std@@@std@@QAE?AV?$_Deque_iterator@V?$_Deque_val@U?$_Deque_simple_types@UBGItem@WinEnv@?A0xea59645f@leveldb@@@std@@@std@@@2@XZ 10014ba0 f i leveldb:env_win.obj
 0001:00013bc0       ??1?$deque@UBGItem@WinEnv@?A0xea59645f@leveldb@@V?$allocator@UBGItem@WinEnv@?A0xea59645f@leveldb@@@std@@@std@@QAE@XZ 10014bc0 f i leveldb:env_win.obj
 0001:00013bc0       ??1?$deque@PAUWriter@DBImpl@leveldb@@V?$allocator@PAUWriter@DBImpl@leveldb@@@std@@@std@@QAE@XZ 10014bc0 f i leveldb:db_impl.obj
 0001:00013c20       ?push_back@?$deque@PAUWriter@DBImpl@leveldb@@V?$allocator@PAUWriter@DBImpl@leveldb@@@std@@@std@@QAEX$$QAPAUWriter@DBImpl@leveldb@@@Z 10014c20 f i leveldb:db_impl.obj
 0001:00013cb0       ??1?$vector@V?$basic_string@DU?$char_traits@D@std@@V?$allocator@D@2@@std@@V?$allocator@V?$basic_string@DU?$char_traits@D@std@@V?$allocator@D@2@@std@@@2@@std@@QAE@XZ 10014cb0 f i leveldb:db_impl.obj
 0001:00013d00       ??4?$basic_string@DU?$char_traits@D@std@@V?$allocator@D@2@@std@@QAEAAV01@PBD@Z 10014d00 f i leveldb:db_impl.obj
 0001:00013d40       ??4?$basic_string@DU?$char_traits@D@std@@V?$allocator@D@2@@std@@QAEAAV01@$$QAV01@@Z 10014d40 f i leveldb:db_impl.obj
 0001:00013da0       ?_Reserve@?$vector@_KV?$allocator@_K@std@@@std@@IAEXI@Z 10014da0 f i leveldb:db_impl.obj
 0001:00013e00       ?_Reserve@?$vector@UOutput@CompactionState@DBImpl@leveldb@@V?$allocator@UOutput@CompactionState@DBImpl@leveldb@@@std@@@std@@IAEXI@Z 10014e00 f i leveldb:db_impl.obj
 0001:00013e60       ?_Reserve@?$vector@PADV?$allocator@PAD@std@@@std@@IAEXI@Z 10014e60 f i leveldb:arena.obj
 0001:00013e60       ?_Reserve@?$vector@PAVIterator@leveldb@@V?$allocator@PAVIterator@leveldb@@@std@@@std@@IAEXI@Z 10014e60 f i leveldb:db_impl.obj
 0001:00013e60       ?_Reserve@?$vector@IV?$allocator@I@std@@@std@@IAEXI@Z 10014e60 f i leveldb:block_builder.obj
 0001:00013ec0       ?_Tidy@?$vector@U?$pair@HUFileMetaData@leveldb@@@std@@V?$allocator@U?$pair@HUFileMetaData@leveldb@@@std@@@2@@std@@IAEXXZ 10014ec0 f i leveldb:db_impl.obj
 0001:00013f60       ?_Reserve@?$vector@U?$pair@HUFileMetaData@leveldb@@@std@@V?$allocator@U?$pair@HUFileMetaData@leveldb@@@std@@@2@@std@@IAEXI@Z 10014f60 f i leveldb:db_impl.obj
 0001:00013ff0       ??1?$_Deque_alloc@U?$_Deque_base_types@PAUWriter@DBImpl@leveldb@@V?$allocator@PAUWriter@DBImpl@leveldb@@@std@@@std@@@std@@QAE@XZ 10014ff0 f i leveldb:db_impl.obj
 0001:00013ff0       ??1?$_Deque_alloc@U?$_Deque_base_types@UBGItem@WinEnv@?A0xea59645f@leveldb@@V?$allocator@UBGItem@WinEnv@?A0xea59645f@leveldb@@@std@@@std@@@std@@QAE@XZ 10014ff0 f i leveldb:env_win.obj
 0001:00014010       ?_Tidy@?$deque@PAUWriter@DBImpl@leveldb@@V?$allocator@PAUWriter@DBImpl@leveldb@@@std@@@std@@IAEXXZ 10015010 f i leveldb:db_impl.obj
 0001:00014010       ?_Tidy@?$deque@UBGItem@WinEnv@?A0xea59645f@leveldb@@V?$allocator@UBGItem@WinEnv@?A0xea59645f@leveldb@@@std@@@std@@IAEXXZ 10015010 f i leveldb:env_win.obj
 0001:000140d0       ?_Growmap@?$deque@PAUWriter@DBImpl@leveldb@@V?$allocator@PAUWriter@DBImpl@leveldb@@@std@@@std@@IAEXI@Z 100150d0 f i leveldb:db_impl.obj
 0001:00014200       ?deallocate@?$_Wrap_alloc@V?$allocator@I@std@@@std@@QAEXPAII@Z 10015200 f i leveldb:table_builder.obj
 0001:00014200       ?deallocate@?$_Wrap_alloc@V?$allocator@PAUBGItem@WinEnv@?A0xea59645f@leveldb@@@std@@@std@@QAEXPAPAUBGItem@WinEnv@?A0xea59645f@leveldb@@I@Z 10015200 f i leveldb:env_win.obj
 0001:00014200       ?deallocate@?$_Wrap_alloc@V?$allocator@PAPAUWriter@DBImpl@leveldb@@@std@@@std@@QAEXPAPAPAUWriter@DBImpl@leveldb@@I@Z 10015200 f i leveldb:db_impl.obj
 0001:00014200       ?deallocate@?$_Wrap_alloc@V?$allocator@PAD@std@@@std@@QAEXPAPADI@Z 10015200 f i leveldb:arena.obj
 0001:00014200       ?deallocate@?$_Wrap_alloc@V?$allocator@PAUFileMetaData@leveldb@@@std@@@std@@QAEXPAPAUFileMetaData@leveldb@@I@Z 10015200 f i leveldb:version_set.obj
 0001:00014200       ?deallocate@?$_Wrap_alloc@V?$allocator@PAVIterator@leveldb@@@std@@@std@@QAEXPAPAVIterator@leveldb@@I@Z 10015200 f i leveldb:db_impl.obj
 0001:00014260       ?_Reallocate@?$vector@_KV?$allocator@_K@std@@@std@@IAEXI@Z 10015260 f i leveldb:db_impl.obj
 0001:00014300       ?deallocate@?$_Wrap_alloc@V?$allocator@V?$basic_string@DU?$char_traits@D@std@@V?$allocator@D@2@@std@@@std@@@std@@QAEXPAV?$basic_string@DU?$char_traits@D@std@@V?$allocator@D@2@@2@I@Z 10015300 f i leveldb:db_impl.obj
 0001:00014360       ?deallocate@?$_Wrap_alloc@V?$allocator@UOutput@CompactionState@DBImpl@leveldb@@@std@@@std@@QAEXPAUOutput@CompactionState@DBImpl@leveldb@@I@Z 10015360 f i leveldb:db_impl.obj
 0001:000143c0       ?_Reallocate@?$vector@UOutput@CompactionState@DBImpl@leveldb@@V?$allocator@UOutput@CompactionState@DBImpl@leveldb@@@std@@@std@@IAEXI@Z 100153c0 f i leveldb:db_impl.obj
 0001:000144a0       ?_Reallocate@?$vector@PAUFileMetaData@leveldb@@V?$allocator@PAUFileMetaData@leveldb@@@std@@@std@@IAEXI@Z 100154a0 f i leveldb:version_set.obj
 0001:000144a0       ?_Reallocate@?$vector@PAVIterator@leveldb@@V?$allocator@PAVIterator@leveldb@@@std@@@std@@IAEXI@Z 100154a0 f i leveldb:db_impl.obj
 0001:000144a0       ?_Reallocate@?$vector@PADV?$allocator@PAD@std@@@std@@IAEXI@Z 100154a0 f i leveldb:arena.obj
 0001:000144a0       ?_Reallocate@?$vector@IV?$allocator@I@std@@@std@@IAEXI@Z 100154a0 f i leveldb:block_builder.obj
 0001:00014540       ?deallocate@?$_Wrap_alloc@V?$allocator@U?$pair@HUFileMetaData@leveldb@@@std@@@std@@@std@@QAEXPAU?$pair@HUFileMetaData@leveldb@@@2@I@Z 10015540 f i leveldb:db_impl.obj
 0001:00014540       ?deallocate@?$_Wrap_alloc@V?$allocator@UTableInfo@Repairer@?A0xf1d2c879@leveldb@@@std@@@std@@QAEXPAUTableInfo@Repairer@?A0xf1d2c879@leveldb@@I@Z 10015540 f i leveldb:repair.obj
 0001:000145a0       ?_Reallocate@?$vector@U?$pair@HUFileMetaData@leveldb@@@std@@V?$allocator@U?$pair@HUFileMetaData@leveldb@@@std@@@2@@std@@IAEXI@Z 100155a0 f i leveldb:db_impl.obj
 0001:000146e0       ?deallocate@?$_Wrap_alloc@V?$allocator@VSlice@leveldb@@@std@@@std@@QAEXPAVSlice@leveldb@@I@Z 100156e0 f i leveldb:table_builder.obj
 0001:000146e0       ?deallocate@?$_Wrap_alloc@V?$allocator@_K@std@@@std@@QAEXPA_KI@Z 100156e0 f i leveldb:db_impl.obj
 0001:00014740       ?allocate@?$_Wrap_alloc@V?$allocator@PAPAUWriter@DBImpl@leveldb@@@std@@@std@@QAEPAPAPAUWriter@DBImpl@leveldb@@I@Z 10015740 f i leveldb:db_impl.obj
 0001:00014740       ?allocate@?$_Wrap_alloc@V?$allocator@PAUBGItem@WinEnv@?A0xea59645f@leveldb@@@std@@@std@@QAEPAPAUBGItem@WinEnv@?A0xea59645f@leveldb@@I@Z 10015740 f i leveldb:env_win.obj
 0001:00014740       ?allocate@?$_Wrap_alloc@V?$allocator@PAUFileMetaData@leveldb@@@std@@@std@@QAEPAPAUFileMetaData@leveldb@@I@Z 10015740 f i leveldb:version_set.obj
 0001:000147a0       ?deallocate@?$allocator@U?$pair@HVInternalKey@leveldb@@@std@@@std@@QAEXPAU?$pair@HVInternalKey@leveldb@@@2@I@Z 100157a0 f i leveldb:db_impl.obj
 0001:00014810       ??$make_pair@AAHAAUFileMetaData@leveldb@@@std@@YA?AU?$pair@HUFileMetaData@leveldb@@@0@AAHAAUFileMetaData@leveldb@@@Z 10015810 f i leveldb:db_impl.obj
 0001:00014880       ??$?HDU?$char_traits@D@std@@V?$allocator@D@1@@std@@YA?AV?$basic_string@DU?$char_traits@D@std@@V?$allocator@D@2@@0@ABV10@PBD@Z 10015880 f i leveldb:db_impl.obj
 0001:00014970       ??$?HDU?$char_traits@D@std@@V?$allocator@D@1@@std@@YA?AV?$basic_string@DU?$char_traits@D@std@@V?$allocator@D@2@@0@$$QAV10@ABV10@@Z 10015970 f i leveldb:db_impl.obj
 0001:000149e0       ??$_Eqrange@_K@?$_Tree@V?$_Tset_traits@_KU?$less@_K@std@@V?$allocator@_K@2@$0A@@std@@@std@@IBE?AU?$pair@V?$_Tree_const_iterator@V?$_Tree_val@U?$_Tree_simple_types@_K@std@@@std@@@std@@V12@@1@AB_K@Z 100159e0 f i leveldb:db_impl.obj
 0001:00014a80       ??$_Insert_nohint@U?$pair@H_K@std@@U_Nil@2@@?$_Tree@V?$_Tset_traits@U?$pair@H_K@std@@U?$less@U?$pair@H_K@std@@@2@V?$allocator@U?$pair@H_K@std@@@2@$0A@@std@@@std@@IAE?AU?$pair@V?$_Tree_const_iterator@V?$_Tree_val@U?$_Tree_simple_types@U?$pair@H_K@std@@@std@@@std@@@std@@_N@1@_N$$QAU?$pair@H_K@1@U_Nil@1@@Z 10015a80 f i leveldb:db_impl.obj
 0001:00014b70       ??$_Insert_nohint@AB_KU_Nil@std@@@?$_Tree@V?$_Tset_traits@_KU?$less@_K@std@@V?$allocator@_K@2@$0A@@std@@@std@@IAE?AU?$pair@V?$_Tree_const_iterator@V?$_Tree_val@U?$_Tree_simple_types@_K@std@@@std@@@std@@_N@1@_NAB_KU_Nil@1@@Z 10015b70 f i leveldb:db_impl.obj
 0001:00014c40       ??$_Distance1@V?$_Tree_const_iterator@V?$_Tree_val@U?$_Tree_simple_types@_K@std@@@std@@@std@@@std@@YAHV?$_Tree_const_iterator@V?$_Tree_val@U?$_Tree_simple_types@_K@std@@@std@@@0@0Uinput_iterator_tag@0@@Z 10015c40 f i leveldb:db_impl.obj
 0001:00014cb0       ??$_Copy@U_Copy_tag@?$_Tree@V?$_Tset_traits@_KU?$less@_K@std@@V?$allocator@_K@2@$0A@@std@@@std@@@?$_Tree@V?$_Tset_traits@_KU?$less@_K@std@@V?$allocator@_K@2@$0A@@std@@@std@@IAEXABV01@U_Copy_tag@01@@Z 10015cb0 f i leveldb:db_impl.obj
 0001:00014d30       ??$_Destroy_range1@V?$allocator@U?$pair@HVInternalKey@leveldb@@@std@@@std@@PAU?$pair@HVInternalKey@leveldb@@@2@@std@@YAXPAU?$pair@HVInternalKey@leveldb@@@0@0AAU?$_Wrap_alloc@V?$allocator@U?$pair@HVInternalKey@leveldb@@@std@@@std@@@0@U?$integral_constant@_N$0A@@0@@Z 10015d30 f i leveldb:db_impl.obj
 0001:00014df0       ??$_Destroy_range1@V?$allocator@V?$basic_string@DU?$char_traits@D@std@@V?$allocator@D@2@@std@@@std@@PAV?$basic_string@DU?$char_traits@D@std@@V?$allocator@D@2@@2@@std@@YAXPAV?$basic_string@DU?$char_traits@D@std@@V?$allocator@D@2@@0@0AAU?$_Wrap_alloc@V?$allocator@V?$basic_string@DU?$char_traits@D@std@@V?$allocator@D@2@@std@@@std@@@0@U?$integral_constant@_N$0A@@0@@Z 10015df0 f i leveldb:db_impl.obj
 0001:00014e70       ??0FileMetaData@leveldb@@QAE@ABU01@@Z 10015e70 f i leveldb:db_impl.obj
 0001:00014f30       ??$_Insert_at@U?$pair@H_K@std@@U_Nil@2@@?$_Tree@V?$_Tset_traits@U?$pair@H_K@std@@U?$less@U?$pair@H_K@std@@@2@V?$allocator@U?$pair@H_K@std@@@2@$0A@@std@@@std@@IAE?AV?$_Tree_const_iterator@V?$_Tree_val@U?$_Tree_simple_types@U?$pair@H_K@std@@@std@@@std@@@1@_NPAU?$_Tree_node@U?$pair@H_K@std@@PAX@1@$$QAU?$pair@H_K@1@U_Nil@1@@Z 10015f30 f i leveldb:db_impl.obj
 0001:00015140       ??$_Insert_at@AB_KU_Nil@std@@@?$_Tree@V?$_Tset_traits@_KU?$less@_K@std@@V?$allocator@_K@2@$0A@@std@@@std@@IAE?AV?$_Tree_const_iterator@V?$_Tree_val@U?$_Tree_simple_types@_K@std@@@std@@@1@_NPAU?$_Tree_node@_KPAX@1@AB_KU_Nil@1@@Z 10016140 f i leveldb:db_impl.obj
 0001:00015350       ??$_Copy_nodes@U_Copy_tag@?$_Tree@V?$_Tset_traits@_KU?$less@_K@std@@V?$allocator@_K@2@$0A@@std@@@std@@@?$_Tree@V?$_Tset_traits@_KU?$less@_K@std@@V?$allocator@_K@2@$0A@@std@@@std@@IAEPAU?$_Tree_node@_KPAX@1@PAU21@0U_Copy_tag@01@@Z 10016350 f i leveldb:db_impl.obj
 0001:00015400       ??0Output@CompactionState@DBImpl@leveldb@@QAE@ABU0123@@Z 10016400 f i leveldb:db_impl.obj
 0001:000154b0       ??0?$pair@HUFileMetaData@leveldb@@@std@@QAE@$$QAU01@@Z 100164b0 f i leveldb:db_impl.obj
 0001:00015550       ??$_Sort_unchecked1@PA_KHU?$less@X@std@@@std@@YAXPA_K0HAAU?$less@X@0@@Z 10016550 f i leveldb:db_impl.obj
 0001:00015640       ??$_Uninitialized_move_al_unchecked1@PAUOutput@CompactionState@DBImpl@leveldb@@PAU1234@V?$allocator@UOutput@CompactionState@DBImpl@leveldb@@@std@@@std@@YAPAUOutput@CompactionState@DBImpl@leveldb@@PAU1234@00AAU?$_Wrap_alloc@V?$allocator@UOutput@CompactionState@DBImpl@leveldb@@@std@@@0@U_General_ptr_iterator_tag@0@U_Any_tag@0@@Z 10016640 f i leveldb:db_impl.obj
 0001:00015710       ??$_Uninitialized_move_al_unchecked1@PAU?$pair@HUFileMetaData@leveldb@@@std@@PAU12@V?$allocator@U?$pair@HUFileMetaData@leveldb@@@std@@@2@@std@@YAPAU?$pair@HUFileMetaData@leveldb@@@0@PAU10@00AAU?$_Wrap_alloc@V?$allocator@U?$pair@HUFileMetaData@leveldb@@@std@@@std@@@0@U_General_ptr_iterator_tag@0@U_Any_tag@0@@Z 10016710 f i leveldb:db_impl.obj
 0001:000157f0       ??$_Partition_by_median_guess_unchecked@PA_KU?$less@X@std@@@std@@YA?AU?$pair@PA_KPA_K@0@PA_K0AAU?$less@X@0@@Z 100167f0 f i leveldb:db_impl.obj
 0001:00015a40       ??$_Make_heap_unchecked@PA_KU?$less@X@std@@@std@@YAXPA_K0AAU?$less@X@0@@Z 10016a40 f i leveldb:db_impl.obj
 0001:00015b50       ??$_Sort_heap_unchecked@PA_KU?$less@X@std@@@std@@YAXPA_K0AAU?$less@X@0@@Z 10016b50 f i leveldb:db_impl.obj
 0001:00015bb0       ??$_Insertion_sort_unchecked@PA_KU?$less@X@std@@@std@@YAXPA_K0AAU?$less@X@0@@Z 10016bb0 f i leveldb:db_impl.obj
 0001:00015c40       ??$_Guess_median_unchecked@PA_KU?$less@X@std@@@std@@YAXPA_K00AAU?$less@X@0@@Z 10016c40 f i leveldb:db_impl.obj
 0001:00015cd0       ??$_Pop_heap_hole_by_index@PA_KH_KU?$less@X@std@@@std@@YAXPA_KHH$$QA_KAAU?$less@X@0@@Z 10016cd0 f i leveldb:db_impl.obj
 0001:00015d60       ??$_Med3_unchecked@PA_KU?$less@X@std@@@std@@YAXPA_K00AAU?$less@X@0@@Z 10016d60 f i leveldb:db_impl.obj
 0001:00015dd0       ??$_Push_heap_by_index@PA_KH_KU?$less@X@std@@@std@@YAXPA_KHH$$QA_KAAU?$less@X@0@@Z 10016dd0 f i leveldb:db_impl.obj
 0001:00015e30       ??_GCache@leveldb@@UAEPAXI@Z 10016e30 f i leveldb:cache.obj
 0001:00015e30       ??_ECache@leveldb@@UAEPAXI@Z 10016e30 f i * CIL library *:* CIL module *
 0001:00015e60       ??1Cache@leveldb@@UAE@XZ   10016e60 f   leveldb:cache.obj
 0001:00016830       ??_EShardedLRUCache@?A0xb96669bd@leveldb@@UAEPAXI@Z 10017830 f i * CIL library *:* CIL module *
 0001:00016830       ??_GShardedLRUCache@?A0xb96669bd@leveldb@@UAEPAXI@Z 10017830 f i leveldb:cache.obj
 0001:000168d0       ??0Options@leveldb@@QAE@XZ 100178d0 f   leveldb:options.obj
 0001:000191b0       ??_ELogReporter@?1??ConvertLogToTable@Repairer@?A0xf1d2c879@leveldb@@AAE?AVStatus@4@_K@Z@UAEPAXI@Z 1001a1b0 f i * CIL library *:* CIL module *
 0001:000191b0       ??_GLogReporter@?1??ConvertLogToTable@Repairer@?A0xf1d2c879@leveldb@@AAE?AVStatus@4@_K@Z@UAEPAXI@Z 1001a1b0 f i leveldb:repair.obj
 0001:00019260       ?RepairDB@leveldb@@YA?AVStatus@1@ABV?$basic_string@DU?$char_traits@D@std@@V?$allocator@D@2@@std@@ABUOptions@1@@Z 1001a260 f   leveldb:repair.obj
 0001:00019300       ?push_back@?$vector@UTableInfo@Repairer@?A0xf1d2c879@leveldb@@V?$allocator@UTableInfo@Repairer@?A0xf1d2c879@leveldb@@@std@@@std@@QAEXABUTableInfo@Repairer@?A0xf1d2c879@leveldb@@@Z 1001a300 f i leveldb:repair.obj
 0001:000193f0       ??1?$vector@UTableInfo@Repairer@?A0xf1d2c879@leveldb@@V?$allocator@UTableInfo@Repairer@?A0xf1d2c879@leveldb@@@std@@@std@@QAE@XZ 1001a3f0 f i leveldb:repair.obj
 0001:00019400       ?push_back@?$vector@V?$basic_string@DU?$char_traits@D@std@@V?$allocator@D@2@@std@@V?$allocator@V?$basic_string@DU?$char_traits@D@std@@V?$allocator@D@2@@std@@@2@@std@@QAEXABV?$basic_string@DU?$char_traits@D@std@@V?$allocator@D@2@@2@@Z 1001a400 f i leveldb:repair.obj
 0001:000194e0       ?_Tidy@?$vector@UTableInfo@Repairer@?A0xf1d2c879@leveldb@@V?$allocator@UTableInfo@Repairer@?A0xf1d2c879@leveldb@@@std@@@std@@IAEXXZ 1001a4e0 f i leveldb:repair.obj
 0001:00019580       ?_Reserve@?$vector@UTableInfo@Repairer@?A0xf1d2c879@leveldb@@V?$allocator@UTableInfo@Repairer@?A0xf1d2c879@leveldb@@@std@@@std@@IAEXI@Z 1001a580 f i leveldb:repair.obj
 0001:00019610       ?_Reserve@?$vector@V?$basic_string@DU?$char_traits@D@std@@V?$allocator@D@2@@std@@V?$allocator@V?$basic_string@DU?$char_traits@D@std@@V?$allocator@D@2@@std@@@2@@std@@IAEXI@Z 1001a610 f i leveldb:repair.obj
 0001:000196a0       ?_Reallocate@?$vector@UTableInfo@Repairer@?A0xf1d2c879@leveldb@@V?$allocator@UTableInfo@Repairer@?A0xf1d2c879@leveldb@@@std@@@std@@IAEXI@Z 1001a6a0 f i leveldb:repair.obj
 0001:000197f0       ?_Reallocate@?$vector@V?$basic_string@DU?$char_traits@D@std@@V?$allocator@D@2@@std@@V?$allocator@V?$basic_string@DU?$char_traits@D@std@@V?$allocator@D@2@@std@@@2@@std@@IAEXI@Z 1001a7f0 f i leveldb:repair.obj
 0001:000199b0       ?PutFixed64@leveldb@@YAXPAV?$basic_string@DU?$char_traits@D@std@@V?$allocator@D@2@@std@@_K@Z 1001a9b0 f   leveldb:coding.obj
 0001:000199f0       ?EncodeVarint32@leveldb@@YAPADPADI@Z 1001a9f0 f   leveldb:coding.obj
 0001:000199f0       ?Encode32@Varint@snappy@@SAPADPADI@Z 1001a9f0 f   snappy:snappy.obj
 0001:00019a80       ?PutVarint64@leveldb@@YAXPAV?$basic_string@DU?$char_traits@D@std@@V?$allocator@D@2@@std@@_K@Z 1001aa80 f   leveldb:coding.obj
 0001:00019af0       ?GetVarint64Ptr@leveldb@@YAPBDPBD0PA_K@Z 1001aaf0 f   leveldb:coding.obj
 0001:00019b90       ?GetVarint64@leveldb@@YA_NPAVSlice@1@PA_K@Z 1001ab90 f   leveldb:coding.obj
 0001:00019bd0       ?GetLengthPrefixedSlice@leveldb@@YA_NPAVSlice@1@0@Z 1001abd0 f   leveldb:coding.obj
 0001:00019c40       ?NotFound@Status@leveldb@@SA?AV12@ABVSlice@2@0@Z 1001ac40 f i leveldb:memtable.obj
 0001:00019d00       ?Allocate@Arena@leveldb@@QAEPADI@Z 1001ad00 f i leveldb:memtable.obj
 0001:00019d80       ??0MemTable@leveldb@@QAE@ABVInternalKeyComparator@1@@Z 1001ad80 f   leveldb:memtable.obj
 0001:00019e70       ??1KeyComparator@MemTable@leveldb@@QAE@XZ 1001ae70 f i leveldb:memtable.obj
 0001:00019ec0       ??1?$SkipList@PBDUKeyComparator@MemTable@leveldb@@@leveldb@@QAE@XZ 1001aec0 f i leveldb:memtable.obj
 0001:00019f20       ??1MemTable@leveldb@@AAE@XZ 1001af20 f   leveldb:memtable.obj
 0001:0001a070       ?Valid@MemTableIterator@leveldb@@UBE_NXZ 1001b070 f i leveldb:memtable.obj
 0001:0001a080       ?Seek@MemTableIterator@leveldb@@UAEXABVSlice@2@@Z 1001b080 f i leveldb:memtable.obj
 0001:0001a0b0       ?SeekToFirst@MemTableIterator@leveldb@@UAEXXZ 1001b0b0 f i leveldb:memtable.obj
 0001:0001a0d0       ?SeekToLast@MemTableIterator@leveldb@@UAEXXZ 1001b0d0 f i leveldb:memtable.obj
 0001:0001a0f0       ?Next@MemTableIterator@leveldb@@UAEXXZ 1001b0f0 f i leveldb:memtable.obj
 0001:0001a130       ?Prev@MemTableIterator@leveldb@@UAEXXZ 1001b130 f i leveldb:memtable.obj
 0001:0001a170       ?key@MemTableIterator@leveldb@@UBE?AVSlice@2@XZ 1001b170 f i leveldb:memtable.obj
 0001:0001a1c0       ?value@MemTableIterator@leveldb@@UBE?AVSlice@2@XZ 1001b1c0 f i leveldb:memtable.obj
 0001:0001a220       ?status@LevelFileNumIterator@Version@leveldb@@UBE?AVStatus@3@XZ 1001b220 f i leveldb:version_set.obj
 0001:0001a220       ?Flush@WinWritableFile@leveldb@@UAE?AVStatus@2@XZ 1001b220 f i leveldb:env_win.obj
 0001:0001a220       ?status@MemTableIterator@leveldb@@UBE?AVStatus@2@XZ 1001b220 f i leveldb:memtable.obj
 0001:0001a280       ??_EMemTableIterator@leveldb@@UAEPAXI@Z 1001b280 f i * CIL library *:* CIL module *
 0001:0001a280       ??_GMemTableIterator@leveldb@@UAEPAXI@Z 1001b280 f i leveldb:memtable.obj
 0001:0001a320       ?NewIterator@MemTable@leveldb@@QAEPAVIterator@2@XZ 1001b320 f   leveldb:memtable.obj
 0001:0001a3c0       ?Add@MemTable@leveldb@@QAEX_KW4ValueType@2@ABVSlice@2@2@Z 1001b3c0 f   leveldb:memtable.obj
 0001:0001a510       ?Get@MemTable@leveldb@@QAE_NABVLookupKey@2@PAV?$basic_string@DU?$char_traits@D@std@@V?$allocator@D@2@@std@@PAVStatus@2@@Z 1001b510 f   leveldb:memtable.obj
 0001:0001a670       ??0?$SkipList@PBDUKeyComparator@MemTable@leveldb@@@leveldb@@QAE@UKeyComparator@MemTable@1@PAVArena@1@@Z 1001b670 f i leveldb:memtable.obj
 0001:0001a760       ?Insert@?$SkipList@PBDUKeyComparator@MemTable@leveldb@@@leveldb@@QAEXABQBD@Z 1001b760 f i leveldb:memtable.obj
 0001:0001a8c0       ?Equal@?$SkipList@PBDUKeyComparator@MemTable@leveldb@@@leveldb@@ABE_NABQBD0@Z 1001b8c0 f i leveldb:memtable.obj
 0001:0001a930       ?RandomHeight@?$SkipList@PBDUKeyComparator@MemTable@leveldb@@@leveldb@@AAEHXZ 1001b930 f i leveldb:memtable.obj
 0001:0001a9c0       ?FindGreaterOrEqual@?$SkipList@PBDUKeyComparator@MemTable@leveldb@@@leveldb@@ABEPAUNode@12@ABQBDPAPAU312@@Z 1001b9c0 f i leveldb:memtable.obj
 0001:0001ab00       ?FindLessThan@?$SkipList@PBDUKeyComparator@MemTable@leveldb@@@leveldb@@ABEPAUNode@12@ABQBD@Z 1001bb00 f i leveldb:memtable.obj
 0001:0001ad30       ?FindLast@?$SkipList@PBDUKeyComparator@MemTable@leveldb@@@leveldb@@ABEPAUNode@12@XZ 1001bd30 f i leveldb:memtable.obj
 0001:0001ad80       ?Hash@leveldb@@YAIPBDII@Z  1001bd80 f   leveldb:hash.obj
 0001:0001ae00       ??1FilterPolicy@leveldb@@UAE@XZ 1001be00 f   leveldb:filter_policy.obj
 0001:0001ae00       ??1Source@snappy@@UAE@XZ   1001be00 f   snappy:snappy-sinksource.obj
 0001:0001ae10       ?AppendInternalKey@leveldb@@YAXPAV?$basic_string@DU?$char_traits@D@std@@V?$allocator@D@2@@std@@ABUParsedInternalKey@1@@Z 1001be10 f   leveldb:dbformat.obj
 0001:0001aec0       ?DebugString@ParsedInternalKey@leveldb@@QBE?AV?$basic_string@DU?$char_traits@D@std@@V?$allocator@D@2@@std@@XZ 1001bec0 f   leveldb:dbformat.obj
 0001:0001b030       ?DebugString@InternalKey@leveldb@@QBE?AV?$basic_string@DU?$char_traits@D@std@@V?$allocator@D@2@@std@@XZ 1001c030 f   leveldb:dbformat.obj
 0001:0001b1a0       ?Name@InternalKeyComparator@leveldb@@UBEPBDXZ 1001c1a0 f   leveldb:dbformat.obj
 0001:0001b1b0       ?Compare@InternalKeyComparator@leveldb@@UBEHABVSlice@2@0@Z 1001c1b0 f   leveldb:dbformat.obj
 0001:0001b290       ?FindShortestSeparator@InternalKeyComparator@leveldb@@UBEXPAV?$basic_string@DU?$char_traits@D@std@@V?$allocator@D@2@@std@@ABVSlice@2@@Z 1001c290 f   leveldb:dbformat.obj
 0001:0001b4c0       ?FindShortSuccessor@InternalKeyComparator@leveldb@@UBEXPAV?$basic_string@DU?$char_traits@D@std@@V?$allocator@D@2@@std@@@Z 1001c4c0 f   leveldb:dbformat.obj
 0001:0001b670       ?Name@InternalFilterPolicy@leveldb@@UBEPBDXZ 1001c670 f   leveldb:dbformat.obj
 0001:0001b680       ?CreateFilter@InternalFilterPolicy@leveldb@@UBEXPBVSlice@2@HPAV?$basic_string@DU?$char_traits@D@std@@V?$allocator@D@2@@std@@@Z 1001c680 f   leveldb:dbformat.obj
 0001:0001b6e0       ?KeyMayMatch@InternalFilterPolicy@leveldb@@UBE_NABVSlice@2@0@Z 1001c6e0 f   leveldb:dbformat.obj
 0001:0001b730       ??0LookupKey@leveldb@@QAE@ABVSlice@1@_K@Z 1001c730 f   leveldb:dbformat.obj
 0001:0001b7d0       ?_Swap_bx@?$basic_string@DU?$char_traits@D@std@@V?$allocator@D@2@@std@@QAEXAAV12@@Z 1001c7d0 f i leveldb:dbformat.obj
 0001:0001b850       ??$swap@D$0BA@X@std@@YAXAAY0BA@D0@Z 1001c850 f i leveldb:dbformat.obj
 0001:0001b890       ?BuildTable@leveldb@@YA?AVStatus@1@ABV?$basic_string@DU?$char_traits@D@std@@V?$allocator@D@2@@std@@PAVEnv@1@ABUOptions@1@PAVTableCache@1@PAVIterator@1@PAUFileMetaData@1@@Z 1001c890 f   leveldb:builder.obj
 0001:0001bf10       ??1Mutex@port@leveldb@@QAE@XZ 1001cf10 f   leveldb:port_uv.obj
 0001:0001bf50       ??1CondVar@port@leveldb@@QAE@XZ 1001cf50 f   leveldb:port_uv.obj
 0001:0001c030       ?LogFileName@leveldb@@YA?AV?$basic_string@DU?$char_traits@D@std@@V?$allocator@D@2@@std@@ABV23@_K@Z 1001d030 f   leveldb:filename.obj
 0001:0001c0d0       ?TableFileName@leveldb@@YA?AV?$basic_string@DU?$char_traits@D@std@@V?$allocator@D@2@@std@@ABV23@_K@Z 1001d0d0 f   leveldb:filename.obj
 0001:0001c170       ?SSTTableFileName@leveldb@@YA?AV?$basic_string@DU?$char_traits@D@std@@V?$allocator@D@2@@std@@ABV23@_K@Z 1001d170 f   leveldb:filename.obj
 0001:0001c210       ?DescriptorFileName@leveldb@@YA?AV?$basic_string@DU?$char_traits@D@std@@V?$allocator@D@2@@std@@ABV23@_K@Z 1001d210 f   leveldb:filename.obj
 0001:0001c2d0       ?CurrentFileName@leveldb@@YA?AV?$basic_string@DU?$char_traits@D@std@@V?$allocator@D@2@@std@@ABV23@@Z 1001d2d0 f   leveldb:filename.obj
 0001:0001c330       ?LockFileName@leveldb@@YA?AV?$basic_string@DU?$char_traits@D@std@@V?$allocator@D@2@@std@@ABV23@@Z 1001d330 f   leveldb:filename.obj
 0001:0001c390       ?TempFileName@leveldb@@YA?AV?$basic_string@DU?$char_traits@D@std@@V?$allocator@D@2@@std@@ABV23@_K@Z 1001d390 f   leveldb:filename.obj
 0001:0001c430       ?InfoLogFileName@leveldb@@YA?AV?$basic_string@DU?$char_traits@D@std@@V?$allocator@D@2@@std@@ABV23@@Z 1001d430 f   leveldb:filename.obj
 0001:0001c490       ?OldInfoLogFileName@leveldb@@YA?AV?$basic_string@DU?$char_traits@D@std@@V?$allocator@D@2@@std@@ABV23@@Z 1001d490 f   leveldb:filename.obj
 0001:0001c4f0       ?ParseFileName@leveldb@@YA_NABV?$basic_string@DU?$char_traits@D@std@@V?$allocator@D@2@@std@@PA_KPAW4FileType@1@@Z 1001d4f0 f   leveldb:filename.obj
 0001:0001c760       ?SetCurrentFile@leveldb@@YA?AVStatus@1@PAVEnv@1@ABV?$basic_string@DU?$char_traits@D@std@@V?$allocator@D@2@@std@@_K@Z 1001d760 f   leveldb:filename.obj
 0001:0001caf0       ??$?HDU?$char_traits@D@std@@V?$allocator@D@1@@std@@YA?AV?$basic_string@DU?$char_traits@D@std@@V?$allocator@D@2@@0@$$QAV10@PBD@Z 1001daf0 f i leveldb:filename.obj
 0001:0001cb80       ??_GEnv@leveldb@@UAEPAXI@Z 1001db80 f i leveldb:env.obj
 0001:0001cb80       ??_EEnv@leveldb@@UAEPAXI@Z 1001db80 f i * CIL library *:* CIL module *
 0001:0001cbb0       ??1Env@leveldb@@UAE@XZ     1001dbb0 f   leveldb:env.obj
 0001:0001cbc0       ??1Logger@leveldb@@UAE@XZ  1001dbc0 f   leveldb:env.obj
 0001:0001cbc0       ??1RandomAccessFile@leveldb@@UAE@XZ 1001dbc0 f   leveldb:env.obj
 0001:0001cbc0       ??1Reporter@Reader@log@leveldb@@UAE@XZ 1001dbc0 f   leveldb:log_reader.obj
 0001:0001cbd0       ??1WritableFile@leveldb@@UAE@XZ 1001dbd0 f   leveldb:env.obj
 0001:0001cbd0       ??1Comparator@leveldb@@UAE@XZ 1001dbd0 f   leveldb:comparator.obj
 0001:0001cbe0       ?Log@leveldb@@YAXPAVLogger@1@PBDZZ 1001dbe0 f   leveldb:env.obj
 0001:0001ce10       ?WriteStringToFileSync@leveldb@@YA?AVStatus@1@PAVEnv@1@ABVSlice@1@ABV?$basic_string@DU?$char_traits@D@std@@V?$allocator@D@2@@std@@@Z 1001de10 f   leveldb:env.obj
 0001:0001ce80       ?ReadFileToString@leveldb@@YA?AVStatus@1@PAVEnv@1@ABV?$basic_string@DU?$char_traits@D@std@@V?$allocator@D@2@@std@@PAV45@@Z 1001de80 f   leveldb:env.obj
 0001:0001d040       ??0IteratorWrapper@leveldb@@QAE@XZ 1001e040 f i leveldb:merger.obj
 0001:0001d060       ??1IteratorWrapper@leveldb@@QAE@XZ 1001e060 f i leveldb:merger.obj
 0001:0001d070       ?status@IteratorWrapper@leveldb@@QBE?AVStatus@2@XZ 1001e070 f i leveldb:merger.obj
 0001:0001d0f0       ?Next@IteratorWrapper@leveldb@@QAEXXZ 1001e0f0 f i leveldb:merger.obj
 0001:0001d920       ??_GMergingIterator@?A0x8740a436@leveldb@@UAEPAXI@Z 1001e920 f i leveldb:merger.obj
 0001:0001d920       ??_EMergingIterator@?A0x8740a436@leveldb@@UAEPAXI@Z 1001e920 f i * CIL library *:* CIL module *
 0001:0001db40       ?NewMergingIterator@leveldb@@YAPAVIterator@1@PBVComparator@1@PAPAV21@H@Z 1001eb40 f   leveldb:merger.obj
 0001:0001dc00       _fprintf                   1001ec00 f i leveldb:version_set.obj
 0001:0001dc30       ?Compare@InternalKeyComparator@leveldb@@QBEHABVInternalKey@2@0@Z 1001ec30 f i leveldb:version_set.obj
 0001:0001dcc0       ??0Version@leveldb@@AAE@PAVVersionSet@1@@Z 1001ecc0 f i leveldb:version_set.obj
 0001:0001de20       ??1Version@leveldb@@AAE@XZ 1001ee20 f   leveldb:version_set.obj
 0001:0001df20       ?FindFile@leveldb@@YAHABVInternalKeyComparator@1@ABV?$vector@PAUFileMetaData@leveldb@@V?$allocator@PAUFileMetaData@leveldb@@@std@@@std@@ABVSlice@1@@Z 1001ef20 f   leveldb:version_set.obj
 0001:0001e040       ?SomeFileOverlapsRange@leveldb@@YA_NABVInternalKeyComparator@1@_NABV?$vector@PAUFileMetaData@leveldb@@V?$allocator@PAUFileMetaData@leveldb@@@std@@@std@@PBVSlice@1@3@Z 1001f040 f   leveldb:version_set.obj
 0001:0001e260       ?Valid@LevelFileNumIterator@Version@leveldb@@UBE_NXZ 1001f260 f i leveldb:version_set.obj
 0001:0001e280       ?Seek@LevelFileNumIterator@Version@leveldb@@UAEXABVSlice@3@@Z 1001f280 f i leveldb:version_set.obj
 0001:0001e2a0       ?SeekToFirst@LevelFileNumIterator@Version@leveldb@@UAEXXZ 1001f2a0 f i leveldb:version_set.obj
 0001:0001e2b0       ?SeekToLast@LevelFileNumIterator@Version@leveldb@@UAEXXZ 1001f2b0 f i leveldb:version_set.obj
 0001:0001e2d0       ?Next@LevelFileNumIterator@Version@leveldb@@UAEXXZ 1001f2d0 f i leveldb:version_set.obj
 0001:0001e300       ?Prev@LevelFileNumIterator@Version@leveldb@@UAEXXZ 1001f300 f i leveldb:version_set.obj
 0001:0001e350       ?key@LevelFileNumIterator@Version@leveldb@@UBE?AVSlice@3@XZ 1001f350 f i leveldb:version_set.obj
 0001:0001e3d0       ?value@LevelFileNumIterator@Version@leveldb@@UBE?AVSlice@3@XZ 1001f3d0 f i leveldb:version_set.obj
 0001:0001e440       ??_ELevelFileNumIterator@Version@leveldb@@UAEPAXI@Z 1001f440 f i * CIL library *:* CIL module *
 0001:0001e440       ??_GLevelFileNumIterator@Version@leveldb@@UAEPAXI@Z 1001f440 f i leveldb:version_set.obj
 0001:0001e580       ?NewConcatenatingIterator@Version@leveldb@@ABEPAVIterator@2@ABUReadOptions@2@H@Z 1001f580 f   leveldb:version_set.obj
 0001:0001e660       ?AddIterators@Version@leveldb@@QAEXABUReadOptions@2@PAV?$vector@PAVIterator@leveldb@@V?$allocator@PAVIterator@leveldb@@@std@@@std@@@Z 1001f660 f   leveldb:version_set.obj
 0001:0001e9c0       ?ForEachOverlapping@Version@leveldb@@AAEXVSlice@2@0PAXP6A_N1HPAUFileMetaData@2@@Z@Z 1001f9c0 f   leveldb:version_set.obj
 0001:0001ed40       ?Get@Version@leveldb@@QAE?AVStatus@2@ABUReadOptions@2@ABVLookupKey@2@PAV?$basic_string@DU?$char_traits@D@std@@V?$allocator@D@2@@std@@PAUGetStats@12@@Z 1001fd40 f   leveldb:version_set.obj
 0001:0001f420       ?Unref@Version@leveldb@@QAEXXZ 10020420 f   leveldb:version_set.obj
 0001:0001f480       ?PickLevelForMemTableOutput@Version@leveldb@@QAEHABVSlice@2@0@Z 10020480 f   leveldb:version_set.obj
 0001:0001f680       ?GetOverlappingInputs@Version@leveldb@@QAEXHPBVInternalKey@2@0PAV?$vector@PAUFileMetaData@leveldb@@V?$allocator@PAUFileMetaData@leveldb@@@std@@@std@@@Z 10020680 f   leveldb:version_set.obj
 0001:0001f940       ?DebugString@Version@leveldb@@QBE?AV?$basic_string@DU?$char_traits@D@std@@V?$allocator@D@2@@std@@XZ 10020940 f   leveldb:version_set.obj
 0001:0001fce0       ??RBySmallestKey@Builder@VersionSet@leveldb@@QBE_NPAUFileMetaData@3@0@Z 10020ce0 f i leveldb:version_set.obj
 0001:0001fd30       ??0Builder@VersionSet@leveldb@@QAE@PAV12@PAVVersion@2@@Z 10020d30 f i leveldb:version_set.obj
 0001:0001fe20       ??1Builder@VersionSet@leveldb@@QAE@XZ 10020e20 f i leveldb:version_set.obj
 0001:00020180       ?Apply@Builder@VersionSet@leveldb@@QAEXPAVVersionEdit@3@@Z 10021180 f i leveldb:version_set.obj
 0001:000205a0       ?SaveTo@Builder@VersionSet@leveldb@@QAEXPAVVersion@3@@Z 100215a0 f i leveldb:version_set.obj
 0001:00020f80       ??0LevelState@Builder@VersionSet@leveldb@@QAE@XZ 10021f80 f i leveldb:version_set.obj
 0001:00021000       ??1LevelState@Builder@VersionSet@leveldb@@QAE@XZ 10022000 f i leveldb:version_set.obj
 0001:00021070       ??0VersionSet@leveldb@@QAE@ABV?$basic_string@DU?$char_traits@D@std@@V?$allocator@D@2@@std@@PBUOptions@1@PAVTableCache@1@PBVInternalKeyComparator@1@@Z 10022070 f   leveldb:version_set.obj
 0001:00021260       ??1VersionSet@leveldb@@QAE@XZ 10022260 f   leveldb:version_set.obj
 0001:000213c0       ?AppendVersion@VersionSet@leveldb@@AAEXPAVVersion@2@@Z 100223c0 f   leveldb:version_set.obj
 0001:00021440       ?LogAndApply@VersionSet@leveldb@@QAE?AVStatus@2@PAVVersionEdit@2@PAVMutex@port@2@@Z 10022440 f   leveldb:version_set.obj
 0001:00021b30       ?Recover@VersionSet@leveldb@@QAE?AVStatus@2@XZ 10022b30 f   leveldb:version_set.obj
 0001:000223c0       ??_GLogReporter@?1??Recover@VersionSet@leveldb@@QAE?AVStatus@3@XZ@UAEPAXI@Z 100233c0 f i leveldb:version_set.obj
 0001:000223c0       ??_ELogReporter@?1??Recover@VersionSet@leveldb@@QAE?AVStatus@3@XZ@UAEPAXI@Z 100233c0 f i * CIL library *:* CIL module *
 0001:00022420       ?MarkFileNumberUsed@VersionSet@leveldb@@QAEX_K@Z 10023420 f   leveldb:version_set.obj
 0001:00022450       ?Finalize@VersionSet@leveldb@@AAEXPAVVersion@2@@Z 10023450 f   leveldb:version_set.obj
 0001:00022590       ?WriteSnapshot@VersionSet@leveldb@@AAE?AVStatus@2@PAVWriter@log@2@@Z 10023590 f   leveldb:version_set.obj
 0001:00022920       ?NumLevelFiles@VersionSet@leveldb@@QBEHH@Z 10023920 f   leveldb:version_set.obj
 0001:00022980       ?LevelSummary@VersionSet@leveldb@@QBEPBDPAULevelSummaryStorage@12@@Z 10023980 f   leveldb:version_set.obj
 0001:000229f0       ?ApproximateOffsetOf@VersionSet@leveldb@@QAE_KPAVVersion@2@ABVInternalKey@2@@Z 100239f0 f   leveldb:version_set.obj
 0001:00022c80       ?AddLiveFiles@VersionSet@leveldb@@QAEXPAV?$set@_KU?$less@_K@std@@V?$allocator@_K@2@@std@@@Z 10023c80 f   leveldb:version_set.obj
 0001:00022d10       ?GetRange@VersionSet@leveldb@@AAEXABV?$vector@PAUFileMetaData@leveldb@@V?$allocator@PAUFileMetaData@leveldb@@@std@@@std@@PAVInternalKey@2@1@Z 10023d10 f   leveldb:version_set.obj
 0001:00022e40       ?GetRange2@VersionSet@leveldb@@AAEXABV?$vector@PAUFileMetaData@leveldb@@V?$allocator@PAUFileMetaData@leveldb@@@std@@@std@@0PAVInternalKey@2@1@Z 10023e40 f   leveldb:version_set.obj
 0001:00022ef0       ?MakeInputIterator@VersionSet@leveldb@@QAEPAVIterator@2@PAVCompaction@2@@Z 10023ef0 f   leveldb:version_set.obj
 0001:00023140       ?PickCompaction@VersionSet@leveldb@@QAEPAVCompaction@2@XZ 10024140 f   leveldb:version_set.obj
 0001:00023580       ?SetupOtherInputs@VersionSet@leveldb@@AAEXPAVCompaction@2@@Z 10024580 f   leveldb:version_set.obj
 0001:00023b10       ?CompactRange@VersionSet@leveldb@@QAEPAVCompaction@2@HPBVInternalKey@2@0@Z 10024b10 f   leveldb:version_set.obj
 0001:00023cf0       ??0Compaction@leveldb@@AAE@H@Z 10024cf0 f   leveldb:version_set.obj
 0001:00023e10       ??1Compaction@leveldb@@QAE@XZ 10024e10 f   leveldb:version_set.obj
 0001:00023ec0       ?IsTrivialMove@Compaction@leveldb@@QBE_NXZ 10024ec0 f   leveldb:version_set.obj
 0001:00023f00       ?AddInputDeletions@Compaction@leveldb@@QAEXPAVVersionEdit@2@@Z 10024f00 f   leveldb:version_set.obj
 0001:00023f90       ?IsBaseLevelForKey@Compaction@leveldb@@QAE_NABVSlice@2@@Z 10024f90 f   leveldb:version_set.obj
 0001:000240e0       ?ShouldStopBefore@Compaction@leveldb@@QAE_NABVSlice@2@@Z 100250e0 f   leveldb:version_set.obj
 0001:00024200       ??1?$_Tree@V?$_Tset_traits@PAUFileMetaData@leveldb@@UBySmallestKey@Builder@VersionSet@2@V?$allocator@PAUFileMetaData@leveldb@@@std@@$0A@@std@@@std@@QAE@XZ 10025200 f i leveldb:version_set.obj
 0001:00024270       ?push_back@?$vector@PAUFileMetaData@leveldb@@V?$allocator@PAUFileMetaData@leveldb@@@std@@@std@@QAEXABQAUFileMetaData@leveldb@@@Z 10025270 f i leveldb:version_set.obj
 0001:000242e0       ??4?$vector@PAUFileMetaData@leveldb@@V?$allocator@PAUFileMetaData@leveldb@@@std@@@std@@QAEAAV01@ABV01@@Z 100252e0 f i leveldb:version_set.obj
 0001:000243d0       ??0?$vector@PAUFileMetaData@leveldb@@V?$allocator@PAUFileMetaData@leveldb@@@std@@@std@@QAE@ABV01@@Z 100253d0 f i leveldb:version_set.obj
 0001:00024460       ??0?$vector@PAUFileMetaData@leveldb@@V?$allocator@PAUFileMetaData@leveldb@@@std@@@std@@QAE@XZ 10025460 f i leveldb:version_set.obj
 0001:00024480       ?push_back@?$vector@U?$pair@HVInternalKey@leveldb@@@std@@V?$allocator@U?$pair@HVInternalKey@leveldb@@@std@@@2@@std@@QAEX$$QAU?$pair@HVInternalKey@leveldb@@@2@@Z 10025480 f i leveldb:version_set.obj
 0001:00024550       ??1?$_Tree_comp_alloc@V?$_Tset_traits@PAUFileMetaData@leveldb@@UBySmallestKey@Builder@VersionSet@2@V?$allocator@PAUFileMetaData@leveldb@@@std@@$0A@@std@@@std@@QAE@XZ 10025550 f i leveldb:version_set.obj
 0001:00024560       ?_Reserve@?$vector@PAUFileMetaData@leveldb@@V?$allocator@PAUFileMetaData@leveldb@@@std@@@std@@IAEXI@Z 10025560 f i leveldb:version_set.obj
 0001:000245c0       ?_Buy@?$vector@PAUFileMetaData@leveldb@@V?$allocator@PAUFileMetaData@leveldb@@@std@@@std@@IAE_NI@Z 100255c0 f i leveldb:version_set.obj
 0001:00024620       ?_Reserve@?$vector@U?$pair@HVInternalKey@leveldb@@@std@@V?$allocator@U?$pair@HVInternalKey@leveldb@@@std@@@2@@std@@IAEXI@Z 10025620 f i leveldb:version_set.obj
 0001:000246c0       ?erase@?$_Tree@V?$_Tset_traits@PAUFileMetaData@leveldb@@UBySmallestKey@Builder@VersionSet@2@V?$allocator@PAUFileMetaData@leveldb@@@std@@$0A@@std@@@std@@QAE?AV?$_Tree_const_iterator@V?$_Tree_val@U?$_Tree_simple_types@PAUFileMetaData@leveldb@@@std@@@std@@@2@V32@0@Z 100256c0 f i leveldb:version_set.obj
 0001:00024770       ?_Reallocate@?$vector@U?$pair@HVInternalKey@leveldb@@@std@@V?$allocator@U?$pair@HVInternalKey@leveldb@@@std@@@2@@std@@IAEXI@Z 10025770 f i leveldb:version_set.obj
 0001:00024820       ?clear@?$_Tree@V?$_Tset_traits@PAUFileMetaData@leveldb@@UBySmallestKey@Builder@VersionSet@2@V?$allocator@PAUFileMetaData@leveldb@@@std@@$0A@@std@@@std@@QAEXXZ 10025820 f i leveldb:version_set.obj
 0001:00024870       ?erase@?$_Tree@V?$_Tset_traits@PAUFileMetaData@leveldb@@UBySmallestKey@Builder@VersionSet@2@V?$allocator@PAUFileMetaData@leveldb@@@std@@$0A@@std@@@std@@QAE?AV?$_Tree_const_iterator@V?$_Tree_val@U?$_Tree_simple_types@PAUFileMetaData@leveldb@@@std@@@std@@@2@V32@@Z 10025870 f i leveldb:version_set.obj
 0001:00024af0       ?_Rrotate@?$_Tree@V?$_Tset_traits@PAUFileMetaData@leveldb@@UBySmallestKey@Builder@VersionSet@2@V?$allocator@PAUFileMetaData@leveldb@@@std@@$0A@@std@@@std@@IAEXPAU?$_Tree_node@PAUFileMetaData@leveldb@@PAX@2@@Z 10025af0 f i leveldb:version_set.obj
 0001:00024b50       ?_Lrotate@?$_Tree@V?$_Tset_traits@PAUFileMetaData@leveldb@@UBySmallestKey@Builder@VersionSet@2@V?$allocator@PAUFileMetaData@leveldb@@@std@@$0A@@std@@@std@@IAEXPAU?$_Tree_node@PAUFileMetaData@leveldb@@PAX@2@@Z 10025b50 f i leveldb:version_set.obj
 0001:00024ba0       ?allocate@?$allocator@U?$pair@HVInternalKey@leveldb@@@std@@@std@@QAEPAU?$pair@HVInternalKey@leveldb@@@2@I@Z 10025ba0 f i leveldb:version_set.obj
 0001:00024c00       ??$make_pair@AAHABVInternalKey@leveldb@@@std@@YA?AU?$pair@HVInternalKey@leveldb@@@0@AAHABVInternalKey@leveldb@@@Z 10025c00 f i leveldb:version_set.obj
 0001:00024c00       ??$make_pair@AAHAAVInternalKey@leveldb@@@std@@YA?AU?$pair@HVInternalKey@leveldb@@@0@AAHAAVInternalKey@leveldb@@@Z 10025c00 f i leveldb:version_edit.obj
 0001:00024c80       ??$?9DU?$char_traits@D@std@@V?$allocator@D@1@@std@@YA_NABV?$basic_string@DU?$char_traits@D@std@@V?$allocator@D@2@@0@PBD@Z 10025c80 f i leveldb:version_set.obj
 0001:00024cc0       ??$_Insert_nohint@ABQAUFileMetaData@leveldb@@U_Nil@std@@@?$_Tree@V?$_Tset_traits@PAUFileMetaData@leveldb@@UBySmallestKey@Builder@VersionSet@2@V?$allocator@PAUFileMetaData@leveldb@@@std@@$0A@@std@@@std@@IAE?AU?$pair@V?$_Tree_const_iterator@V?$_Tree_val@U?$_Tree_simple_types@PAUFileMetaData@leveldb@@@std@@@std@@@std@@_N@1@_NABQAUFileMetaData@leveldb@@U_Nil@1@@Z 10025cc0 f i leveldb:version_set.obj
 0001:00024dc0       ??$_Upper_bound_unchecked@PBQAUFileMetaData@leveldb@@PAU12@UBySmallestKey@Builder@VersionSet@2@@std@@YAPBQAUFileMetaData@leveldb@@PBQAU12@0ABQAU12@AAUBySmallestKey@Builder@VersionSet@2@@Z 10025dc0 f i leveldb:version_set.obj
 0001:00024ee0       ??$_Insert@V?$_Vector_const_iterator@V?$_Vector_val@U?$_Simple_types@PAUFileMetaData@leveldb@@@std@@@std@@@std@@@?$vector@PAUFileMetaData@leveldb@@V?$allocator@PAUFileMetaData@leveldb@@@std@@@std@@QAEXV?$_Vector_const_iterator@V?$_Vector_val@U?$_Simple_types@PAUFileMetaData@leveldb@@@std@@@std@@@1@00Uforward_iterator_tag@1@@Z 10025ee0 f i leveldb:version_set.obj
 0001:00025020       ??$_Sort_unchecked1@PAPAUFileMetaData@leveldb@@HP6A_NPAU12@0@Z@std@@YAXPAPAUFileMetaData@leveldb@@0HAAP6A_NPAU12@1@Z@Z 10026020 f i leveldb:version_set.obj
 0001:00025120       ??$_Insert_at@ABQAUFileMetaData@leveldb@@U_Nil@std@@@?$_Tree@V?$_Tset_traits@PAUFileMetaData@leveldb@@UBySmallestKey@Builder@VersionSet@2@V?$allocator@PAUFileMetaData@leveldb@@@std@@$0A@@std@@@std@@IAE?AV?$_Tree_const_iterator@V?$_Tree_val@U?$_Tree_simple_types@PAUFileMetaData@leveldb@@@std@@@std@@@1@_NPAU?$_Tree_node@PAUFileMetaData@leveldb@@PAX@1@ABQAUFileMetaData@leveldb@@U_Nil@1@@Z 10026120 f i leveldb:version_set.obj
 0001:00025300       ??$_Partition_by_median_guess_unchecked@PAPAUFileMetaData@leveldb@@P6A_NPAU12@0@Z@std@@YA?AU?$pair@PAPAUFileMetaData@leveldb@@PAPAU12@@0@PAPAUFileMetaData@leveldb@@0AAP6A_NPAU23@1@Z@Z 10026300 f i leveldb:version_set.obj
 0001:00025510       ??$_Make_heap_unchecked@PAPAUFileMetaData@leveldb@@P6A_NPAU12@0@Z@std@@YAXPAPAUFileMetaData@leveldb@@0AAP6A_NPAU12@1@Z@Z 10026510 f i leveldb:version_set.obj
 0001:000255f0       ??$_Sort_heap_unchecked@PAPAUFileMetaData@leveldb@@P6A_NPAU12@0@Z@std@@YAXPAPAUFileMetaData@leveldb@@0AAP6A_NPAU12@1@Z@Z 100265f0 f i leveldb:version_set.obj
 0001:00025650       ??$_Insertion_sort_unchecked@PAPAUFileMetaData@leveldb@@P6A_NPAU12@0@Z@std@@YAXPAPAUFileMetaData@leveldb@@0AAP6A_NPAU12@1@Z@Z 10026650 f i leveldb:version_set.obj
 0001:00025700       ??$_Uninitialized_move_al_unchecked1@PAU?$pair@HVInternalKey@leveldb@@@std@@PAU12@V?$allocator@U?$pair@HVInternalKey@leveldb@@@std@@@2@@std@@YAPAU?$pair@HVInternalKey@leveldb@@@0@PAU10@00AAU?$_Wrap_alloc@V?$allocator@U?$pair@HVInternalKey@leveldb@@@std@@@std@@@0@U_General_ptr_iterator_tag@0@U_Any_tag@0@@Z 10026700 f i leveldb:version_set.obj
 0001:00025790       ??$_Guess_median_unchecked@PAPAUFileMetaData@leveldb@@P6A_NPAU12@0@Z@std@@YAXPAPAUFileMetaData@leveldb@@00AAP6A_NPAU12@1@Z@Z 10026790 f i leveldb:version_set.obj
 0001:00025990       ??$_Pop_heap_hole_by_index@PAPAUFileMetaData@leveldb@@HPAU12@P6A_NPAU12@0@Z@std@@YAXPAPAUFileMetaData@leveldb@@HH$$QAPAU12@AAP6A_NPAU12@2@Z@Z 10026990 f i leveldb:version_set.obj
 0001:00025a10       ??$_Rotate_unchecked1@PAPAUFileMetaData@leveldb@@@std@@YAPAPAUFileMetaData@leveldb@@PAPAU12@00Urandom_access_iterator_tag@0@@Z 10026a10 f i leveldb:version_set.obj
 0001:00025a90       ??$_Push_heap_by_index@PAPAUFileMetaData@leveldb@@HPAU12@P6A_NPAU12@0@Z@std@@YAXPAPAUFileMetaData@leveldb@@HH$$QAPAU12@AAP6A_NPAU12@2@Z@Z 10026a90 f i leveldb:version_set.obj
 0001:00025b50       ??0TableCache@leveldb@@QAE@ABV?$basic_string@DU?$char_traits@D@std@@V?$allocator@D@2@@std@@PBUOptions@1@H@Z 10026b50 f   leveldb:table_cache.obj
 0001:00025bf0       ??1TableCache@leveldb@@QAE@XZ 10026bf0 f   leveldb:table_cache.obj
 0001:00025c90       ?FindTable@TableCache@leveldb@@AAE?AVStatus@2@_K0PAPAUHandle@Cache@2@@Z 10026c90 f   leveldb:table_cache.obj
 0001:00025f80       ?NewIterator@TableCache@leveldb@@QAEPAVIterator@2@ABUReadOptions@2@_K1PAPAVTable@2@@Z 10026f80 f   leveldb:table_cache.obj
 0001:000260a0       ?Get@TableCache@leveldb@@QAE?AVStatus@2@ABUReadOptions@2@_K1ABVSlice@2@PAXP6AX322@Z@Z 100270a0 f   leveldb:table_cache.obj
 0001:000261b0       ?Clear@VersionEdit@leveldb@@QAEXXZ 100271b0 f   leveldb:version_edit.obj
 0001:00026220       ?EncodeTo@VersionEdit@leveldb@@QBEXPAV?$basic_string@DU?$char_traits@D@std@@V?$allocator@D@2@@std@@@Z 10027220 f   leveldb:version_edit.obj
 0001:00026980       ?DecodeFrom@VersionEdit@leveldb@@QAE?AVStatus@2@ABVSlice@2@@Z 10027980 f   leveldb:version_edit.obj
 0001:00026f30       ?clear@?$vector@U?$pair@HUFileMetaData@leveldb@@@std@@V?$allocator@U?$pair@HUFileMetaData@leveldb@@@std@@@2@@std@@QAEXXZ 10027f30 f i leveldb:version_edit.obj
 0001:00026fb0       ??0Reader@log@leveldb@@QAE@PAVSequentialFile@2@PAVReporter@012@_N_K@Z 10027fb0 f   leveldb:log_reader.obj
 0001:00027020       ??1Reader@log@leveldb@@QAE@XZ 10028020 f   leveldb:log_reader.obj
 0001:00027030       ?SkipToInitialBlock@Reader@log@leveldb@@AAE_NXZ 10028030 f   leveldb:log_reader.obj
 0001:00027120       ?ReadRecord@Reader@log@leveldb@@QAE_NPAVSlice@3@PAV?$basic_string@DU?$char_traits@D@std@@V?$allocator@D@2@@std@@@Z 10028120 f   leveldb:log_reader.obj
 0001:00027440       ?ReportCorruption@Reader@log@leveldb@@AAEX_KPBD@Z 10028440 f   leveldb:log_reader.obj
 0001:00027500       ?ReadPhysicalRecord@Reader@log@leveldb@@AAEIPAVSlice@3@@Z 10028500 f   leveldb:log_reader.obj
 0001:000277d0       ??0Writer@log@leveldb@@QAE@PAVWritableFile@2@@Z 100287d0 f   leveldb:log_writer.obj
 0001:00027820       ?AddRecord@Writer@log@leveldb@@QAE?AVStatus@3@ABVSlice@3@@Z 10028820 f   leveldb:log_writer.obj
 0001:000279c0       ?EmitPhysicalRecord@Writer@log@leveldb@@AAE?AVStatus@3@W4RecordType@23@PBDI@Z 100289c0 f   leveldb:log_writer.obj
 0001:00027bb0       ??_GIterator@leveldb@@UAEPAXI@Z 10028bb0 f i leveldb:iterator.obj
 0001:00027bb0       ??_EIterator@leveldb@@UAEPAXI@Z 10028bb0 f i * CIL library *:* CIL module *
 0001:00027bd0       ??1Iterator@leveldb@@UAE@XZ 10028bd0 f   leveldb:iterator.obj
 0001:00027d90       ??_EEmptyIterator@?A0x04dd5dd9@leveldb@@UAEPAXI@Z 10028d90 f i * CIL library *:* CIL module *
 0001:00027d90       ??_GEmptyIterator@?A0x04dd5dd9@leveldb@@UAEPAXI@Z 10028d90 f i leveldb:iterator.obj
 0001:00027e00       ?NewEmptyIterator@leveldb@@YAPAVIterator@1@XZ 10028e00 f   leveldb:iterator.obj
 0001:00027ee0       ?NewErrorIterator@leveldb@@YAPAVIterator@1@ABVStatus@1@@Z 10028ee0 f   leveldb:iterator.obj
 0001:00028450       ??_GDBIter@?A0xc18d0d05@leveldb@@UAEPAXI@Z 10029450 f i leveldb:db_iter.obj
 0001:00028450       ??_EDBIter@?A0xc18d0d05@leveldb@@UAEPAXI@Z 10029450 f i * CIL library *:* CIL module *
 0001:00028e30       ?Snappy_Compress@port@leveldb@@YA_NPBDIPAV?$basic_string@DU?$char_traits@D@std@@V?$allocator@D@2@@std@@@Z 10029e30 f i leveldb:table_builder.obj
 0001:00028ed0       ??0Rep@TableBuilder@leveldb@@QAE@ABUOptions@2@PAVWritableFile@2@@Z 10029ed0 f i leveldb:table_builder.obj
 0001:00029060       ??1BlockBuilder@leveldb@@QAE@XZ 1002a060 f i leveldb:table_builder.obj
 0001:00029150       ??1FilterBlockBuilder@leveldb@@QAE@XZ 1002a150 f i leveldb:table_builder.obj
 0001:000292a0       ??1Rep@TableBuilder@leveldb@@QAE@XZ 1002a2a0 f i leveldb:table_builder.obj
 0001:00029380       ?Add@TableBuilder@leveldb@@QAEXABVSlice@2@0@Z 1002a380 f   leveldb:table_builder.obj
 0001:000295c0       ?Flush@TableBuilder@leveldb@@QAEXXZ 1002a5c0 f   leveldb:table_builder.obj
 0001:00029700       ?WriteBlock@TableBuilder@leveldb@@AAEXPAVBlockBuilder@2@PAVBlockHandle@2@@Z 1002a700 f   leveldb:table_builder.obj
 0001:00029840       ?WriteRawBlock@TableBuilder@leveldb@@AAEXABVSlice@2@W4CompressionType@2@PAVBlockHandle@2@@Z 1002a840 f   leveldb:table_builder.obj
 0001:000299e0       ?status@TableBuilder@leveldb@@QBE?AVStatus@2@XZ 1002a9e0 f   leveldb:table_builder.obj
 0001:00029a60       ?Finish@TableBuilder@leveldb@@QAE?AVStatus@2@XZ 1002aa60 f   leveldb:table_builder.obj
 0001:00029ff0       ?AppendEscapedStringTo@leveldb@@YAXPAV?$basic_string@DU?$char_traits@D@std@@V?$allocator@D@2@@std@@ABVSlice@1@@Z 1002aff0 f   leveldb:logging.obj
 0001:0002a100       ?EscapeString@leveldb@@YA?AV?$basic_string@DU?$char_traits@D@std@@V?$allocator@D@2@@std@@ABVSlice@1@@Z 1002b100 f   leveldb:logging.obj
 0001:0002a170       ?ConsumeDecimalNumber@leveldb@@YA_NPAVSlice@1@PA_K@Z 1002b170 f   leveldb:logging.obj
 0001:0002a440       ??_GBytewiseComparatorImpl@?A0x930b007a@leveldb@@UAEPAXI@Z 1002b440 f i leveldb:comparator.obj
 0001:0002a440       ??_EBytewiseComparatorImpl@?A0x930b007a@leveldb@@UAEPAXI@Z 1002b440 f i * CIL library *:* CIL module *
 0001:0002a510       ??_GWinLogger@leveldb@@UAEPAXI@Z 1002b510 f i leveldb:env_win.obj
 0001:0002a510       ??_EWinLogger@leveldb@@UAEPAXI@Z 1002b510 f i * CIL library *:* CIL module *
 0001:0002a740       ??0WinSequentialFile@leveldb@@QAE@ABV?$basic_string@DU?$char_traits@D@std@@V?$allocator@D@2@@std@@PAX@Z 1002b740 f i leveldb:env_win.obj
 0001:0002a7d0       ?Read@WinSequentialFile@leveldb@@UAE?AVStatus@2@IPAVSlice@2@PAD@Z 1002b7d0 f i leveldb:env_win.obj
 0001:0002a880       ?Skip@WinSequentialFile@leveldb@@UAE?AVStatus@2@_K@Z 1002b880 f i leveldb:env_win.obj
 0001:0002a900       ??_GWinSequentialFile@leveldb@@UAEPAXI@Z 1002b900 f i leveldb:env_win.obj
 0001:0002a900       ??_EWinSequentialFile@leveldb@@UAEPAXI@Z 1002b900 f i * CIL library *:* CIL module *
 0001:0002a9b0       ??0WinRandomAccessFile@leveldb@@QAE@ABV?$basic_string@DU?$char_traits@D@std@@V?$allocator@D@2@@std@@PAX@Z 1002b9b0 f i leveldb:env_win.obj
 0001:0002aa40       ?Read@WinRandomAccessFile@leveldb@@UBE?AVStatus@2@_KIPAVSlice@2@PAD@Z 1002ba40 f i leveldb:env_win.obj
 0001:0002aba0       ??_EWinRandomAccessFile@leveldb@@UAEPAXI@Z 1002bba0 f i * CIL library *:* CIL module *
 0001:0002aba0       ??_GWinRandomAccessFile@leveldb@@UAEPAXI@Z 1002bba0 f i leveldb:env_win.obj
 0001:0002ac50       ??0WinWritableFile@leveldb@@QAE@V?$basic_string@DU?$char_traits@D@std@@V?$allocator@D@2@@std@@PAX@Z 1002bc50 f i leveldb:env_win.obj
 0001:0002ad00       ??1WinWritableFile@leveldb@@UAE@XZ 1002bd00 f i leveldb:env_win.obj
 0001:0002ada0       ?Append@WinWritableFile@leveldb@@UAE?AVStatus@2@ABVSlice@2@@Z 1002bda0 f i leveldb:env_win.obj
 0001:0002aeb0       ?Close@WinWritableFile@leveldb@@UAE?AVStatus@2@XZ 1002beb0 f i leveldb:env_win.obj
 0001:0002af90       ?Sync@WinWritableFile@leveldb@@UAE?AVStatus@2@XZ 1002bf90 f i leveldb:env_win.obj
 0001:0002b010       ??_GWinWritableFile@leveldb@@UAEPAXI@Z 1002c010 f i leveldb:env_win.obj
 0001:0002b010       ??_EWinWritableFile@leveldb@@UAEPAXI@Z 1002c010 f i * CIL library *:* CIL module *
 0001:0002b330       ??_GWinFileLock@?A0xea59645f@leveldb@@UAEPAXI@Z 1002c330 f i leveldb:env_win.obj
 0001:0002b330       ??_EWinFileLock@?A0xea59645f@leveldb@@UAEPAXI@Z 1002c330 f i * CIL library *:* CIL module *
 0001:0002c870       ??_EWinEnv@?A0xea59645f@leveldb@@UAEPAXI@Z 1002d870 f i * CIL library *:* CIL module *
 0001:0002c870       ??_GWinEnv@?A0xea59645f@leveldb@@UAEPAXI@Z 1002d870 f i leveldb:env_win.obj
 0001:0002cba0       ?push_back@?$deque@UBGItem@WinEnv@?A0xea59645f@leveldb@@V?$allocator@UBGItem@WinEnv@?A0xea59645f@leveldb@@@std@@@std@@QAEX$$QAUBGItem@WinEnv@?A0xea59645f@leveldb@@@Z 1002dba0 f i leveldb:env_win.obj
 0001:0002cc30       ?push_back@?$vector@V?$basic_string@DU?$char_traits@D@std@@V?$allocator@D@2@@std@@V?$allocator@V?$basic_string@DU?$char_traits@D@std@@V?$allocator@D@2@@std@@@2@@std@@QAEX$$QAV?$basic_string@DU?$char_traits@D@std@@V?$allocator@D@2@@2@@Z 1002dc30 f i leveldb:env_win.obj
 0001:0002ccb0       ??G?$_Deque_iterator@V?$_Deque_val@U?$_Deque_simple_types@UBGItem@WinEnv@?A0xea59645f@leveldb@@@std@@@std@@@std@@QBE?AV01@H@Z 1002dcb0 f i leveldb:env_win.obj
 0001:0002ccf0       ?_Growmap@?$deque@UBGItem@WinEnv@?A0xea59645f@leveldb@@V?$allocator@UBGItem@WinEnv@?A0xea59645f@leveldb@@@std@@@std@@IAEXI@Z 1002dcf0 f i leveldb:env_win.obj
 0001:0002ce20       ??$?HDU?$char_traits@D@std@@V?$allocator@D@1@@std@@YA?AV?$basic_string@DU?$char_traits@D@std@@V?$allocator@D@2@@0@PBDABV10@@Z 1002de20 f i leveldb:env_win.obj
 0001:0002cf20       ??1Arena@leveldb@@QAE@XZ   1002df20 f   leveldb:arena.obj
 0001:0002d010       ?AllocateAligned@Arena@leveldb@@QAEPADI@Z 1002e010 f   leveldb:arena.obj
 0001:0002d0a0       ?AllocateNewBlock@Arena@leveldb@@AAEPADI@Z 1002e0a0 f   leveldb:arena.obj
 0001:0002d130       ??_GBlock@leveldb@@QAEPAXI@Z 1002e130 f i leveldb:table.obj
 0001:0002d160       ?Open@Table@leveldb@@SA?AVStatus@2@ABUOptions@2@PAVRandomAccessFile@2@_KPAPAV12@@Z 1002e160 f   leveldb:table.obj
 0001:0002d520       ??0Rep@Table@leveldb@@QAE@XZ 1002e520 f i leveldb:table.obj
 0001:0002d5a0       ?ReadMeta@Table@leveldb@@AAEXABVFooter@2@@Z 1002e5a0 f   leveldb:table.obj
 0001:0002d830       ?ReadFilter@Table@leveldb@@AAEXABVSlice@2@@Z 1002e830 f   leveldb:table.obj
 0001:0002d970       ??_GRep@Table@leveldb@@QAEPAXI@Z 1002e970 f i leveldb:table.obj
 0001:0002da70       ?BlockReader@Table@leveldb@@CAPAVIterator@2@PAXABUReadOptions@2@ABVSlice@2@@Z 1002ea70 f   leveldb:table.obj
 0001:0002dd40       ?InternalGet@Table@leveldb@@AAE?AVStatus@2@ABUReadOptions@2@ABVSlice@2@PAXP6AX211@Z@Z 1002ed40 f   leveldb:table.obj
 0001:0002e020       ?ApproximateOffsetOf@Table@leveldb@@QBE_KABVSlice@2@@Z 1002f020 f   leveldb:table.obj
 0001:0002e150       ??0IteratorWrapper@leveldb@@QAE@PAVIterator@1@@Z 1002f150 f i leveldb:two_level_iterator.obj
 0001:0002e510       ??_GTwoLevelIterator@?A0xe28d6219@leveldb@@UAEPAXI@Z 1002f510 f i leveldb:two_level_iterator.obj
 0001:0002e510       ??_ETwoLevelIterator@?A0xe28d6219@leveldb@@UAEPAXI@Z 1002f510 f i * CIL library *:* CIL module *
 0001:0002ed40       ?Extend@crc32c@leveldb@@YAIIPBDI@Z 1002fd40 f   leveldb:crc32c.obj
 0001:0002ef10       ?Snappy_Uncompress@port@leveldb@@YA_NPBDIPAD@Z 1002ff10 f i leveldb:format.obj
 0001:0002efa0       ?EncodeTo@BlockHandle@leveldb@@QBEXPAV?$basic_string@DU?$char_traits@D@std@@V?$allocator@D@2@@std@@@Z 1002ffa0 f   leveldb:format.obj
 0001:0002f0a0       ?DecodeFrom@BlockHandle@leveldb@@QAE?AVStatus@2@PAVSlice@2@@Z 100300a0 f   leveldb:format.obj
 0001:0002f150       ?EncodeTo@Footer@leveldb@@QBEXPAV?$basic_string@DU?$char_traits@D@std@@V?$allocator@D@2@@std@@@Z 10030150 f   leveldb:format.obj
 0001:0002f200       ?DecodeFrom@Footer@leveldb@@QAE?AVStatus@2@PAVSlice@2@@Z 10030200 f   leveldb:format.obj
 0001:0002f390       ?ReadBlock@leveldb@@YA?AVStatus@1@PAVRandomAccessFile@1@ABUReadOptions@1@ABVBlockHandle@1@PAUBlockContents@1@@Z 10030390 f   leveldb:format.obj
 0001:0002f660       ??0BlockBuilder@leveldb@@QAE@PBUOptions@1@@Z 10030660 f   leveldb:block_builder.obj
 0001:0002f780       ?Reset@BlockBuilder@leveldb@@QAEXXZ 10030780 f   leveldb:block_builder.obj
 0001:0002f830       ?Finish@BlockBuilder@leveldb@@QAE?AVSlice@2@XZ 10030830 f   leveldb:block_builder.obj
 0001:0002f8c0       ?Add@BlockBuilder@leveldb@@QAEXABVSlice@2@0@Z 100308c0 f   leveldb:block_builder.obj
 0001:0002fba0       ??0FilterBlockBuilder@leveldb@@QAE@PBVFilterPolicy@1@@Z 10030ba0 f   leveldb:filter_block.obj
 0001:0002fc60       ?StartBlock@FilterBlockBuilder@leveldb@@QAEX_K@Z 10030c60 f   leveldb:filter_block.obj
 0001:0002fce0       ?AddKey@FilterBlockBuilder@leveldb@@QAEXABVSlice@2@@Z 10030ce0 f   leveldb:filter_block.obj
 0001:0002fd80       ?Finish@FilterBlockBuilder@leveldb@@QAE?AVSlice@2@XZ 10030d80 f   leveldb:filter_block.obj
 0001:0002fe70       ?GenerateFilter@FilterBlockBuilder@leveldb@@AAEXXZ 10030e70 f   leveldb:filter_block.obj
 0001:0002ffa0       ??0FilterBlockReader@leveldb@@QAE@PBVFilterPolicy@1@ABVSlice@1@@Z 10030fa0 f   leveldb:filter_block.obj
 0001:00030030       ?KeyMayMatch@FilterBlockReader@leveldb@@QAE_N_KABVSlice@2@@Z 10031030 f   leveldb:filter_block.obj
 0001:000300b0       ?resize@?$vector@VSlice@leveldb@@V?$allocator@VSlice@leveldb@@@std@@@std@@QAEXI@Z 100310b0 f i leveldb:filter_block.obj
 0001:00030110       ?_Reserve@?$vector@VSlice@leveldb@@V?$allocator@VSlice@leveldb@@@std@@@std@@IAEXI@Z 10031110 f i leveldb:filter_block.obj
 0001:00030170       ?_Reallocate@?$vector@VSlice@leveldb@@V?$allocator@VSlice@leveldb@@@std@@@std@@IAEXI@Z 10031170 f i leveldb:filter_block.obj
 0001:00030230       ??$_Uninitialized_default_fill_n1@PAVSlice@leveldb@@IV?$allocator@VSlice@leveldb@@@std@@@std@@YAXPAVSlice@leveldb@@IAAU?$_Wrap_alloc@V?$allocator@VSlice@leveldb@@@std@@@0@U?$integral_constant@_N$0A@@0@@Z 10031230 f i leveldb:filter_block.obj
 0001:000302a0       __snprintf_s               100312a0 f i leveldb:win_logger.obj
 0001:000302e0       ?Logv@WinLogger@leveldb@@UAEXPBDPAD@Z 100312e0 f   leveldb:win_logger.obj
 0001:00030460       ??0Block@leveldb@@QAE@ABUBlockContents@1@@Z 10031460 f   leveldb:block.obj
 0001:00030550       ?SeekToRestartPoint@Iter@Block@leveldb@@AAEXI@Z 10031550 f i leveldb:block.obj
 0001:000305b0       ??0Iter@Block@leveldb@@QAE@PBVComparator@2@PBDII@Z 100315b0 f i leveldb:block.obj
 0001:00030680       ?Valid@Iter@Block@leveldb@@UBE_NXZ 10031680 f i leveldb:block.obj
 0001:00030690       ?status@Iter@Block@leveldb@@UBE?AVStatus@3@XZ 10031690 f i leveldb:block.obj
 0001:00030710       ?key@Iter@Block@leveldb@@UBE?AVSlice@3@XZ 10031710 f i leveldb:block.obj
 0001:00030760       ?value@Iter@Block@leveldb@@UBE?AVSlice@3@XZ 10031760 f i leveldb:block.obj
 0001:000307a0       ?Next@Iter@Block@leveldb@@UAEXXZ 100317a0 f i leveldb:block.obj
 0001:000307d0       ?Prev@Iter@Block@leveldb@@UAEXXZ 100317d0 f i leveldb:block.obj
 0001:000308c0       ?Seek@Iter@Block@leveldb@@UAEXABVSlice@3@@Z 100318c0 f i leveldb:block.obj
 0001:00030aa0       ?SeekToFirst@Iter@Block@leveldb@@UAEXXZ 10031aa0 f i leveldb:block.obj
 0001:00030b00       ?SeekToLast@Iter@Block@leveldb@@UAEXXZ 10031b00 f i leveldb:block.obj
 0001:00030b80       ?CorruptionError@Iter@Block@leveldb@@AAEXXZ 10031b80 f i leveldb:block.obj
 0001:00030c70       ?ParseNextKey@Iter@Block@leveldb@@AAE_NXZ 10031c70 f i leveldb:block.obj
 0001:00030d80       ??_EIter@Block@leveldb@@UAEPAXI@Z 10031d80 f i * CIL library *:* CIL module *
 0001:00030d80       ??_GIter@Block@leveldb@@UAEPAXI@Z 10031d80 f i leveldb:block.obj
 0001:00030e30       ?NewIterator@Block@leveldb@@QAEPAVIterator@2@PBVComparator@2@@Z 10031e30 f   leveldb:block.obj
 0001:00030f30       ?Log2Floor@Bits@snappy@@SAHI@Z 10031f30 f i snappy:snappy.obj
 0001:00030fb0       ?Parse32WithLimit@Varint@snappy@@SAPBDPBD0PAI@Z 10031fb0 f i snappy:snappy.obj
 0001:00031040       ??1WorkingMemory@internal@snappy@@QAE@XZ 10032040 f i snappy:snappy.obj
 0001:00031050       ??_GSink@snappy@@UAEPAXI@Z 10032050 f i snappy:snappy.obj
 0001:00031050       ??_ESink@snappy@@UAEPAXI@Z 10032050 f i * CIL library *:* CIL module *
 0001:00031080       ??_GByteArraySource@snappy@@UAEPAXI@Z 10032080 f i snappy:snappy.obj
 0001:00031080       ??_EByteArraySource@snappy@@UAEPAXI@Z 10032080 f i * CIL library *:* CIL module *
 0001:000310f0       ??_GUncheckedByteArraySink@snappy@@UAEPAXI@Z 100320f0 f i snappy:snappy.obj
 0001:000310f0       ??_EUncheckedByteArraySink@snappy@@UAEPAXI@Z 100320f0 f i * CIL library *:* CIL module *
 0001:00031420       ?CompressFragment@internal@snappy@@YAPADPBDIPADPAGH@Z 10032420 f   snappy:snappy.obj
 0001:00031880       ??1SnappyDecompressor@snappy@@QAE@XZ 10032880 f i snappy:snappy.obj
 0001:00031890       ?ReadUncompressedLength@SnappyDecompressor@snappy@@QAE_NPAI@Z 10032890 f i snappy:snappy.obj
 0001:00031900       ?RefillTag@SnappyDecompressor@snappy@@AAE_NXZ 10032900 f   snappy:snappy.obj
 0001:00031a60       ?Compress@snappy@@YAIPAVSource@1@PAVSink@1@@Z 10032a60 f   snappy:snappy.obj
 0001:00031d20       ?AppendFromSelf@SnappyArrayWriter@snappy@@QAE_NII@Z 10032d20 f i snappy:snappy.obj
 0001:00031df0       ?RawCompress@snappy@@YAXPBDIPADPAI@Z 10032df0 f   snappy:snappy.obj
 0001:00031f70       ??$DecompressAllTags@VSnappyArrayWriter@snappy@@@SnappyDecompressor@snappy@@QAEXPAVSnappyArrayWriter@1@@Z 10032f70 f i snappy:snappy.obj
 0001:00032110       ??1Sink@snappy@@UAE@XZ     10033110 f   snappy:snappy-sinksource.obj
 0001:00032120       ?GetAppendBuffer@Sink@snappy@@UAEPADIPAD@Z 10033120 f   snappy:snappy-sinksource.obj
 0001:00032130       ??1ByteArraySource@snappy@@UAE@XZ 10033130 f   snappy:snappy-sinksource.obj
 0001:00032180       ?Available@ByteArraySource@snappy@@UBEIXZ 10033180 f   snappy:snappy-sinksource.obj
 0001:00032190       ?Peek@ByteArraySource@snappy@@UAEPBDPAI@Z 10033190 f   snappy:snappy-sinksource.obj
 0001:000321a0       ?Skip@ByteArraySource@snappy@@UAEXI@Z 100331a0 f   snappy:snappy-sinksource.obj
 0001:000321b0       ??1UncheckedByteArraySink@snappy@@UAE@XZ 100331b0 f   snappy:snappy-sinksource.obj
 0001:00032200       ?Append@UncheckedByteArraySink@snappy@@UAEXPBDI@Z 10033200 f   snappy:snappy-sinksource.obj
 0001:00032240       ?GetAppendBuffer@UncheckedByteArraySink@snappy@@UAEPADIPAD@Z 10033240 f   snappy:snappy-sinksource.obj
 0001:00032246       __imp_load__uv_queue_work  10033246 f   node:node.exe
 0001:00032250       __tailMerge_node_exe       10033250 f i node:node.exe
 0001:00032261       __imp_load_?Global@Context@v8@@QAE?AV?$Local@VObject@v8@@@2@XZ 10033261 f   node:node.exe
 0001:0003226b       __imp_load_?Value@External@v8@@QBEPAXXZ 1003326b f   node:node.exe
 0001:00032275       __imp_load_?New@External@v8@@SA?AV?$Local@VExternal@v8@@@2@PAVIsolate@2@PAX@Z 10033275 f   node:node.exe
 0001:0003227f       __imp_load_?New@Signature@v8@@SA?AV?$Local@VSignature@v8@@@2@PAVIsolate@2@V?$Local@VFunctionTemplate@v8@@@2@@Z 1003327f f   node:node.exe
 0001:00032289       __imp_load_?GetCurrentContext@Isolate@v8@@QAE?AV?$Local@VContext@v8@@@2@XZ 10033289 f   node:node.exe
 0001:00032293       __imp_load_?GetCurrent@Isolate@v8@@SAPAV12@XZ 10033293 f   node:node.exe
 0001:0003229d       __imp_load_?CreateHandle@HandleScope@v8@@KAPAPAVObject@internal@2@PAVIsolate@42@PAV342@@Z 1003329d f   node:node.exe
 0001:000322a7       __imp_load_?CreateHandle@HandleScope@v8@@CAPAPAVObject@internal@2@PAVHeapObject@42@PAV342@@Z 100332a7 f   node:node.exe
 0001:000322b1       __imp_load_??1HandleScope@v8@@QAE@XZ 100332b1 f   node:node.exe
 0001:000322bb       __imp_load_??0HandleScope@v8@@QAE@PAVIsolate@1@@Z 100332bb f   node:node.exe
 0001:000322c5       __imp_load_?Set@Template@v8@@QAEXV?$Local@VName@v8@@@2@V?$Local@VData@v8@@@2@W4PropertyAttribute@2@@Z 100332c5 f   node:node.exe
 0001:000322cf       __imp_load_?SetClassName@FunctionTemplate@v8@@QAEXV?$Local@VString@v8@@@2@@Z 100332cf f   node:node.exe
 0001:000322d9       __imp_load_?PrototypeTemplate@FunctionTemplate@v8@@QAE?AV?$Local@VObjectTemplate@v8@@@2@XZ 100332d9 f   node:node.exe
 0001:000322e3       __imp_load_?InstanceTemplate@FunctionTemplate@v8@@QAE?AV?$Local@VObjectTemplate@v8@@@2@XZ 100332e3 f   node:node.exe
 0001:000322ed       __imp_load_?GetFunction@FunctionTemplate@v8@@QAE?AV?$Local@VFunction@v8@@@2@XZ 100332ed f   node:node.exe
 0001:000322f7       __imp_load_?New@FunctionTemplate@v8@@SA?AV?$Local@VFunctionTemplate@v8@@@2@PAVIsolate@2@P6AXABV?$FunctionCallbackInfo@VValue@v8@@@2@@ZV?$Local@VValue@v8@@@2@V?$Local@VSignature@v8@@@2@H@Z 100332f7 f   node:node.exe
 0001:00032301       __imp_load_?ToLocalEmpty@V8@v8@@CAXXZ 10033301 f   node:node.exe
 0001:0003230b       __imp_load_?ClearWeak@V8@v8@@CAPAXPAPAVObject@internal@2@@Z 1003330b f   node:node.exe
 0001:00032315       __imp_load_?MakeWeak@V8@v8@@CAXPAPAVObject@internal@2@PAXP6AXABV?$WeakCallbackInfo@X@2@@ZW4WeakCallbackType@2@@Z 10033315 f   node:node.exe
 0001:0003231f       __imp_load_?DisposeGlobal@V8@v8@@CAXPAPAVObject@internal@2@@Z 1003331f f   node:node.exe
 0001:00032329       __imp_load_?GlobalizeReference@V8@v8@@CAPAPAVObject@internal@2@PAVIsolate@42@PAPAV342@@Z 10033329 f   node:node.exe
 0001:00032333       __imp_load_?BooleanValue@Value@v8@@QBE_NXZ 10033333 f   node:node.exe
 0001:0003233d       __imp_load_?IsObject@Value@v8@@QBE_NXZ 1003333d f   node:node.exe
 0001:00032347       __imp_load_?Escape@EscapableHandleScope@v8@@AAEPAPAVObject@internal@2@PAPAV342@@Z 10033347 f   node:node.exe
 0001:00032351       __imp_load_??0EscapableHandleScope@v8@@QAE@PAVIsolate@1@@Z 10033351 f   node:node.exe
 0001:0003235b       __imp_load_?NewFromUtf8@String@v8@@SA?AV?$MaybeLocal@VString@v8@@@2@PAVIsolate@2@PBDW4NewStringType@2@H@Z 1003335b f   node:node.exe
 0001:00032365       __imp_load_?WriteUtf8@String@v8@@QBEHPADHPAHH@Z 10033365 f   node:node.exe
 0001:0003236f       __imp_load_?Utf8Length@String@v8@@QBEHXZ 1003336f f   node:node.exe
 0001:00032379       __imp_load_?SlowGetAlignedPointerFromInternalField@Object@v8@@AAEPAXH@Z 10033379 f   node:node.exe
 0001:00032383       __imp_load_?SlowGetInternalField@Object@v8@@AAE?AV?$Local@VValue@v8@@@2@H@Z 10033383 f   node:node.exe
 0001:0003238d       __imp_load_?New@Object@v8@@SA?AV?$Local@VObject@v8@@@2@PAVIsolate@2@@Z 1003338d f   node:node.exe
 0001:00032397       __imp_load_?SetAlignedPointerInInternalField@Object@v8@@QAEXHPAX@Z 10033397 f   node:node.exe
 0001:000323a1       __imp_load_?SetInternalField@Object@v8@@QAEXHV?$Local@VValue@v8@@@2@@Z 100333a1 f   node:node.exe
 0001:000323ab       __imp_load_?InternalFieldCount@Object@v8@@QAEHXZ 100333ab f   node:node.exe
 0001:000323b5       __imp_load_?Has@Object@v8@@QAE_NV?$Local@VValue@v8@@@2@@Z 100333b5 f   node:node.exe
 0001:000323bf       __imp_load_?Get@Object@v8@@QAE?AV?$Local@VValue@v8@@@2@V32@@Z 100333bf f   node:node.exe
 0001:000323c9       __imp_load_?Set@Object@v8@@QAE_NV?$Local@VValue@v8@@@2@0@Z 100333c9 f   node:node.exe
 0001:000323d3       __imp_load_?Set@Object@v8@@QAE?AV?$Maybe@_N@2@V?$Local@VContext@v8@@@2@IV?$Local@VValue@v8@@@2@@Z 100333d3 f   node:node.exe
 0001:000323dd       __imp_load_?NewInstance@Function@v8@@QBE?AV?$Local@VObject@v8@@@2@HQAV?$Local@VValue@v8@@@2@@Z 100333dd f   node:node.exe
 0001:000323e7       __imp_load_?SetInternalFieldCount@ObjectTemplate@v8@@QAEXH@Z 100333e7 f   node:node.exe
 0001:000323f1       __imp_load_?NewInstance@ObjectTemplate@v8@@QAE?AV?$MaybeLocal@VObject@v8@@@2@V?$Local@VContext@v8@@@2@@Z 100333f1 f   node:node.exe
 0001:000323fb       __imp_load_?New@ObjectTemplate@v8@@SA?AV?$Local@VObjectTemplate@v8@@@2@PAVIsolate@2@V?$Local@VFunctionTemplate@v8@@@2@@Z 100333fb f   node:node.exe
 0001:00032405       __imp_load_?HasInstance@Buffer@node@@YA_NV?$Local@VValue@v8@@@v8@@@Z 10033405 f   node:node.exe
 0001:0003240f       __imp_load_?HasInstance@Buffer@node@@YA_NV?$Local@VObject@v8@@@v8@@@Z 1003340f f   node:node.exe
 0001:00032419       __imp_load_?Data@Buffer@node@@YAPADV?$Local@VObject@v8@@@v8@@@Z 10033419 f   node:node.exe
 0001:00032423       __imp_load_?Length@Buffer@node@@YAIV?$Local@VObject@v8@@@v8@@@Z 10033423 f   node:node.exe
 0001:0003242d       __imp_load_?MakeCallback@node@@YA?AV?$Local@VValue@v8@@@v8@@PAVIsolate@3@V?$Local@VObject@v8@@@3@V?$Local@VFunction@v8@@@3@HPAV23@@Z 1003342d f   node:node.exe
 0001:00032437       __imp_load__uv_default_loop 10033437 f   node:node.exe
 0001:00032441       __imp_load_?ToObject@Value@v8@@QBE?AV?$Local@VObject@v8@@@2@XZ 10033441 f   node:node.exe
 0001:0003244b       __imp_load_?ToString@Value@v8@@QBE?AV?$Local@VString@v8@@@2@XZ 1003344b f   node:node.exe
 0001:00032455       __imp_load_??1EscapableHandleScope@v8@@QAE@XZ 10033455 f   node:node.exe
 0001:0003245f       __imp_load_?Error@Exception@v8@@SA?AV?$Local@VValue@v8@@@2@V?$Local@VString@v8@@@2@@Z 1003345f f   node:node.exe
 0001:00032469       __imp_load_?Get@Object@v8@@QAE?AV?$Local@VValue@v8@@@2@I@Z 10033469 f   node:node.exe
 0001:00032473       __imp_load_?ThrowException@Isolate@v8@@QAE?AV?$Local@VValue@v8@@@2@V32@@Z 10033473 f   node:node.exe
 0001:0003247d       __imp_load_?Length@Array@v8@@QBEIXZ 1003347d f   node:node.exe
 0001:00032487       __imp_load_?StrictEquals@Value@v8@@QBE_NV?$Local@VValue@v8@@@2@@Z 10033487 f   node:node.exe
 0001:00032491       __imp_load_?Uint32Value@Value@v8@@QBEIXZ 10033491 f   node:node.exe
 0001:0003249b       __imp_load_?IsNumber@Value@v8@@QBE_NXZ 1003349b f   node:node.exe
 0001:000324a5       __imp_load_?IsArray@Value@v8@@QBE_NXZ 100334a5 f   node:node.exe
 0001:000324af       __imp_load_?IsFunction@Value@v8@@QBE_NXZ 100334af f   node:node.exe
 0001:000324b9       __imp_load_?HasCaught@TryCatch@v8@@QBE_NXZ 100334b9 f   node:node.exe
 0001:000324c3       __imp_load_??1TryCatch@v8@@QAE@XZ 100334c3 f   node:node.exe
 0001:000324cd       __imp_load_??0TryCatch@v8@@QAE@XZ 100334cd f   node:node.exe
 0001:000324d7       __imp_load_?Length@String@v8@@QBEHXZ 100334d7 f   node:node.exe
 0001:000324e1       __imp_load_?New@Number@v8@@SA?AV?$Local@VNumber@v8@@@2@PAVIsolate@2@N@Z 100334e1 f   node:node.exe
 0001:000324eb       __imp_load_?Copy@Buffer@node@@YA?AV?$MaybeLocal@VObject@v8@@@v8@@PAVIsolate@4@PBDI@Z 100334eb f   node:node.exe
 0001:000324f5       __imp_load_?Value@Integer@v8@@QBE_JXZ 100334f5 f   node:node.exe
 0001:000324ff       __imp_load_?Int32Value@Value@v8@@QBEHXZ 100334ff f   node:node.exe
 0001:00032509       __imp_load_?New@Integer@v8@@SA?AV?$Local@VInteger@v8@@@2@PAVIsolate@2@H@Z 10033509 f   node:node.exe
 0001:00032513       __imp_load_?New@Array@v8@@SA?AV?$Local@VArray@v8@@@2@PAVIsolate@2@H@Z 10033513 f   node:node.exe
 0001:0003251d       __imp_load_?ToInteger@Value@v8@@QBE?AV?$MaybeLocal@VInteger@v8@@@2@V?$Local@VContext@v8@@@2@@Z 1003351d f   node:node.exe
 0001:00032527       __imp_load__node_module_register 10033527 f   node:node.exe
 0001:00032531       ??0bad_alloc@std@@QAE@ABV01@@Z 10033531 f i libcpmt:xthrow.obj
 0001:0003254c       ??0bad_alloc@std@@QAE@XZ   1003354c f i libcpmt:xthrow.obj
 0001:00032564       ??0exception@std@@QAE@ABV01@@Z 10033564 f i libcpmt:xthrow.obj
 0001:00032590       ??0exception@std@@QAE@QBD@Z 10033590 f i libcpmt:xthrow.obj
 0001:000325c7       ??0length_error@std@@QAE@ABV01@@Z 100335c7 f i libcpmt:xthrow.obj
 0001:000325e2       ??0length_error@std@@QAE@PBD@Z 100335e2 f i libcpmt:xthrow.obj
 0001:00032603       ??0logic_error@std@@QAE@ABV01@@Z 10033603 f i libcpmt:xthrow.obj
 0001:0003261e       ??0out_of_range@std@@QAE@ABV01@@Z 1003361e f i libcpmt:xthrow.obj
 0001:00032639       ??0out_of_range@std@@QAE@PBD@Z 10033639 f i libcpmt:xthrow.obj
 0001:0003265a       ??1out_of_range@std@@UAE@XZ 1003365a f i libcpmt:xthrow.obj
 0001:0003265a       ??1bad_exception@std@@UAE@XZ 1003365a f i libvcruntime:frame.obj
 0001:0003265a       ??1length_error@std@@UAE@XZ 1003365a f i libcpmt:xthrow.obj
 0001:0003265a       ??1bad_alloc@std@@UAE@XZ   1003365a f i libcpmt:xthrow.obj
 0001:0003265a       ??1bad_array_new_length@std@@UAE@XZ 1003365a f i LIBCMT:throw_bad_alloc.obj
 0001:0003266b       ??_Elogic_error@std@@UAEPAXI@Z 1003366b f i libcpmt:xthrow.obj
 0001:0003266b       ??_Ebad_array_new_length@std@@UAEPAXI@Z 1003366b f i LIBCMT:throw_bad_alloc.obj
 0001:0003266b       ??_Ebad_exception@std@@UAEPAXI@Z 1003366b f i libvcruntime:frame.obj
 0001:0003266b       ??_Glogic_error@std@@UAEPAXI@Z 1003366b f i libcpmt:xthrow.obj
 0001:0003266b       ??_Gout_of_range@std@@UAEPAXI@Z 1003366b f i libcpmt:xthrow.obj
 0001:0003266b       ??_Gbad_exception@std@@UAEPAXI@Z 1003366b f i libvcruntime:frame.obj
 0001:0003266b       ??_Gexception@std@@UAEPAXI@Z 1003366b f i libcpmt:xthrow.obj
 0001:0003266b       ??_Eexception@std@@UAEPAXI@Z 1003366b f i libcpmt:xthrow.obj
 0001:0003266b       ??_Gbad_array_new_length@std@@UAEPAXI@Z 1003366b f i LIBCMT:throw_bad_alloc.obj
 0001:0003266b       ??_Eout_of_range@std@@UAEPAXI@Z 1003366b f i libcpmt:xthrow.obj
 0001:0003266b       ??_Ebad_alloc@std@@UAEPAXI@Z 1003366b f i libcpmt:xthrow.obj
 0001:0003266b       ??_Elength_error@std@@UAEPAXI@Z 1003366b f i libcpmt:xthrow.obj
 0001:0003266b       ??_Gbad_alloc@std@@UAEPAXI@Z 1003366b f i libcpmt:xthrow.obj
 0001:0003266b       ??_Glength_error@std@@UAEPAXI@Z 1003366b f i libcpmt:xthrow.obj
 0001:00032698       ?_Xlength_error@std@@YAXPBD@Z 10033698 f   libcpmt:xthrow.obj
 0001:000326b8       ?_Xout_of_range@std@@YAXPBD@Z 100336b8 f   libcpmt:xthrow.obj
 0001:000326d8       ?what@exception@std@@UBEPBDXZ 100336d8 f i libcpmt:xthrow.obj
 0001:000326e5       @__security_check_cookie@4 100336e5 f   LIBCMT:_secchk_.obj
 0001:000326f6       ??_V@YAXPAX@Z              100336f6 f   LIBCMT:delete_array.obj
 0001:000326fb       ??2@YAPAXI@Z               100336fb f   LIBCMT:new_scalar.obj
 0001:00032772       ___scrt_acquire_startup_lock 10033772 f   LIBCMT:utility.obj
 0001:000327a7       ___scrt_dllmain_after_initialize_c 100337a7 f   LIBCMT:utility.obj
 0001:000327d2       ___scrt_dllmain_before_initialize_c 100337d2 f   LIBCMT:utility.obj
 0001:000327e0       ___scrt_dllmain_crt_thread_attach 100337e0 f   LIBCMT:utility.obj
 0001:000327ff       ___scrt_dllmain_crt_thread_detach 100337ff f   LIBCMT:utility.obj
 0001:0003280c       ___scrt_dllmain_exception_filter 1003380c f   LIBCMT:utility.obj
 0001:0003283f       ___scrt_dllmain_uninitialize_c 1003383f f   LIBCMT:utility.obj
 0001:00032862       ___scrt_dllmain_uninitialize_critical 10033862 f   LIBCMT:utility.obj
 0001:0003286f       ___scrt_initialize_crt     1003386f f   LIBCMT:utility.obj
 0001:000328a8       ___scrt_initialize_onexit_tables 100338a8 f   LIBCMT:utility.obj
 0001:0003293f       ___scrt_is_nonwritable_in_current_image 1003393f f   LIBCMT:utility.obj
 0001:000329c9       ___scrt_release_startup_lock 100339c9 f   LIBCMT:utility.obj
 0001:000329e6       ___scrt_uninitialize_crt   100339e6 f   LIBCMT:utility.obj
 0001:00032a0e       __onexit                   10033a0e f   LIBCMT:utility.obj
 0001:00032a49       _atexit                    10033a49 f   LIBCMT:utility.obj
 0001:00032a5e       ??3@YAXPAXI@Z              10033a5e f   LIBCMT:delete_scalar_size.obj
 0001:00032a6c       ??_U@YAPAXI@Z              10033a6c f   LIBCMT:new_array.obj
 0001:00032a75       ??3@YAXPAX@Z               10033a75 f   LIBCMT:delete_scalar.obj
 0001:00032d82       __DllMainCRTStartup@12     10033d82 f   LIBCMT:dll_dllmain.obj
 0001:00032da5       ??_M@YGXPAXIIP6EX0@Z@Z     10033da5 f   LIBCMT:ehvecdtr.obj
 0001:00032e1f       ?__ArrayUnwind@@YGXPAXIIP6EX0@Z@Z 10033e1f f   LIBCMT:ehvecdtr.obj
 0001:00032e8c       ??_L@YGXPAXIIP6EX0@Z1@Z    10033e8c f   LIBCMT:ehvecctr.obj
 0001:00032ef5       ??_V@YAXPAXI@Z             10033ef5 f   LIBCMT:delete_array_size.obj
 0001:00032f03       ??_Gtype_info@@UAEPAXI@Z   10033f03 f i LIBCMT:std_type_info_static.obj
 0001:00032f03       ??_Etype_info@@UAEPAXI@Z   10033f03 f i LIBCMT:std_type_info_static.obj
 0001:00032f26       ___raise_securityfailure   10033f26 f   LIBCMT:gs_report.obj
 0001:00032f4e       ___report_gsfailure        10033f4e f   LIBCMT:gs_report.obj
 0001:00033049       ??0bad_array_new_length@std@@QAE@ABV01@@Z 10034049 f i LIBCMT:throw_bad_alloc.obj
 0001:00033064       ??0bad_array_new_length@std@@QAE@XZ 10034064 f i LIBCMT:throw_bad_alloc.obj
 0001:0003307c       ?_Xbad_alloc@std@@YAXXZ    1003407c f   libcpmt:xthrow.obj
 0001:0003307c       ?__scrt_throw_std_bad_alloc@@YAXXZ 1003407c f   LIBCMT:throw_bad_alloc.obj
 0001:00033099       ?__scrt_throw_std_bad_array_new_length@@YAXXZ 10034099 f   LIBCMT:throw_bad_alloc.obj
 0001:000330b6       ___isa_available_init      100340b6 f   LIBCMT:_cpu_disp_.obj
 0001:00033250       __get_startup_argv_mode    10034250 f   LIBCMT:argv_mode.obj
 0001:00033254       ___scrt_is_ucrt_dll_in_use 10034254 f   LIBCMT:ucrt_detection.obj
 0001:00033260       ___scrt_fastfail           10034260 f   LIBCMT:utility_desktop.obj
 0001:0003337b       __crt_debugger_hook        1003437b f   LIBCMT:utility_desktop.obj
 0001:00033383       @_guard_check_icall@4      10034383 f i LIBCMT:checkcfg.obj
 0001:00033390       __SEH_prolog4              10034390 f   LIBCMT:_sehprolg4_.obj
 0001:000333d6       __SEH_epilog4              100343d6 f   LIBCMT:_sehprolg4_.obj
 0001:000333eb       ___security_init_cookie    100343eb f   LIBCMT:gs_support.obj
 0001:00033487       _DllMain@12                10034487 f   LIBCMT:dll_dllmain_stub.obj
 0001:0003348d       ?__scrt_initialize_type_info@@YAXXZ 1003448d f   LIBCMT:tncleanup.obj
 0001:00033499       ?__scrt_uninitialize_type_info@@YAXXZ 10034499 f   LIBCMT:tncleanup.obj
 0001:000334a5       ___local_stdio_scanf_options 100344a5 f i LIBCMT:default_local_stdio_options.obj
 0001:000334ab       ___scrt_initialize_default_local_stdio_options 100344ab f   LIBCMT:default_local_stdio_options.obj
 0001:000334c8       ___scrt_get_dyn_tls_init_callback 100344c8 f   LIBCMT:dyn_tls_init.obj
 0001:000334ce       __RTC_Initialize           100344ce f   LIBCMT:_initsect_.obj
 0001:000334f9       __RTC_Terminate            100344f9 f   LIBCMT:_initsect_.obj
 0001:00033524       __get_purecall_handler     10034524 f   libvcruntime:purevirt.obj
 0001:00033543       __purecall                 10034543 f   libvcruntime:purevirt.obj
 0001:00033560       _memmove                   10034560 f   libvcruntime:memmove.obj
 0001:00033ae0       _strrchr                   10034ae0 f   libvcruntime:strrchr.obj
 0001:00033c17       ___std_exception_copy      10034c17 f   libvcruntime:std_exception.obj
 0001:00033c7a       ___std_exception_destroy   10034c7a f   libvcruntime:std_exception.obj
 0001:00033c99       __CxxThrowException@8      10034c99 f   libvcruntime:throw.obj
 0001:00033d07       ___vcrt_initialize         10034d07 f   libvcruntime:initialization.obj
 0001:00033d30       ___vcrt_thread_attach      10034d30 f   libvcruntime:initialization.obj
 0001:00033d3b       ___vcrt_thread_detach      10034d3b f   libvcruntime:initialization.obj
 0001:00033d46       ___vcrt_uninitialize       10034d46 f   libvcruntime:initialization.obj
 0001:00033d65       ___vcrt_uninitialize_critical 10034d65 f   libvcruntime:initialization.obj
 0001:00033db0       __except_handler4          10034db0 f   libvcruntime:_chandler4_.obj
 0001:00033f20       _memset                    10034f20 f   libvcruntime:memset.obj
 0001:0003407a       ___std_type_info_compare   1003507a f   libvcruntime:std_type_info.obj
 0001:000340b6       ___std_type_info_destroy_list 100350b6 f   libvcruntime:std_type_info.obj
 0001:000340d9       ___vcrt_initialize_pure_virtual_call_handler 100350d9 f   libvcruntime:purevirt_data.obj
 0001:000340f6       ___vcrt_freefls@4          100350f6 f   libvcruntime:per_thread_data.obj
 0001:00034112       ___vcrt_freeptd            10035112 f   libvcruntime:per_thread_data.obj
 0001:00034148       ___vcrt_getptd             10035148 f   libvcruntime:per_thread_data.obj
 0001:00034156       ___vcrt_getptd_noexit      10035156 f   libvcruntime:per_thread_data.obj
 0001:000341e8       ___vcrt_initialize_ptd     100351e8 f   libvcruntime:per_thread_data.obj
 0001:0003421b       ___vcrt_uninitialize_ptd   1003521b f   libvcruntime:per_thread_data.obj
 0001:00034236       ___vcrt_initialize_locks   10035236 f   libvcruntime:locks.obj
 0001:00034272       ___vcrt_uninitialize_locks 10035272 f   libvcruntime:locks.obj
 0001:000342a1       ??$__crt_fast_encode_pointer@PAX@@YAPAXQAX@Z 100352a1 f i libvcruntime:winapi_downlevel.obj
 0001:000342a1       ??$__crt_fast_encode_pointer@PAP6AXXZ@@YAPAP6AXXZQAP6AXXZ@Z 100352a1 f i LIBCMT:utility.obj
 0001:000343df       ___vcrt_FlsAlloc           100353df f   libvcruntime:winapi_downlevel.obj
 0001:00034419       ___vcrt_FlsFree            10035419 f   libvcruntime:winapi_downlevel.obj
 0001:00034453       ___vcrt_FlsGetValue        10035453 f   libvcruntime:winapi_downlevel.obj
 0001:0003448d       ___vcrt_FlsSetValue        1003548d f   libvcruntime:winapi_downlevel.obj
 0001:000344ca       ___vcrt_InitializeCriticalSectionEx 100354ca f   libvcruntime:winapi_downlevel.obj
 0001:00034510       ___vcrt_initialize_winapi_thunks 10035510 f   libvcruntime:winapi_downlevel.obj
 0001:0003454a       ___vcrt_uninitialize_winapi_thunks 1003554a f   libvcruntime:winapi_downlevel.obj
 0001:00034580       __local_unwind4            10035580 f   libvcruntime:_exsup4_.obj
 0001:00034656       __seh_longjmp_unwind4@4    10035656 f   libvcruntime:_exsup4_.obj
 0001:0003467e       @_EH4_CallFilterFunc@8     1003567e f   libvcruntime:_exsup4_.obj
 0001:00034695       @_EH4_TransferToHandler@8  10035695 f   libvcruntime:_exsup4_.obj
 0001:000346ae       @_EH4_GlobalUnwind2@8      100356ae f   libvcruntime:_exsup4_.obj
 0001:000346c7       @_EH4_LocalUnwind@16       100356c7 f   libvcruntime:_exsup4_.obj
 0001:000346e0       __global_unwind2           100356e0 f   libvcruntime:_exsup_.obj
 0001:00034745       __local_unwind2            10035745 f   libvcruntime:_exsup_.obj
 0001:000347c9       __abnormal_termination     100357c9 f   libvcruntime:_exsup_.obj
 0001:000347ec       __NLG_Notify1              100357ec f   libvcruntime:_exsup_.obj
 0001:000347f5       __NLG_Notify               100357f5 f   libvcruntime:_exsup_.obj
 0001:0003480c       __NLG_Dispatch2            1003580c     libvcruntime:_exsup_.obj
 0001:0003480c       __NLG_Dispatch             1003580c     libvcruntime:_exsup_.obj
 0001:00034814       __NLG_Call                 10035814 f   libvcruntime:_exsup_.obj
 0001:00034816       __NLG_Return2              10035816     libvcruntime:_exsup_.obj
 0001:00034e7b       ??$ftprintf@PAU_iobuf@@PB_WABQB_WABQB_WABI@?$__crt_char_traits@_W@@SAH$$QAPAU_iobuf@@$$QAPB_WABQB_W2ABI@Z 10035e7b f i libucrt:assert.obj
 0001:00034f5a       __vfwprintf_l              10035f5a f i libucrt:assert.obj
 0001:00034f7f       __vswprintf_c_l            10035f7f f i libucrt:assert.obj
 0001:00034fae       __wassert                  10035fae f   libucrt:assert.obj
 0001:00034ff6       _fwprintf                  10035ff6 f i libucrt:assert.obj
 0001:00035011       _swprintf                  10036011 f i libucrt:assert.obj
 0001:0003502f       ?initialize@?$dual_state_global@PAU__crt_locale_data@@@__crt_state_management@@QAEXQAU__crt_locale_data@@@Z 1003602f f i libucrt:initialization.obj
 0001:0003502f       ?initialize@?$dual_state_global@PAPAD@__crt_state_management@@QAEXQAPAD@Z 1003602f f i libucrt:environment_initialization.obj
 0001:0003502f       ?initialize@?$dual_state_global@P6AXPB_W00II@Z@__crt_state_management@@QAEXQ6AXPB_W00II@Z@Z 1003602f f i libucrt:invalid_parameter.obj
 0001:0003502f       ?initialize@?$dual_state_global@P6AHI@Z@__crt_state_management@@QAEXQ6AHI@Z@Z 1003602f f i libucrt:new_handler.obj
 0001:0003502f       ?initialize@?$dual_state_global@P6AXH@Z@__crt_state_management@@QAEXQ6AXH@Z@Z 1003602f f i libucrt:signal.obj
 0001:0003502f       ?initialize@?$dual_state_global@P6AHPAU_exception@@@Z@__crt_state_management@@QAEXQ6AHPAU_exception@@@Z@Z 1003602f f i libucrt:matherr.obj
 0001:00035060       ___acrt_call_reportfault   10036060 f   libucrt:invalid_parameter.obj
 0001:0003519b       ___acrt_initialize_invalid_parameter_handler 1003619b f   libucrt:invalid_parameter.obj
 0001:000351af       __invalid_parameter        100361af f   libucrt:invalid_parameter.obj
 0001:0003522a       __invalid_parameter_noinfo 1003622a f   libucrt:invalid_parameter.obj
 0001:0003523a       __invalid_parameter_noinfo_noreturn 1003623a f   libucrt:invalid_parameter.obj
 0001:00035257       __invoke_watson            10036257 f   libucrt:invalid_parameter.obj
 0001:0003528a       _free                      1003628a f   libucrt:free.obj
 0001:0003528f       _malloc                    1003628f f   libucrt:malloc.obj
 0001:0003529a       ??0_LocaleUpdate@@QAE@QAU__crt_locale_pointers@@@Z 1003629a f i libucrt:stricmp.obj
 0001:0003531d       ___ascii_stricmp           1003631d f   libucrt:stricmp.obj
 0001:00035358       __stricmp                  10036358 f   libucrt:stricmp.obj
 0001:000353a0       __stricmp_l                100363a0 f   libucrt:stricmp.obj
 0001:0003543a       ??$?RV<lambda_ab9923ffb5d694ec0d78876dd103e44f>@@AAV<lambda_481dd5778c961fbcd3b60b650e9b9dc4>@@V<lambda_7923d86c9e3f319b415918ec4b39749c>@@@?$__crt_seh_guarded_call@H@@QAEH$$QAV<lambda_ab9923ffb5d694ec0d78876dd103e44f>@@AAV<lambda_481dd5778c961fbcd3b60b650e9b9dc4>@@$$QAV<lambda_7923d86c9e3f319b415918ec4b39749c>@@@Z 1003643a f i libucrt:output.obj
 0001:0003548b       ??$?RV<lambda_db08b09ef7aa9d4f8620ce68402612bc>@@AAV<lambda_4f2c1eaeead2a5fc776db5b62ea0fb9b>@@V<lambda_3ae262bc35d4ba6a3825c4f6bcaaf95c>@@@?$__crt_seh_guarded_call@H@@QAEH$$QAV<lambda_db08b09ef7aa9d4f8620ce68402612bc>@@AAV<lambda_4f2c1eaeead2a5fc776db5b62ea0fb9b>@@$$QAV<lambda_3ae262bc35d4ba6a3825c4f6bcaaf95c>@@@Z 1003648b f i libucrt:output.obj
 0001:000354dc       ??$__acrt_lock_stream_and_call@V<lambda_481dd5778c961fbcd3b60b650e9b9dc4>@@@@YAHQAU_iobuf@@$$QAV<lambda_481dd5778c961fbcd3b60b650e9b9dc4>@@@Z 100364dc f i libucrt:output.obj
 0001:00035504       ??$__acrt_lock_stream_and_call@V<lambda_4f2c1eaeead2a5fc776db5b62ea0fb9b>@@@@YAHQAU_iobuf@@$$QAV<lambda_4f2c1eaeead2a5fc776db5b62ea0fb9b>@@@Z 10036504 f i libucrt:output.obj
 0001:00035aad       ??$count@D@formatting_buffer@__crt_stdio_output@@QBEIXZ 10036aad f i libucrt:output.obj
 0001:00035ac5       ??$ensure_buffer_is_big_enough@D@formatting_buffer@__crt_stdio_output@@QAE_NI@Z 10036ac5 f i libucrt:output.obj
 0001:00035b4b       ??$is_wide_character_specifier@D@__crt_stdio_output@@YA_N_KDW4length_modifier@0@@Z 10036b4b f i libucrt:output.obj
 0001:00035b8b       ??$is_wide_character_specifier@_W@__crt_stdio_output@@YA_N_K_WW4length_modifier@0@@Z 10036b8b f i libucrt:output.obj
 0001:00035bda       ??$scratch_data@D@formatting_buffer@__crt_stdio_output@@QAEPADXZ 10036bda f i libucrt:output.obj
 0001:00035bf8       ??$type_case_integer_parse_into_buffer@I@?$output_processor@DV?$string_output_adapter@D@__crt_stdio_output@@V?$format_validation_base@DV?$string_output_adapter@D@__crt_stdio_output@@@2@@__crt_stdio_output@@AAEXII_N@Z 10036bf8 f i libucrt:output.obj
 0001:00035bf8       ??$type_case_integer_parse_into_buffer@I@?$output_processor@_WV?$string_output_adapter@_W@__crt_stdio_output@@V?$standard_base@_WV?$string_output_adapter@_W@__crt_stdio_output@@@2@@__crt_stdio_output@@AAEXII_N@Z 10036bf8 f i libucrt:output.obj
 0001:00035bf8       ??$type_case_integer_parse_into_buffer@I@?$output_processor@DV?$string_output_adapter@D@__crt_stdio_output@@V?$standard_base@DV?$string_output_adapter@D@__crt_stdio_output@@@2@@__crt_stdio_output@@AAEXII_N@Z 10036bf8 f i libucrt:output.obj
 0001:00035bf8       ??$type_case_integer_parse_into_buffer@I@?$output_processor@_WV?$stream_output_adapter@_W@__crt_stdio_output@@V?$standard_base@_WV?$stream_output_adapter@_W@__crt_stdio_output@@@2@@__crt_stdio_output@@AAEXII_N@Z 10036bf8 f i libucrt:output.obj
 0001:00035bf8       ??$type_case_integer_parse_into_buffer@I@?$output_processor@DV?$stream_output_adapter@D@__crt_stdio_output@@V?$standard_base@DV?$stream_output_adapter@D@__crt_stdio_output@@@2@@__crt_stdio_output@@AAEXII_N@Z 10036bf8 f i libucrt:output.obj
 0001:00035c6d       ??$type_case_integer_parse_into_buffer@_K@?$output_processor@_WV?$string_output_adapter@_W@__crt_stdio_output@@V?$standard_base@_WV?$string_output_adapter@_W@__crt_stdio_output@@@2@@__crt_stdio_output@@AAEX_KI_N@Z 10036c6d f i libucrt:output.obj
 0001:00035c6d       ??$type_case_integer_parse_into_buffer@_K@?$output_processor@DV?$string_output_adapter@D@__crt_stdio_output@@V?$standard_base@DV?$string_output_adapter@D@__crt_stdio_output@@@2@@__crt_stdio_output@@AAEX_KI_N@Z 10036c6d f i libucrt:output.obj
 0001:00035c6d       ??$type_case_integer_parse_into_buffer@_K@?$output_processor@DV?$stream_output_adapter@D@__crt_stdio_output@@V?$standard_base@DV?$stream_output_adapter@D@__crt_stdio_output@@@2@@__crt_stdio_output@@AAEX_KI_N@Z 10036c6d f i libucrt:output.obj
 0001:00035c6d       ??$type_case_integer_parse_into_buffer@_K@?$output_processor@_WV?$stream_output_adapter@_W@__crt_stdio_output@@V?$standard_base@_WV?$stream_output_adapter@_W@__crt_stdio_output@@@2@@__crt_stdio_output@@AAEX_KI_N@Z 10036c6d f i libucrt:output.obj
 0001:00035c6d       ??$type_case_integer_parse_into_buffer@_K@?$output_processor@DV?$string_output_adapter@D@__crt_stdio_output@@V?$format_validation_base@DV?$string_output_adapter@D@__crt_stdio_output@@@2@@__crt_stdio_output@@AAEX_KI_N@Z 10036c6d f i libucrt:output.obj
 0001:00035cf5       ??$write_multiple_characters@V?$stream_output_adapter@D@__crt_stdio_output@@D@__crt_stdio_output@@YAXABV?$stream_output_adapter@D@0@DHQAH@Z 10036cf5 f i libucrt:output.obj
 0001:00035d21       ??$write_multiple_characters@V?$stream_output_adapter@_W@__crt_stdio_output@@D@__crt_stdio_output@@YAXABV?$stream_output_adapter@_W@0@DHQAH@Z 10036d21 f i libucrt:output.obj
 0001:00035d52       ??$write_multiple_characters@V?$string_output_adapter@D@__crt_stdio_output@@D@__crt_stdio_output@@YAXABV?$string_output_adapter@D@0@DHQAH@Z 10036d52 f i libucrt:output.obj
 0001:00035d7e       ??$write_multiple_characters@V?$string_output_adapter@_W@__crt_stdio_output@@D@__crt_stdio_output@@YAXABV?$string_output_adapter@_W@0@DHQAH@Z 10036d7e f i libucrt:output.obj
 0001:00035daf       ??0?$common_data@D@__crt_stdio_output@@IAE@XZ 10036daf f i libucrt:output.obj
 0001:00035df6       ??0?$common_data@_W@__crt_stdio_output@@IAE@XZ 10036df6 f i libucrt:output.obj
 0001:00035e42       ??0?$output_adapter_data@DV?$stream_output_adapter@D@__crt_stdio_output@@@__crt_stdio_output@@IAE@ABV?$stream_output_adapter@D@1@_KQBDQAU__crt_locale_pointers@@QAD@Z 10036e42 f i libucrt:output.obj
 0001:00035e42       ??0?$output_adapter_data@DV?$string_output_adapter@D@__crt_stdio_output@@@__crt_stdio_output@@IAE@ABV?$string_output_adapter@D@1@_KQBDQAU__crt_locale_pointers@@QAD@Z 10036e42 f i libucrt:output.obj
 0001:00035e7e       ??0?$output_adapter_data@_WV?$string_output_adapter@_W@__crt_stdio_output@@@__crt_stdio_output@@IAE@ABV?$string_output_adapter@_W@1@_KQB_WQAU__crt_locale_pointers@@QAD@Z 10036e7e f i libucrt:output.obj
 0001:00035e7e       ??0?$output_adapter_data@_WV?$stream_output_adapter@_W@__crt_stdio_output@@@__crt_stdio_output@@IAE@ABV?$stream_output_adapter@_W@1@_KQB_WQAU__crt_locale_pointers@@QAD@Z 10036e7e f i libucrt:output.obj
 0001:00035eba       ??0?$output_processor@DV?$string_output_adapter@D@__crt_stdio_output@@V?$format_validation_base@DV?$string_output_adapter@D@__crt_stdio_output@@@2@@__crt_stdio_output@@QAE@ABV?$string_output_adapter@D@1@_KQBDQAU__crt_locale_pointers@@QAD@Z 10036eba f i libucrt:output.obj
 0001:00035eba       ??0?$output_processor@DV?$stream_output_adapter@D@__crt_stdio_output@@V?$standard_base@DV?$stream_output_adapter@D@__crt_stdio_output@@@2@@__crt_stdio_output@@QAE@ABV?$stream_output_adapter@D@1@_KQBDQAU__crt_locale_pointers@@QAD@Z 10036eba f i libucrt:output.obj
 0001:00035eba       ??0?$output_processor@DV?$string_output_adapter@D@__crt_stdio_output@@V?$standard_base@DV?$string_output_adapter@D@__crt_stdio_output@@@2@@__crt_stdio_output@@QAE@ABV?$string_output_adapter@D@1@_KQBDQAU__crt_locale_pointers@@QAD@Z 10036eba f i libucrt:output.obj
 0001:00035eef       ??0?$output_processor@_WV?$stream_output_adapter@_W@__crt_stdio_output@@V?$standard_base@_WV?$stream_output_adapter@_W@__crt_stdio_output@@@2@@__crt_stdio_output@@QAE@ABV?$stream_output_adapter@_W@1@_KQB_WQAU__crt_locale_pointers@@QAD@Z 10036eef f i libucrt:output.obj
 0001:00035eef       ??0?$output_processor@_WV?$string_output_adapter@_W@__crt_stdio_output@@V?$standard_base@_WV?$string_output_adapter@_W@__crt_stdio_output@@@2@@__crt_stdio_output@@QAE@ABV?$string_output_adapter@_W@1@_KQB_WQAU__crt_locale_pointers@@QAD@Z 10036eef f i libucrt:output.obj
 0001:00035f24       ??1formatting_buffer@__crt_stdio_output@@QAE@XZ 10036f24 f i libucrt:output.obj
 0001:00035f3e       ??4?$__crt_unique_heap_ptr@DU__crt_internal_free_policy@@@@QAEAAV0@$$QAV0@@Z 10036f3e f i libucrt:output.obj
 0001:000360dc       ?crop_zeroes@__crt_stdio_output@@YAXPADQAU__crt_locale_pointers@@@Z 100370dc f i libucrt:output.obj
 0001:00036133       ?find_next_state@?$output_processor@DV?$string_output_adapter@D@__crt_stdio_output@@V?$standard_base@DV?$string_output_adapter@D@__crt_stdio_output@@@2@@__crt_stdio_output@@ABE?AW4state@2@DW432@@Z 10037133 f i libucrt:output.obj
 0001:00036133       ?find_next_state@?$output_processor@DV?$stream_output_adapter@D@__crt_stdio_output@@V?$standard_base@DV?$stream_output_adapter@D@__crt_stdio_output@@@2@@__crt_stdio_output@@ABE?AW4state@2@DW432@@Z 10037133 f i libucrt:output.obj
 0001:00036165       ?find_next_state@?$output_processor@DV?$string_output_adapter@D@__crt_stdio_output@@V?$format_validation_base@DV?$string_output_adapter@D@__crt_stdio_output@@@2@@__crt_stdio_output@@ABE?AW4state@2@DW432@@Z 10037165 f i libucrt:output.obj
 0001:0003619a       ?find_next_state@?$output_processor@_WV?$string_output_adapter@_W@__crt_stdio_output@@V?$standard_base@_WV?$string_output_adapter@_W@__crt_stdio_output@@@2@@__crt_stdio_output@@ABE?AW4state@2@_WW432@@Z 1003719a f i libucrt:output.obj
 0001:0003619a       ?find_next_state@?$output_processor@_WV?$stream_output_adapter@_W@__crt_stdio_output@@V?$standard_base@_WV?$stream_output_adapter@_W@__crt_stdio_output@@@2@@__crt_stdio_output@@ABE?AW4state@2@_WW432@@Z 1003719a f i libucrt:output.obj
 0001:000361ce       ?force_decimal_point@__crt_stdio_output@@YAXPADQAU__crt_locale_pointers@@@Z 100371ce f i libucrt:output.obj
 0001:0003622a       ?parse_int_from_format_string@?$output_processor@DV?$stream_output_adapter@D@__crt_stdio_output@@V?$standard_base@DV?$stream_output_adapter@D@__crt_stdio_output@@@2@@__crt_stdio_output@@AAE_NQAH@Z 1003722a f i libucrt:output.obj
 0001:0003622a       ?parse_int_from_format_string@?$output_processor@DV?$string_output_adapter@D@__crt_stdio_output@@V?$standard_base@DV?$string_output_adapter@D@__crt_stdio_output@@@2@@__crt_stdio_output@@AAE_NQAH@Z 1003722a f i libucrt:output.obj
 0001:0003622a       ?parse_int_from_format_string@?$output_processor@DV?$string_output_adapter@D@__crt_stdio_output@@V?$format_validation_base@DV?$string_output_adapter@D@__crt_stdio_output@@@2@@__crt_stdio_output@@AAE_NQAH@Z 1003722a f i libucrt:output.obj
 0001:00036286       ?parse_int_from_format_string@?$output_processor@_WV?$string_output_adapter@_W@__crt_stdio_output@@V?$standard_base@_WV?$string_output_adapter@_W@__crt_stdio_output@@@2@@__crt_stdio_output@@AAE_NQAH@Z 10037286 f i libucrt:output.obj
 0001:00036286       ?parse_int_from_format_string@?$output_processor@_WV?$stream_output_adapter@_W@__crt_stdio_output@@V?$standard_base@_WV?$stream_output_adapter@_W@__crt_stdio_output@@@2@@__crt_stdio_output@@AAE_NQAH@Z 10037286 f i libucrt:output.obj
 0001:000362e4       ?process@?$output_processor@DV?$stream_output_adapter@D@__crt_stdio_output@@V?$standard_base@DV?$stream_output_adapter@D@__crt_stdio_output@@@2@@__crt_stdio_output@@QAEHXZ 100372e4 f i libucrt:output.obj
 0001:00036400       ?process@?$output_processor@DV?$string_output_adapter@D@__crt_stdio_output@@V?$format_validation_base@DV?$string_output_adapter@D@__crt_stdio_output@@@2@@__crt_stdio_output@@QAEHXZ 10037400 f i libucrt:output.obj
 0001:00036528       ?process@?$output_processor@DV?$string_output_adapter@D@__crt_stdio_output@@V?$standard_base@DV?$string_output_adapter@D@__crt_stdio_output@@@2@@__crt_stdio_output@@QAEHXZ 10037528 f i libucrt:output.obj
 0001:00036644       ?process@?$output_processor@_WV?$stream_output_adapter@_W@__crt_stdio_output@@V?$standard_base@_WV?$stream_output_adapter@_W@__crt_stdio_output@@@2@@__crt_stdio_output@@QAEHXZ 10037644 f i libucrt:output.obj
 0001:00036764       ?process@?$output_processor@_WV?$string_output_adapter@_W@__crt_stdio_output@@V?$standard_base@_WV?$string_output_adapter@_W@__crt_stdio_output@@@2@@__crt_stdio_output@@QAEHXZ 10037764 f i libucrt:output.obj
 0001:00036884       ?state_case_flag@?$output_processor@DV?$stream_output_adapter@D@__crt_stdio_output@@V?$standard_base@DV?$stream_output_adapter@D@__crt_stdio_output@@@2@@__crt_stdio_output@@AAE_NXZ 10037884 f i libucrt:output.obj
 0001:00036884       ?state_case_flag@?$output_processor@DV?$string_output_adapter@D@__crt_stdio_output@@V?$standard_base@DV?$string_output_adapter@D@__crt_stdio_output@@@2@@__crt_stdio_output@@AAE_NXZ 10037884 f i libucrt:output.obj
 0001:00036884       ?state_case_flag@?$output_processor@DV?$string_output_adapter@D@__crt_stdio_output@@V?$format_validation_base@DV?$string_output_adapter@D@__crt_stdio_output@@@2@@__crt_stdio_output@@AAE_NXZ 10037884 f i libucrt:output.obj
 0001:000368c1       ?state_case_flag@?$output_processor@_WV?$stream_output_adapter@_W@__crt_stdio_output@@V?$standard_base@_WV?$stream_output_adapter@_W@__crt_stdio_output@@@2@@__crt_stdio_output@@AAE_NXZ 100378c1 f i libucrt:output.obj
 0001:000368c1       ?state_case_flag@?$output_processor@_WV?$string_output_adapter@_W@__crt_stdio_output@@V?$standard_base@_WV?$string_output_adapter@_W@__crt_stdio_output@@@2@@__crt_stdio_output@@AAE_NXZ 100378c1 f i libucrt:output.obj
 0001:000368fe       ?state_case_normal@?$output_processor@DV?$stream_output_adapter@D@__crt_stdio_output@@V?$standard_base@DV?$stream_output_adapter@D@__crt_stdio_output@@@2@@__crt_stdio_output@@AAE_NXZ 100378fe f i libucrt:output.obj
 0001:0003691d       ?state_case_normal@?$output_processor@DV?$string_output_adapter@D@__crt_stdio_output@@V?$standard_base@DV?$string_output_adapter@D@__crt_stdio_output@@@2@@__crt_stdio_output@@AAE_NXZ 1003791d f i libucrt:output.obj
 0001:0003691d       ?state_case_normal@?$output_processor@DV?$string_output_adapter@D@__crt_stdio_output@@V?$format_validation_base@DV?$string_output_adapter@D@__crt_stdio_output@@@2@@__crt_stdio_output@@AAE_NXZ 1003791d f i libucrt:output.obj
 0001:0003693c       ?state_case_normal@?$output_processor@_WV?$stream_output_adapter@_W@__crt_stdio_output@@V?$standard_base@_WV?$stream_output_adapter@_W@__crt_stdio_output@@@2@@__crt_stdio_output@@AAE_NXZ 1003793c f i libucrt:output.obj
 0001:0003695b       ?state_case_normal@?$output_processor@_WV?$string_output_adapter@_W@__crt_stdio_output@@V?$standard_base@_WV?$string_output_adapter@_W@__crt_stdio_output@@@2@@__crt_stdio_output@@AAE_NXZ 1003795b f i libucrt:output.obj
 0001:0003697a       ?state_case_normal_common@?$output_processor@DV?$stream_output_adapter@D@__crt_stdio_output@@V?$standard_base@DV?$stream_output_adapter@D@__crt_stdio_output@@@2@@__crt_stdio_output@@AAE_NXZ 1003797a f i libucrt:output.obj
 0001:000369a4       ?state_case_normal_common@?$output_processor@DV?$string_output_adapter@D@__crt_stdio_output@@V?$standard_base@DV?$string_output_adapter@D@__crt_stdio_output@@@2@@__crt_stdio_output@@AAE_NXZ 100379a4 f i libucrt:output.obj
 0001:000369a4       ?state_case_normal_common@?$output_processor@DV?$string_output_adapter@D@__crt_stdio_output@@V?$format_validation_base@DV?$string_output_adapter@D@__crt_stdio_output@@@2@@__crt_stdio_output@@AAE_NXZ 100379a4 f i libucrt:output.obj
 0001:000369ce       ?state_case_normal_common@?$output_processor@_WV?$stream_output_adapter@_W@__crt_stdio_output@@V?$standard_base@_WV?$stream_output_adapter@_W@__crt_stdio_output@@@2@@__crt_stdio_output@@AAE_NXZ 100379ce f i libucrt:output.obj
 0001:000369e9       ?state_case_normal_common@?$output_processor@_WV?$string_output_adapter@_W@__crt_stdio_output@@V?$standard_base@_WV?$string_output_adapter@_W@__crt_stdio_output@@@2@@__crt_stdio_output@@AAE_NXZ 100379e9 f i libucrt:output.obj
 0001:00036a04       ?state_case_normal_tchar@?$output_processor@DV?$stream_output_adapter@D@__crt_stdio_output@@V?$standard_base@DV?$stream_output_adapter@D@__crt_stdio_output@@@2@@__crt_stdio_output@@AAE_ND@Z 10037a04 f i libucrt:output.obj
 0001:00036a65       ?state_case_normal_tchar@?$output_processor@DV?$string_output_adapter@D@__crt_stdio_output@@V?$format_validation_base@DV?$string_output_adapter@D@__crt_stdio_output@@@2@@__crt_stdio_output@@AAE_ND@Z 10037a65 f i libucrt:output.obj
 0001:00036a65       ?state_case_normal_tchar@?$output_processor@DV?$string_output_adapter@D@__crt_stdio_output@@V?$standard_base@DV?$string_output_adapter@D@__crt_stdio_output@@@2@@__crt_stdio_output@@AAE_ND@Z 10037a65 f i libucrt:output.obj
 0001:00036ac6       ?state_case_precision@?$output_processor@DV?$string_output_adapter@D@__crt_stdio_output@@V?$standard_base@DV?$string_output_adapter@D@__crt_stdio_output@@@2@@__crt_stdio_output@@AAE_NXZ 10037ac6 f i libucrt:output.obj
 0001:00036ac6       ?state_case_precision@?$output_processor@DV?$stream_output_adapter@D@__crt_stdio_output@@V?$standard_base@DV?$stream_output_adapter@D@__crt_stdio_output@@@2@@__crt_stdio_output@@AAE_NXZ 10037ac6 f i libucrt:output.obj
 0001:00036ac6       ?state_case_precision@?$output_processor@DV?$string_output_adapter@D@__crt_stdio_output@@V?$format_validation_base@DV?$string_output_adapter@D@__crt_stdio_output@@@2@@__crt_stdio_output@@AAE_NXZ 10037ac6 f i libucrt:output.obj
 0001:00036aee       ?state_case_precision@?$output_processor@_WV?$stream_output_adapter@_W@__crt_stdio_output@@V?$standard_base@_WV?$stream_output_adapter@_W@__crt_stdio_output@@@2@@__crt_stdio_output@@AAE_NXZ 10037aee f i libucrt:output.obj
 0001:00036aee       ?state_case_precision@?$output_processor@_WV?$string_output_adapter@_W@__crt_stdio_output@@V?$standard_base@_WV?$string_output_adapter@_W@__crt_stdio_output@@@2@@__crt_stdio_output@@AAE_NXZ 10037aee f i libucrt:output.obj
 0001:00036b17       ?state_case_size@?$output_processor@DV?$stream_output_adapter@D@__crt_stdio_output@@V?$standard_base@DV?$stream_output_adapter@D@__crt_stdio_output@@@2@@__crt_stdio_output@@AAE_NXZ 10037b17 f i libucrt:output.obj
 0001:00036c80       ?state_case_size@?$output_processor@DV?$string_output_adapter@D@__crt_stdio_output@@V?$standard_base@DV?$string_output_adapter@D@__crt_stdio_output@@@2@@__crt_stdio_output@@AAE_NXZ 10037c80 f i libucrt:output.obj
 0001:00036c80       ?state_case_size@?$output_processor@DV?$string_output_adapter@D@__crt_stdio_output@@V?$format_validation_base@DV?$string_output_adapter@D@__crt_stdio_output@@@2@@__crt_stdio_output@@AAE_NXZ 10037c80 f i libucrt:output.obj
 0001:00036de9       ?state_case_size@?$output_processor@_WV?$stream_output_adapter@_W@__crt_stdio_output@@V?$standard_base@_WV?$stream_output_adapter@_W@__crt_stdio_output@@@2@@__crt_stdio_output@@AAE_NXZ 10037de9 f i libucrt:output.obj
 0001:00036f65       ?state_case_size@?$output_processor@_WV?$string_output_adapter@_W@__crt_stdio_output@@V?$standard_base@_WV?$string_output_adapter@_W@__crt_stdio_output@@@2@@__crt_stdio_output@@AAE_NXZ 10037f65 f i libucrt:output.obj
 0001:000370e1       ?state_case_type@?$output_processor@DV?$stream_output_adapter@D@__crt_stdio_output@@V?$standard_base@DV?$stream_output_adapter@D@__crt_stdio_output@@@2@@__crt_stdio_output@@AAE_NXZ 100380e1 f i libucrt:output.obj
 0001:00037310       ?state_case_type@?$output_processor@DV?$string_output_adapter@D@__crt_stdio_output@@V?$standard_base@DV?$string_output_adapter@D@__crt_stdio_output@@@2@@__crt_stdio_output@@AAE_NXZ 10038310 f i libucrt:output.obj
 0001:00037310       ?state_case_type@?$output_processor@DV?$string_output_adapter@D@__crt_stdio_output@@V?$format_validation_base@DV?$string_output_adapter@D@__crt_stdio_output@@@2@@__crt_stdio_output@@AAE_NXZ 10038310 f i libucrt:output.obj
 0001:0003753f       ?state_case_type@?$output_processor@_WV?$stream_output_adapter@_W@__crt_stdio_output@@V?$standard_base@_WV?$stream_output_adapter@_W@__crt_stdio_output@@@2@@__crt_stdio_output@@AAE_NXZ 1003853f f i libucrt:output.obj
 0001:0003779c       ?state_case_type@?$output_processor@_WV?$string_output_adapter@_W@__crt_stdio_output@@V?$standard_base@_WV?$string_output_adapter@_W@__crt_stdio_output@@@2@@__crt_stdio_output@@AAE_NXZ 1003879c f i libucrt:output.obj
 0001:000379f9       ?state_case_width@?$output_processor@DV?$stream_output_adapter@D@__crt_stdio_output@@V?$standard_base@DV?$stream_output_adapter@D@__crt_stdio_output@@@2@@__crt_stdio_output@@AAE_NXZ 100389f9 f i libucrt:output.obj
 0001:000379f9       ?state_case_width@?$output_processor@DV?$string_output_adapter@D@__crt_stdio_output@@V?$format_validation_base@DV?$string_output_adapter@D@__crt_stdio_output@@@2@@__crt_stdio_output@@AAE_NXZ 100389f9 f i libucrt:output.obj
 0001:000379f9       ?state_case_width@?$output_processor@DV?$string_output_adapter@D@__crt_stdio_output@@V?$standard_base@DV?$string_output_adapter@D@__crt_stdio_output@@@2@@__crt_stdio_output@@AAE_NXZ 100389f9 f i libucrt:output.obj
 0001:00037a24       ?state_case_width@?$output_processor@_WV?$stream_output_adapter@_W@__crt_stdio_output@@V?$standard_base@_WV?$stream_output_adapter@_W@__crt_stdio_output@@@2@@__crt_stdio_output@@AAE_NXZ 10038a24 f i libucrt:output.obj
 0001:00037a24       ?state_case_width@?$output_processor@_WV?$string_output_adapter@_W@__crt_stdio_output@@V?$standard_base@_WV?$string_output_adapter@_W@__crt_stdio_output@@@2@@__crt_stdio_output@@AAE_NXZ 10038a24 f i libucrt:output.obj
 0001:00037a50       ?to_integer_size@__crt_stdio_output@@YAIW4length_modifier@1@@Z 10038a50 f i libucrt:output.obj
 0001:00037aac       ?type_case_Z@?$output_processor@DV?$stream_output_adapter@D@__crt_stdio_output@@V?$standard_base@DV?$stream_output_adapter@D@__crt_stdio_output@@@2@@__crt_stdio_output@@AAE_NXZ 10038aac f i libucrt:output.obj
 0001:00037aac       ?type_case_Z@?$output_processor@DV?$string_output_adapter@D@__crt_stdio_output@@V?$format_validation_base@DV?$string_output_adapter@D@__crt_stdio_output@@@2@@__crt_stdio_output@@AAE_NXZ 10038aac f i libucrt:output.obj
 0001:00037aac       ?type_case_Z@?$output_processor@DV?$string_output_adapter@D@__crt_stdio_output@@V?$standard_base@DV?$string_output_adapter@D@__crt_stdio_output@@@2@@__crt_stdio_output@@AAE_NXZ 10038aac f i libucrt:output.obj
 0001:00037b0f       ?type_case_Z@?$output_processor@_WV?$string_output_adapter@_W@__crt_stdio_output@@V?$standard_base@_WV?$string_output_adapter@_W@__crt_stdio_output@@@2@@__crt_stdio_output@@AAE_NXZ 10038b0f f i libucrt:output.obj
 0001:00037b0f       ?type_case_Z@?$output_processor@_WV?$stream_output_adapter@_W@__crt_stdio_output@@V?$standard_base@_WV?$stream_output_adapter@_W@__crt_stdio_output@@@2@@__crt_stdio_output@@AAE_NXZ 10038b0f f i libucrt:output.obj
 0001:00037b72       ?type_case_a@?$output_processor@DV?$string_output_adapter@D@__crt_stdio_output@@V?$format_validation_base@DV?$string_output_adapter@D@__crt_stdio_output@@@2@@__crt_stdio_output@@AAE_NXZ 10038b72 f i libucrt:output.obj
 0001:00037b72       ?type_case_a@?$output_processor@DV?$stream_output_adapter@D@__crt_stdio_output@@V?$standard_base@DV?$stream_output_adapter@D@__crt_stdio_output@@@2@@__crt_stdio_output@@AAE_NXZ 10038b72 f i libucrt:output.obj
 0001:00037b72       ?type_case_a@?$output_processor@DV?$string_output_adapter@D@__crt_stdio_output@@V?$standard_base@DV?$string_output_adapter@D@__crt_stdio_output@@@2@@__crt_stdio_output@@AAE_NXZ 10038b72 f i libucrt:output.obj
 0001:00037ccc       ?type_case_a@?$output_processor@_WV?$string_output_adapter@_W@__crt_stdio_output@@V?$standard_base@_WV?$string_output_adapter@_W@__crt_stdio_output@@@2@@__crt_stdio_output@@AAE_NXZ 10038ccc f i libucrt:output.obj
 0001:00037ccc       ?type_case_a@?$output_processor@_WV?$stream_output_adapter@_W@__crt_stdio_output@@V?$standard_base@_WV?$stream_output_adapter@_W@__crt_stdio_output@@@2@@__crt_stdio_output@@AAE_NXZ 10038ccc f i libucrt:output.obj
 0001:00037e3e       ?type_case_c_tchar@?$output_processor@DV?$stream_output_adapter@D@__crt_stdio_output@@V?$standard_base@DV?$stream_output_adapter@D@__crt_stdio_output@@@2@@__crt_stdio_output@@AAE_ND@Z 10038e3e f i libucrt:output.obj
 0001:00037e3e       ?type_case_c_tchar@?$output_processor@DV?$string_output_adapter@D@__crt_stdio_output@@V?$format_validation_base@DV?$string_output_adapter@D@__crt_stdio_output@@@2@@__crt_stdio_output@@AAE_ND@Z 10038e3e f i libucrt:output.obj
 0001:00037e3e       ?type_case_c_tchar@?$output_processor@DV?$string_output_adapter@D@__crt_stdio_output@@V?$standard_base@DV?$string_output_adapter@D@__crt_stdio_output@@@2@@__crt_stdio_output@@AAE_ND@Z 10038e3e f i libucrt:output.obj
 0001:00037ece       ?type_case_c_tchar@?$output_processor@_WV?$string_output_adapter@_W@__crt_stdio_output@@V?$standard_base@_WV?$string_output_adapter@_W@__crt_stdio_output@@@2@@__crt_stdio_output@@AAE_N_W@Z 10038ece f i libucrt:output.obj
 0001:00037ece       ?type_case_c_tchar@?$output_processor@_WV?$stream_output_adapter@_W@__crt_stdio_output@@V?$standard_base@_WV?$stream_output_adapter@_W@__crt_stdio_output@@@2@@__crt_stdio_output@@AAE_N_W@Z 10038ece f i libucrt:output.obj
 0001:00037f66       ?type_case_integer@?$output_processor@DV?$string_output_adapter@D@__crt_stdio_output@@V?$standard_base@DV?$string_output_adapter@D@__crt_stdio_output@@@2@@__crt_stdio_output@@AAE_NI_N@Z 10038f66 f i libucrt:output.obj
 0001:00037f66       ?type_case_integer@?$output_processor@DV?$stream_output_adapter@D@__crt_stdio_output@@V?$standard_base@DV?$stream_output_adapter@D@__crt_stdio_output@@@2@@__crt_stdio_output@@AAE_NI_N@Z 10038f66 f i libucrt:output.obj
 0001:00037f66       ?type_case_integer@?$output_processor@DV?$string_output_adapter@D@__crt_stdio_output@@V?$format_validation_base@DV?$string_output_adapter@D@__crt_stdio_output@@@2@@__crt_stdio_output@@AAE_NI_N@Z 10038f66 f i libucrt:output.obj
 0001:00037f66       ?type_case_integer@?$output_processor@_WV?$stream_output_adapter@_W@__crt_stdio_output@@V?$standard_base@_WV?$stream_output_adapter@_W@__crt_stdio_output@@@2@@__crt_stdio_output@@AAE_NI_N@Z 10038f66 f i libucrt:output.obj
 0001:00037f66       ?type_case_integer@?$output_processor@_WV?$string_output_adapter@_W@__crt_stdio_output@@V?$standard_base@_WV?$string_output_adapter@_W@__crt_stdio_output@@@2@@__crt_stdio_output@@AAE_NI_N@Z 10038f66 f i libucrt:output.obj
 0001:000380b0       ?type_case_n@?$output_processor@_WV?$stream_output_adapter@_W@__crt_stdio_output@@V?$standard_base@_WV?$stream_output_adapter@_W@__crt_stdio_output@@@2@@__crt_stdio_output@@AAE_NXZ 100390b0 f i libucrt:output.obj
 0001:000380b0       ?type_case_n@?$output_processor@_WV?$string_output_adapter@_W@__crt_stdio_output@@V?$standard_base@_WV?$string_output_adapter@_W@__crt_stdio_output@@@2@@__crt_stdio_output@@AAE_NXZ 100390b0 f i libucrt:output.obj
 0001:000380b0       ?type_case_n@?$output_processor@DV?$string_output_adapter@D@__crt_stdio_output@@V?$format_validation_base@DV?$string_output_adapter@D@__crt_stdio_output@@@2@@__crt_stdio_output@@AAE_NXZ 100390b0 f i libucrt:output.obj
 0001:000380b0       ?type_case_n@?$output_processor@DV?$string_output_adapter@D@__crt_stdio_output@@V?$standard_base@DV?$string_output_adapter@D@__crt_stdio_output@@@2@@__crt_stdio_output@@AAE_NXZ 100390b0 f i libucrt:output.obj
 0001:000380b0       ?type_case_n@?$output_processor@DV?$stream_output_adapter@D@__crt_stdio_output@@V?$standard_base@DV?$stream_output_adapter@D@__crt_stdio_output@@@2@@__crt_stdio_output@@AAE_NXZ 100390b0 f i libucrt:output.obj
 0001:00038124       ?type_case_o@?$output_processor@DV?$string_output_adapter@D@__crt_stdio_output@@V?$format_validation_base@DV?$string_output_adapter@D@__crt_stdio_output@@@2@@__crt_stdio_output@@AAE_NXZ 10039124 f i libucrt:output.obj
 0001:00038124       ?type_case_o@?$output_processor@DV?$stream_output_adapter@D@__crt_stdio_output@@V?$standard_base@DV?$stream_output_adapter@D@__crt_stdio_output@@@2@@__crt_stdio_output@@AAE_NXZ 10039124 f i libucrt:output.obj
 0001:00038124       ?type_case_o@?$output_processor@_WV?$stream_output_adapter@_W@__crt_stdio_output@@V?$standard_base@_WV?$stream_output_adapter@_W@__crt_stdio_output@@@2@@__crt_stdio_output@@AAE_NXZ 10039124 f i libucrt:output.obj
 0001:00038124       ?type_case_o@?$output_processor@DV?$string_output_adapter@D@__crt_stdio_output@@V?$standard_base@DV?$string_output_adapter@D@__crt_stdio_output@@@2@@__crt_stdio_output@@AAE_NXZ 10039124 f i libucrt:output.obj
 0001:00038124       ?type_case_o@?$output_processor@_WV?$string_output_adapter@_W@__crt_stdio_output@@V?$standard_base@_WV?$string_output_adapter@_W@__crt_stdio_output@@@2@@__crt_stdio_output@@AAE_NXZ 10039124 f i libucrt:output.obj
 0001:00038143       ?type_case_p@?$output_processor@DV?$string_output_adapter@D@__crt_stdio_output@@V?$format_validation_base@DV?$string_output_adapter@D@__crt_stdio_output@@@2@@__crt_stdio_output@@AAE_NXZ 10039143 f i libucrt:output.obj
 0001:00038143       ?type_case_p@?$output_processor@_WV?$string_output_adapter@_W@__crt_stdio_output@@V?$standard_base@_WV?$string_output_adapter@_W@__crt_stdio_output@@@2@@__crt_stdio_output@@AAE_NXZ 10039143 f i libucrt:output.obj
 0001:00038143       ?type_case_p@?$output_processor@_WV?$stream_output_adapter@_W@__crt_stdio_output@@V?$standard_base@_WV?$stream_output_adapter@_W@__crt_stdio_output@@@2@@__crt_stdio_output@@AAE_NXZ 10039143 f i libucrt:output.obj
 0001:00038143       ?type_case_p@?$output_processor@DV?$stream_output_adapter@D@__crt_stdio_output@@V?$standard_base@DV?$stream_output_adapter@D@__crt_stdio_output@@@2@@__crt_stdio_output@@AAE_NXZ 10039143 f i libucrt:output.obj
 0001:00038143       ?type_case_p@?$output_processor@DV?$string_output_adapter@D@__crt_stdio_output@@V?$standard_base@DV?$string_output_adapter@D@__crt_stdio_output@@@2@@__crt_stdio_output@@AAE_NXZ 10039143 f i libucrt:output.obj
 0001:0003815b       ?type_case_s@?$output_processor@DV?$string_output_adapter@D@__crt_stdio_output@@V?$format_validation_base@DV?$string_output_adapter@D@__crt_stdio_output@@@2@@__crt_stdio_output@@AAE_NXZ 1003915b f i libucrt:output.obj
 0001:0003815b       ?type_case_s@?$output_processor@DV?$stream_output_adapter@D@__crt_stdio_output@@V?$standard_base@DV?$stream_output_adapter@D@__crt_stdio_output@@@2@@__crt_stdio_output@@AAE_NXZ 1003915b f i libucrt:output.obj
 0001:0003815b       ?type_case_s@?$output_processor@DV?$string_output_adapter@D@__crt_stdio_output@@V?$standard_base@DV?$string_output_adapter@D@__crt_stdio_output@@@2@@__crt_stdio_output@@AAE_NXZ 1003915b f i libucrt:output.obj
 0001:000381ce       ?type_case_s@?$output_processor@_WV?$stream_output_adapter@_W@__crt_stdio_output@@V?$standard_base@_WV?$stream_output_adapter@_W@__crt_stdio_output@@@2@@__crt_stdio_output@@AAE_NXZ 100391ce f i libucrt:output.obj
 0001:000381ce       ?type_case_s@?$output_processor@_WV?$string_output_adapter@_W@__crt_stdio_output@@V?$standard_base@_WV?$string_output_adapter@_W@__crt_stdio_output@@@2@@__crt_stdio_output@@AAE_NXZ 100391ce f i libucrt:output.obj
 0001:00038242       ?type_case_s_compute_narrow_string_length@?$output_processor@_WV?$string_output_adapter@_W@__crt_stdio_output@@V?$standard_base@_WV?$string_output_adapter@_W@__crt_stdio_output@@@2@@__crt_stdio_output@@ABEHH_W@Z 10039242 f i libucrt:output.obj
 0001:00038242       ?type_case_s_compute_narrow_string_length@?$output_processor@_WV?$stream_output_adapter@_W@__crt_stdio_output@@V?$standard_base@_WV?$stream_output_adapter@_W@__crt_stdio_output@@@2@@__crt_stdio_output@@ABEHH_W@Z 10039242 f i libucrt:output.obj
 0001:00038282       ?validate@?$stream_output_adapter@D@__crt_stdio_output@@QBE_NXZ 10039282 f i libucrt:output.obj
 0001:000382a3       ?validate_and_update_state_at_end_of_format_string@?$format_validation_base@DV?$string_output_adapter@D@__crt_stdio_output@@@__crt_stdio_output@@IBE_NXZ 100392a3 f i libucrt:output.obj
 0001:000382c5       ?validate_stream_is_ansi_if_required@?$__acrt_stdio_char_traits@D@@SA_NQAU_iobuf@@@Z 100392c5 f i libucrt:output.obj
 0001:00038347       ?write_character@?$stream_output_adapter@D@__crt_stdio_output@@QBEXDQAH@Z 10039347 f i libucrt:output.obj
 0001:00038384       ?write_character@?$stream_output_adapter@_W@__crt_stdio_output@@QBEX_WQAH@Z 10039384 f i libucrt:output.obj
 0001:000383c4       ?write_character@?$string_output_adapter@D@__crt_stdio_output@@QBE_NDQAH@Z 100393c4 f i libucrt:output.obj
 0001:00038406       ?write_character@?$string_output_adapter@_W@__crt_stdio_output@@QBE_N_WQAH@Z 10039406 f i libucrt:output.obj
 0001:0003844b       ?write_stored_string_tchar@?$output_processor@DV?$stream_output_adapter@D@__crt_stdio_output@@V?$standard_base@DV?$stream_output_adapter@D@__crt_stdio_output@@@2@@__crt_stdio_output@@AAE_ND@Z 1003944b f i libucrt:output.obj
 0001:000384f2       ?write_stored_string_tchar@?$output_processor@DV?$string_output_adapter@D@__crt_stdio_output@@V?$standard_base@DV?$string_output_adapter@D@__crt_stdio_output@@@2@@__crt_stdio_output@@AAE_ND@Z 100394f2 f i libucrt:output.obj
 0001:000384f2       ?write_stored_string_tchar@?$output_processor@DV?$string_output_adapter@D@__crt_stdio_output@@V?$format_validation_base@DV?$string_output_adapter@D@__crt_stdio_output@@@2@@__crt_stdio_output@@AAE_ND@Z 100394f2 f i libucrt:output.obj
 0001:00038599       ?write_stored_string_tchar@?$output_processor@_WV?$stream_output_adapter@_W@__crt_stdio_output@@V?$standard_base@_WV?$stream_output_adapter@_W@__crt_stdio_output@@@2@@__crt_stdio_output@@AAE_N_W@Z 10039599 f i libucrt:output.obj
 0001:00038624       ?write_stored_string_tchar@?$output_processor@_WV?$string_output_adapter@_W@__crt_stdio_output@@V?$standard_base@_WV?$string_output_adapter@_W@__crt_stdio_output@@@2@@__crt_stdio_output@@AAE_N_W@Z 10039624 f i libucrt:output.obj
 0001:000386af       ?write_string@?$stream_output_adapter@D@__crt_stdio_output@@QBEXQBDHQAH1@Z 100396af f i libucrt:output.obj
 0001:00038739       ?write_string@?$stream_output_adapter@_W@__crt_stdio_output@@QBEXQB_WHQAH1@Z 10039739 f i libucrt:output.obj
 0001:000387c6       ?write_string@?$string_output_adapter@D@__crt_stdio_output@@QBEXQBDHQAH1@Z 100397c6 f i libucrt:output.obj
 0001:00038859       ?write_string@?$string_output_adapter@_W@__crt_stdio_output@@QBEXQB_WHQAH1@Z 10039859 f i libucrt:output.obj
 0001:000388f3       ___stdio_common_vfprintf   100398f3 f   libucrt:output.obj
 0001:0003896a       ___stdio_common_vfwprintf  1003996a f   libucrt:output.obj
 0001:000389e1       ___stdio_common_vsnprintf_s 100399e1 f   libucrt:output.obj
 0001:00038a08       ___stdio_common_vsprintf   10039a08 f   libucrt:output.obj
 0001:00038a2c       ___stdio_common_vswprintf  10039a2c f   libucrt:output.obj
 0001:00038a50       _abort                     10039a50 f   libucrt:abort.obj
 0001:00038a93       ___acrt_initialize_stdio   10039a93 f   libucrt:_file.obj
 0001:00038b5b       ___acrt_iob_func           10039b5b f   libucrt:_file.obj
 0001:00038b6b       ___acrt_uninitialize_stdio 10039b6b f   libucrt:_file.obj
 0001:00038bb7       __lock_file                10039bb7 f   libucrt:_file.obj
 0001:00038bcb       __unlock_file              10039bcb f   libucrt:_file.obj
 0001:00038c5c       ??Rthread_parameter_free_policy@?A0xe57bf005@@QAEXQAU__acrt_thread_parameter@@@Z 10039c5c f i libucrt:thread.obj
 0001:00038d33       __beginthreadex            10039d33 f   libucrt:thread.obj
 0001:00038db8       __endthreadex              10039db8 f   libucrt:thread.obj
 0001:00038e87       _fopen                     10039e87 f   libucrt:fopen.obj
 0001:00038e9e       __fclose_nolock            10039e9e f   libucrt:fclose.obj
 0001:00038f14       _fclose                    10039f14 f   libucrt:fclose.obj
 0001:00038f94       ___acrt_errno_from_os_error 10039f94 f   libucrt:errno.obj
 0001:00038fd7       ___acrt_errno_map_os_error 10039fd7 f   libucrt:errno.obj
 0001:00038ffa       ___doserrno                10039ffa f   libucrt:errno.obj
 0001:0003900d       __errno                    1003a00d f   libucrt:errno.obj
 0001:0003909c       __get_sys_err_msg          1003a09c f i libucrt:strerror.obj
 0001:000390c0       _strerror                  1003a0c0 f   libucrt:strerror.obj
 0001:000390cb       ___acrt_stdio_flush_nolock 1003a0cb f   libucrt:fflush.obj
 0001:00039131       __fflush_nolock            1003a131 f   libucrt:fflush.obj
 0001:00039178       __flushall                 1003a178 f   libucrt:fflush.obj
 0001:00039259       _fflush                    1003a259 f   libucrt:fflush.obj
 0001:000392b2       ??$?RV<lambda_11b4f7b0d3157825a5656a18eba1ae27>@@AAV<lambda_b51c0495177f500e782686251704ae76>@@V<lambda_cf89b47920b5017557bfe891e78aca36>@@@?$__crt_seh_guarded_call@I@@QAEI$$QAV<lambda_11b4f7b0d3157825a5656a18eba1ae27>@@AAV<lambda_b51c0495177f500e782686251704ae76>@@$$QAV<lambda_cf89b47920b5017557bfe891e78aca36>@@@Z 1003a2b2 f i libucrt:fwrite.obj
 0001:00039303       ??$__acrt_lock_stream_and_call@V<lambda_b51c0495177f500e782686251704ae76>@@@@YAIQAU_iobuf@@$$QAV<lambda_b51c0495177f500e782686251704ae76>@@@Z 1003a303 f i libucrt:fwrite.obj
 0001:00039371       __fwrite_nolock            1003a371 f   libucrt:fwrite.obj
 0001:000394ea       _fwrite                    1003a4ea f   libucrt:fwrite.obj
 0001:00039542       ___acrt_initialize_new_handler 1003a542 f   libucrt:new_handler.obj
 0001:00039556       __callnewh                 1003a556 f   libucrt:new_handler.obj
 0001:0003959a       __query_new_handler        1003a59a f   libucrt:new_handler.obj
 0001:000395ec       __seh_filter_dll           1003a5ec f   libucrt:exception_filter.obj
 0001:0003960c       __seh_filter_exe           1003a60c f   libucrt:exception_filter.obj
 0001:0003999a       ___acrt_initialize_thread_local_exit_callback 1003a99a f   libucrt:exit.obj
 0001:000399a9       __cexit                    1003a9a9 f   libucrt:exit.obj
 0001:000399b8       __exit                     1003a9b8 f   libucrt:exit.obj
 0001:000399ce       __is_c_termination_complete 1003a9ce f   libucrt:exit.obj
 0001:00039c6d       ___acrt_allocate_buffer_for_argv 1003ac6d f   libucrt:argv_parsing.obj
 0001:00039cc2       __configure_narrow_argv    1003acc2 f   libucrt:argv_parsing.obj
 0001:00039e26       ??$uninitialize@A6AXAAPAPAD@Z@?$dual_state_global@PAPAD@__crt_state_management@@QAEXA6AXAAPAPAD@Z@Z 1003ae26 f i libucrt:environment_initialization.obj
 0001:00039e26       ??$uninitialize@A6AXAAPAPA_W@Z@?$dual_state_global@PAPA_W@__crt_state_management@@QAEXA6AXAAPAPA_W@Z@Z 1003ae26 f i libucrt:environment_initialization.obj
 0001:00039e9c       ___dcrt_uninitialize_environments_nolock 1003ae9c f   libucrt:environment_initialization.obj
 0001:00039ed3       __initialize_narrow_environment 1003aed3 f   libucrt:environment_initialization.obj
 0001:00039ed8       ??$?RV<lambda_800076c951b434888f4765a74a194fcc>@@AAV<lambda_4e60a939b0d047cfe11ddc22648dfba9>@@V<lambda_6dbb1268764f43b569ce7b67e331d33a>@@@?$__crt_seh_guarded_call@H@@QAEH$$QAV<lambda_800076c951b434888f4765a74a194fcc>@@AAV<lambda_4e60a939b0d047cfe11ddc22648dfba9>@@$$QAV<lambda_6dbb1268764f43b569ce7b67e331d33a>@@@Z 1003aed8 f i libucrt:onexit.obj
 0001:00039f29       ??$?RV<lambda_995298e7d72eb4c2aab26c0585b3abe5>@@AAV<lambda_275893d493268fdec8709772e3fcec0e>@@V<lambda_293819299cbf9a7022e18b56a874bb5c>@@@?$__crt_seh_guarded_call@H@@QAEH$$QAV<lambda_995298e7d72eb4c2aab26c0585b3abe5>@@AAV<lambda_275893d493268fdec8709772e3fcec0e>@@$$QAV<lambda_293819299cbf9a7022e18b56a874bb5c>@@@Z 1003af29 f i libucrt:onexit.obj
 0001:00039f7a       ??$__acrt_lock_and_call@V<lambda_275893d493268fdec8709772e3fcec0e>@@@@YAHW4__acrt_lock_id@@$$QAV<lambda_275893d493268fdec8709772e3fcec0e>@@@Z 1003af7a f i libucrt:onexit.obj
 0001:00039fa2       ??$__acrt_lock_and_call@V<lambda_4e60a939b0d047cfe11ddc22648dfba9>@@@@YAHW4__acrt_lock_id@@$$QAV<lambda_4e60a939b0d047cfe11ddc22648dfba9>@@@Z 1003afa2 f i libucrt:onexit.obj
 0001:00039fca       ??$__crt_fast_encode_pointer@P6AHXZ@@YAP6AHXZQ6AHXZ@Z 1003afca f i libucrt:onexit.obj
 0001:0003a24a       __crt_atexit               1003b24a f   libucrt:onexit.obj
 0001:0003a260       __execute_onexit_table     1003b260 f   libucrt:onexit.obj
 0001:0003a27d       __initialize_onexit_table  1003b27d f   libucrt:onexit.obj
 0001:0003a2ba       __register_onexit_function 1003b2ba f   libucrt:onexit.obj
 0001:0003a312       ___acrt_uninitialize_command_line 1003b312 f   libucrt:argv_data.obj
 0001:0003a3d2       ___acrt_initialize         1003b3d2 f   libucrt:initialization.obj
 0001:0003a3e4       ___acrt_thread_attach      1003b3e4 f   libucrt:initialization.obj
 0001:0003a3ef       ___acrt_thread_detach      1003b3ef f   libucrt:initialization.obj
 0001:0003a3f7       ___acrt_uninitialize       1003b3f7 f   libucrt:initialization.obj
 0001:0003a409       ___acrt_uninitialize_critical 1003b409 f   libucrt:initialization.obj
 0001:0003a41b       __initterm                 1003b41b f   libucrt:initterm.obj
 0001:0003a477       __initterm_e               1003b477 f   libucrt:initterm.obj
 0001:0003a4bc       _terminate                 1003b4bc f   libucrt:terminate.obj
 0001:0003a4f8       _strcpy_s                  1003b4f8 f   libucrt:strcpy_s.obj
 0001:0003a552       __free_base                1003b552 f   libucrt:free_base.obj
 0001:0003a58c       __malloc_base              1003b58c f   libucrt:malloc_base.obj
 0001:0003a5da       __calloc_base              1003b5da f   libucrt:calloc_base.obj
 0001:0003a637       ??$is_overflow_condition@K@__crt_strtox@@YA_NIK@Z 1003b637 f i libucrt:atox.obj
 0001:0003a66a       ??$parse_integer@KV?$c_string_character_source@D@__crt_strtox@@@__crt_strtox@@YAKQAU__crt_locale_pointers@@V?$c_string_character_source@D@0@H_N@Z 1003b66a f i libucrt:atox.obj
 0001:0003a892       ??$parse_integer@KV?$c_string_character_source@_W@__crt_strtox@@@__crt_strtox@@YAKQAU__crt_locale_pointers@@V?$c_string_character_source@_W@0@H_N@Z 1003b892 f i libucrt:atox.obj
 0001:0003af77       ?unget@?$c_string_character_source@D@__crt_strtox@@QAEXD@Z 1003bf77 f i libucrt:atox.obj
 0001:0003af9f       ?unget@?$c_string_character_source@_W@__crt_strtox@@QAEX_W@Z 1003bf9f f i libucrt:atox.obj
 0001:0003afcb       ?validate@?$string_output_adapter@D@__crt_stdio_output@@QBE_NXZ 1003bfcb f i libucrt:output.obj
 0001:0003afcb       ?validate@?$stream_output_adapter@_W@__crt_stdio_output@@QBE_NXZ 1003bfcb f i libucrt:output.obj
 0001:0003afcb       ?validate@?$c_string_character_source@D@__crt_strtox@@QBE_NXZ 1003bfcb f i libucrt:atox.obj
 0001:0003afcb       ?validate@?$c_string_character_source@_W@__crt_strtox@@QBE_NXZ 1003bfcb f i libucrt:atox.obj
 0001:0003afcb       ?validate@?$string_output_adapter@_W@__crt_stdio_output@@QBE_NXZ 1003bfcb f i libucrt:output.obj
 0001:0003afe6       __chvalidchk_l             1003bfe6 f i libucrt:atox.obj
 0001:0003b010       __ischartype_l             1003c010 f i libucrt:atox.obj
 0001:0003b043       __query_app_type           1003c043 f   libucrt:report_runtime_error.obj
 0001:0003b136       __itow_s                   1003c136 f   libucrt:xtoa.obj
 0001:0003b16b       __set_error_mode           1003c16b f   libucrt:set_error_mode.obj
 0001:0003b1aa       _wcscat_s                  1003c1aa f   libucrt:wcscat_s.obj
 0001:0003b21f       _wcscpy_s                  1003c21f f   libucrt:wcscpy_s.obj
 0001:0003b36c       _wcsncat_s                 1003c36c f   libucrt:wcsncat_s.obj
 0001:0003b472       ___acrt_show_wide_message_box 1003c472 f   libucrt:crtmbox.obj
 0001:0003b47d       ??$?RV<lambda_d92cfe8357b99225085016881b624cb0>@@AAV<lambda_b721fa326cdb32351d23dfa67958c160>@@V<lambda_42d75b0848218ec137fa420c8ba9fdf9>@@@?$__crt_seh_guarded_call@H@@QAEH$$QAV<lambda_d92cfe8357b99225085016881b624cb0>@@AAV<lambda_b721fa326cdb32351d23dfa67958c160>@@$$QAV<lambda_42d75b0848218ec137fa420c8ba9fdf9>@@@Z 1003c47d f i libucrt:setvbuf.obj
 0001:0003b4ce       ??$__acrt_lock_stream_and_call@V<lambda_b721fa326cdb32351d23dfa67958c160>@@@@YAHQAU_iobuf@@$$QAV<lambda_b721fa326cdb32351d23dfa67958c160>@@@Z 1003c4ce f i libucrt:setvbuf.obj
 0001:0003b5c3       _setvbuf                   1003c5c3 f   libucrt:setvbuf.obj
 0001:0003b639       ??$?RV<lambda_a048d3beccc847880fc8490e18b82769>@@AAV<lambda_ec61778202f4f5fc7e7711acc23c3bca>@@V<lambda_f7496a158712204296dd6628a163878e>@@@?$__crt_seh_guarded_call@P6AXH@Z@@QAEP6AXH@Z$$QAV<lambda_a048d3beccc847880fc8490e18b82769>@@AAV<lambda_ec61778202f4f5fc7e7711acc23c3bca>@@$$QAV<lambda_f7496a158712204296dd6628a163878e>@@@Z 1003c639 f i libucrt:signal.obj
 0001:0003b693       ??$__acrt_lock_and_call@V<lambda_ec61778202f4f5fc7e7711acc23c3bca>@@@@YAP6AXH@ZW4__acrt_lock_id@@$$QAV<lambda_ec61778202f4f5fc7e7711acc23c3bca>@@@Z 1003c693 f i libucrt:signal.obj
 0001:0003b725       ___acrt_get_sigabrt_handler 1003c725 f   libucrt:signal.obj
 0001:0003b73c       ___acrt_initialize_signal_handlers 1003c73c f   libucrt:signal.obj
 0001:0003b777       ___fpecode                 1003c777 f   libucrt:signal.obj
 0001:0003b780       _raise                     1003c780 f   libucrt:signal.obj
 0001:0003b988       ??$?RV<lambda_3518db117f0e7cdb002338c5d3c47b6c>@@AAV<lambda_b2ea41f6bbb362cd97d94c6828d90b61>@@V<lambda_abdedf541bb04549bc734292b4a045d4>@@@?$__crt_seh_guarded_call@X@@QAEX$$QAV<lambda_3518db117f0e7cdb002338c5d3c47b6c>@@AAV<lambda_b2ea41f6bbb362cd97d94c6828d90b61>@@$$QAV<lambda_abdedf541bb04549bc734292b4a045d4>@@@Z 1003c988 f i libucrt:per_thread_data.obj
 0001:0003b9d8       ??$?RV<lambda_51b6e8b1eb166f2a3faf91f424b38130>@@AAV<lambda_6250bd4b2a391816dd638c3bf72b0bcb>@@V<lambda_0b5a4a3e68152e1d9b943535f5f47bed>@@@?$__crt_seh_guarded_call@X@@QAEX$$QAV<lambda_51b6e8b1eb166f2a3faf91f424b38130>@@AAV<lambda_6250bd4b2a391816dd638c3bf72b0bcb>@@$$QAV<lambda_0b5a4a3e68152e1d9b943535f5f47bed>@@@Z 1003c9d8 f i libucrt:per_thread_data.obj
 0001:0003ba39       ??$?RV<lambda_5b71d36f03204c0beab531769a5b5694>@@AAV<lambda_be2b3da3f62db62e9dad5dc70221a656>@@V<lambda_8f9ce462984622f9bf76b59e2aaaf805>@@@?$__crt_seh_guarded_call@X@@QAEX$$QAV<lambda_5b71d36f03204c0beab531769a5b5694>@@AAV<lambda_be2b3da3f62db62e9dad5dc70221a656>@@$$QAV<lambda_8f9ce462984622f9bf76b59e2aaaf805>@@@Z 1003ca39 f i libucrt:per_thread_data.obj
 0001:0003ba84       ??$?RV<lambda_9df27f884b057bc3edfc946cb5b7cf47>@@AAV<lambda_e69574bed617af4e071282c136b37893>@@V<lambda_cc0d902bcbbeb830f749456577db4721>@@@?$__crt_seh_guarded_call@X@@QAEX$$QAV<lambda_9df27f884b057bc3edfc946cb5b7cf47>@@AAV<lambda_e69574bed617af4e071282c136b37893>@@$$QAV<lambda_cc0d902bcbbeb830f749456577db4721>@@@Z 1003ca84 f i libucrt:per_thread_data.obj
 0001:0003bacc       ??$__acrt_lock_and_call@V<lambda_6250bd4b2a391816dd638c3bf72b0bcb>@@@@YAXW4__acrt_lock_id@@$$QAV<lambda_6250bd4b2a391816dd638c3bf72b0bcb>@@@Z 1003cacc f i libucrt:per_thread_data.obj
 0001:0003baf4       ??$__acrt_lock_and_call@V<lambda_b2ea41f6bbb362cd97d94c6828d90b61>@@@@YAXW4__acrt_lock_id@@$$QAV<lambda_b2ea41f6bbb362cd97d94c6828d90b61>@@@Z 1003caf4 f i libucrt:per_thread_data.obj
 0001:0003bb1c       ??$__acrt_lock_and_call@V<lambda_be2b3da3f62db62e9dad5dc70221a656>@@@@YAXW4__acrt_lock_id@@$$QAV<lambda_be2b3da3f62db62e9dad5dc70221a656>@@@Z 1003cb1c f i libucrt:per_thread_data.obj
 0001:0003bb44       ??$__acrt_lock_and_call@V<lambda_e69574bed617af4e071282c136b37893>@@@@YAXW4__acrt_lock_id@@$$QAV<lambda_e69574bed617af4e071282c136b37893>@@@Z 1003cb44 f i libucrt:per_thread_data.obj
 0001:0003bcfa       ___acrt_freeptd            1003ccfa f   libucrt:per_thread_data.obj
 0001:0003bd26       ___acrt_getptd             1003cd26 f   libucrt:per_thread_data.obj
 0001:0003bdaa       ___acrt_getptd_noexit      1003cdaa f   libucrt:per_thread_data.obj
 0001:0003be2f       ___acrt_initialize_ptd     1003ce2f f   libucrt:per_thread_data.obj
 0001:0003be5b       ___acrt_uninitialize_ptd   1003ce5b f   libucrt:per_thread_data.obj
 0001:0003bfdc       __tolower_l                1003cfdc f   libucrt:tolower_toupper.obj
 0001:0003bff6       _tolower                   1003cff6 f   libucrt:tolower_toupper.obj
 0001:0003c026       ___acrt_update_locale_info 1003d026 f   libucrt:locale_update.obj
 0001:0003c053       ___acrt_update_multibyte_info 1003d053 f   libucrt:locale_update.obj
 0001:0003c080       ___acrt_set_locale_changed 1003d080 f   libucrt:wsetlocale.obj
 0001:0003c08b       ___acrt_uninitialize_locale 1003d08b f   libucrt:wsetlocale.obj
 0001:0003c0dd       __isdigit_l                1003d0dd f i libucrt:_ctype.obj
 0001:0003c115       _isdigit                   1003d115 f i libucrt:_ctype.obj
 0001:0003c142       ??$make_c_string_character_source@DPAPAD@__crt_strtox@@YA?AV?$c_string_character_source@D@0@QBDQAPAD@Z 1003d142 f i libucrt:strtox.obj
 0001:0003c142       ??$make_c_string_character_source@_WPAPA_W@__crt_strtox@@YA?AV?$c_string_character_source@_W@0@QB_WQAPA_W@Z 1003d142 f i libucrt:strtox.obj
 0001:0003c15d       _strtol                    1003d15d f   libucrt:strtox.obj
 0001:0003c189       _wcstol                    1003d189 f   libucrt:strtox.obj
 0001:0003c1b5       __mbtowc_l                 1003d1b5 f   libucrt:mbtowc.obj
 0001:0003c2af       _mbtowc                    1003d2af f   libucrt:mbtowc.obj
 0001:0003c2c9       __wctomb_s_l               1003d2c9 f   libucrt:wctomb.obj
 0001:0003c3ea       _wctomb_s                  1003d3ea f   libucrt:wctomb.obj
 0001:0003c407       _strnlen                   1003d407 f   libucrt:strnlen.obj
 0001:0003c52e       _wcsnlen                   1003d52e f   libucrt:strnlen.obj
 0001:0003c6e5       ?__acrt_fp_classify@@YA?AW4__acrt_fp_class@@ABN@Z 1003d6e5 f i libucrt:cvt.obj
 0001:0003c751       ?__acrt_fp_is_negative@@YA_NABN@Z 1003d751 f i libucrt:cvt.obj
 0001:0003cfb0       ___acrt_fp_format          1003dfb0 f   libucrt:cvt.obj
 0001:0003d12c       __fputwc_nolock            1003e12c f   libucrt:fputwc.obj
 0001:0003d252       __fileno                   1003e252 f   libucrt:fileno.obj
 0001:0003d278       __fputc_nolock             1003e278 f   libucrt:fputc.obj
 0001:0003d2a1       __get_printf_count_output  1003e2a1 f   libucrt:printf_count_output.obj
 0001:0003d2b6       ___acrt_stdio_begin_temporary_buffering_nolock 1003e2b6 f   libucrt:_sftbuf.obj
 0001:0003d36b       ___acrt_stdio_end_temporary_buffering_nolock 1003e36b f   libucrt:_sftbuf.obj
 0001:0003d510       ___acrt_initialize_lowio   1003e510 f   libucrt:ioinit.obj
 0001:0003d566       ___acrt_uninitialize_lowio 1003e566 f   libucrt:ioinit.obj
 0001:0003d6dd       ___acrt_AreFileApisANSI@0  1003e6dd f   libucrt:winapi_thunks.obj
 0001:0003d72b       ___acrt_FlsAlloc@4         1003e72b f   libucrt:winapi_thunks.obj
 0001:0003d781       ___acrt_FlsFree@4          1003e781 f   libucrt:winapi_thunks.obj
 0001:0003d7d7       ___acrt_FlsGetValue@4      1003e7d7 f   libucrt:winapi_thunks.obj
 0001:0003d82d       ___acrt_FlsSetValue@8      1003e82d f   libucrt:winapi_thunks.obj
 0001:0003d886       ___acrt_InitializeCriticalSectionEx@12 1003e886 f   libucrt:winapi_thunks.obj
 0001:0003d8e8       ___acrt_LCMapStringEx@36   1003e8e8 f   libucrt:winapi_thunks.obj
 0001:0003d970       ___acrt_LocaleNameToLCID@8 1003e970 f   libucrt:winapi_thunks.obj
 0001:0003d9cc       ___acrt_MessageBoxW@16     1003e9cc f   libucrt:winapi_thunks.obj
 0001:0003da15       ___acrt_RoInitialize@4     1003ea15 f   libucrt:winapi_thunks.obj
 0001:0003da67       ___acrt_RoUninitialize@0   1003ea67 f   libucrt:winapi_thunks.obj
 0001:0003dab0       ___acrt_can_show_message_box 1003eab0 f   libucrt:winapi_thunks.obj
 0001:0003dac9       ___acrt_get_parent_window  1003eac9 f   libucrt:winapi_thunks.obj
 0001:0003db48       ___acrt_initialize_winapi_thunks 1003eb48 f   libucrt:winapi_thunks.obj
 0001:0003db6e       ___acrt_is_interactive     1003eb6e f   libucrt:winapi_thunks.obj
 0001:0003dc14       ___acrt_is_packaged_app    1003ec14 f   libucrt:winapi_thunks.obj
 0001:0003dc9b       ___acrt_uninitialize_winapi_thunks 1003ec9b f   libucrt:winapi_thunks.obj
 0001:0003dcd1       __fcloseall                1003ecd1 f   libucrt:closeall.obj
 0001:0003dd71       ___acrt_stdio_free_buffer_nolock 1003ed71 f   libucrt:_freebuf.obj
 0001:0003ddaf       ?__acrt_stdio_allocate_stream@@YA?AV__crt_stdio_stream@@XZ 1003edaf f   libucrt:stream.obj
 0001:0003de0e       ?__acrt_stdio_free_stream@@YAXV__crt_stdio_stream@@@Z 1003ee0e f   libucrt:stream.obj
 0001:0003df0c       ??$__acrt_stdio_parse_mode@D@@YA?AU__acrt_stdio_stream_mode@@QBD@Z 1003ef0c f i libucrt:openfile.obj
 0001:0003e1c3       ?__acrt_stdio_parse_mode_D@@YA_NAAU__acrt_stdio_stream_mode@@@Z 1003f1c3 f i libucrt:openfile.obj
 0001:0003e1de       ?__acrt_stdio_parse_mode_T@@YA_NAAU__acrt_stdio_stream_mode@@@Z 1003f1de f i libucrt:openfile.obj
 0001:0003e1fd       ?__acrt_stdio_parse_mode_b@@YA_NAAU__acrt_stdio_stream_mode@@@Z 1003f1fd f i libucrt:openfile.obj
 0001:0003e21d       ?__acrt_stdio_parse_mode_c@@YA_NAAU__acrt_stdio_stream_mode@@AA_N@Z 1003f21d f i libucrt:openfile.obj
 0001:0003e23f       ?__acrt_stdio_parse_mode_n@@YA_NAAU__acrt_stdio_stream_mode@@AA_N@Z 1003f23f f i libucrt:openfile.obj
 0001:0003e261       ?__acrt_stdio_parse_mode_plus@@YA_NAAU__acrt_stdio_stream_mode@@AA_N@Z 1003f261 f i libucrt:openfile.obj
 0001:0003e296       ?__acrt_stdio_parse_mode_t@@YA_NAAU__acrt_stdio_stream_mode@@@Z 1003f296 f i libucrt:openfile.obj
 0001:0003e2b6       __openfile                 1003f2b6 f   libucrt:openfile.obj
 0001:0003e2c1       ??$?RV<lambda_123407a5e2ac06da108355a851863b7a>@@AAV<lambda_2fe9b910cf3cbf4a0ab98a02ba45b3ec>@@V<lambda_ae55bdf541ad94d75914d381c370e64d>@@@?$__crt_seh_guarded_call@H@@QAEH$$QAV<lambda_123407a5e2ac06da108355a851863b7a>@@AAV<lambda_2fe9b910cf3cbf4a0ab98a02ba45b3ec>@@$$QAV<lambda_ae55bdf541ad94d75914d381c370e64d>@@@Z 1003f2c1 f i libucrt:close.obj
 0001:0003e343       ??$__acrt_lowio_lock_fh_and_call@V<lambda_2fe9b910cf3cbf4a0ab98a02ba45b3ec>@@@@YAHH$$QAV<lambda_2fe9b910cf3cbf4a0ab98a02ba45b3ec>@@@Z 1003f343 f i libucrt:close.obj
 0001:0003e36b       __close                    1003f36b f   libucrt:close.obj
 0001:0003e3ea       __close_nolock             1003f3ea f   libucrt:close.obj
 0001:0003e486       ___sys_errlist             1003f486 f   libucrt:syserr.obj
 0001:0003e48c       ___sys_nerr                1003f48c f   libucrt:syserr.obj
 0001:0003e543       _strncpy_s                 1003f543 f   libucrt:strncpy_s.obj
 0001:0003e54e       ___acrt_initialize_locks   1003f54e f   libucrt:locks.obj
 0001:0003e58f       ___acrt_lock               1003f58f f   libucrt:locks.obj
 0001:0003e5a6       ___acrt_uninitialize_locks 1003f5a6 f   libucrt:locks.obj
 0001:0003e5d7       ___acrt_unlock             1003f5d7 f   libucrt:locks.obj
 0001:0003e5ee       ??$?RV<lambda_61cee617f5178ae960314fd4d05640a0>@@AAV<lambda_6978c1fb23f02e42e1d9e99668cc68aa>@@V<lambda_9cd88cf8ad10232537feb2133f08c833>@@@?$__crt_seh_guarded_call@H@@QAEH$$QAV<lambda_61cee617f5178ae960314fd4d05640a0>@@AAV<lambda_6978c1fb23f02e42e1d9e99668cc68aa>@@$$QAV<lambda_9cd88cf8ad10232537feb2133f08c833>@@@Z 1003f5ee f i libucrt:commit.obj
 0001:0003e686       ??$__acrt_lowio_lock_fh_and_call@V<lambda_6978c1fb23f02e42e1d9e99668cc68aa>@@@@YAHH$$QAV<lambda_6978c1fb23f02e42e1d9e99668cc68aa>@@@Z 1003f686 f i libucrt:commit.obj
 0001:0003e6ae       __commit                   1003f6ae f   libucrt:commit.obj
 0001:0003ecad       __write                    1003fcad f   libucrt:write.obj
 0001:0003ed98       __write_nolock             1003fd98 f   libucrt:write.obj
 0001:0003f36a       ___acrt_stdio_flush_and_write_narrow_nolock 1004036a f   libucrt:_flsbuf.obj
 0001:0003f375       ___acrt_stdio_flush_and_write_wide_nolock 10040375 f   libucrt:_flsbuf.obj
 0001:0003f742       ??1?$argument_list@D@?A0xb0e4b824@@QAE@XZ 10040742 f i libucrt:argv_wildcards.obj
 0001:0003f767       ?append@?$argument_list@D@?A0xb0e4b824@@QAEHQAD@Z 10040767 f i libucrt:argv_wildcards.obj
 0001:0003f79c       ?expand_if_necessary@?$argument_list@D@?A0xb0e4b824@@AAEHXZ 1004079c f i libucrt:argv_wildcards.obj
 0001:0003f823       ___acrt_expand_narrow_argv_wildcards 10040823 f   libucrt:argv_wildcards.obj
 0001:0003f82e       ??$?RV<lambda_978dc153c237d78434369da87b74ff60>@@AAV<lambda_ad1ced32f4ac17aa236e5ef05d6b3b7c>@@V<lambda_4a8533e2866a575feecb8298ce776b0d>@@@?$__crt_seh_guarded_call@X@@QAEX$$QAV<lambda_978dc153c237d78434369da87b74ff60>@@AAV<lambda_ad1ced32f4ac17aa236e5ef05d6b3b7c>@@$$QAV<lambda_4a8533e2866a575feecb8298ce776b0d>@@@Z 1004082e f i libucrt:mbctype.obj
 0001:0003f871       ??$__acrt_lock_and_call@V<lambda_ad1ced32f4ac17aa236e5ef05d6b3b7c>@@@@YAXW4__acrt_lock_id@@$$QAV<lambda_ad1ced32f4ac17aa236e5ef05d6b3b7c>@@@Z 10040871 f i libucrt:mbctype.obj
 0001:0003fd08       ___acrt_initialize_multibyte 10040d08 f   libucrt:mbctype.obj
 0001:0003fd26       ___acrt_update_thread_multibyte_data 10040d26 f   libucrt:mbctype.obj
 0001:0003fdc8       __setmbcp_nolock           10040dc8 f   libucrt:mbctype.obj
 0001:00040093       __ismbblead                10041093 f   libucrt:ismbbyte.obj
 0001:000400ab       ___acrt_initialize_command_line 100410ab f   libucrt:argv_data.obj
 0001:000400fb       ___dcrt_get_narrow_environment_from_os 100410fb f   libucrt:get_environment_from_os.obj
 0001:0004017e       __recalloc                 1004117e f   libucrt:recalloc.obj
 0001:00040189       __recalloc_base            10041189 f   libucrt:recalloc.obj
 0001:000401f6       ___acrt_initialize_heap    100411f6 f   libucrt:heap_handle.obj
 0001:00040207       ___acrt_uninitialize_heap  10041207 f   libucrt:heap_handle.obj
 0001:00040211       ___acrt_execute_initializers 10041211 f   libucrt:shared_initialization.obj
 0001:00040294       ___acrt_execute_uninitializers 10041294 f   libucrt:shared_initialization.obj
 0001:000402e1       ___acrt_has_user_matherr   100412e1 f   libucrt:matherr.obj
 0001:000402fa       ___acrt_initialize_user_matherr 100412fa f   libucrt:matherr.obj
 0001:0004030e       ___acrt_invoke_user_matherr 1004130e f   libucrt:matherr.obj
 0001:00040357       __query_new_mode           10041357 f   libucrt:new_mode.obj
 0001:0004035d       ___pctype_func             1004135d f   libucrt:ctype.obj
 0001:00040383       _iswctype                  10041383 f   libucrt:iswctype.obj
 0001:000403e2       __isctype_l                100413e2 f   libucrt:isctype.obj
 0001:000404b4       ___acrt_add_locale_ref     100414b4 f   libucrt:locale_refcounting.obj
 0001:00040531       ___acrt_free_locale        10041531 f   libucrt:locale_refcounting.obj
 0001:0004067b       ___acrt_locale_add_lc_time_reference 1004167b f   libucrt:locale_refcounting.obj
 0001:000406a4       ___acrt_locale_free_lc_time_if_unreferenced 100416a4 f   libucrt:locale_refcounting.obj
 0001:000406d4       ___acrt_locale_release_lc_time_reference 100416d4 f   libucrt:locale_refcounting.obj
 0001:000406fd       ___acrt_release_locale_ref 100416fd f   libucrt:locale_refcounting.obj
 0001:0004077e       ___acrt_update_thread_locale_data 1004177e f   libucrt:locale_refcounting.obj
 0001:000407f5       __updatetlocinfoEx_nolock  100417f5 f   libucrt:locale_refcounting.obj
 0001:00040845       __isleadbyte_l             10041845 f i libucrt:_wctype.obj
 0001:00040a9b       ___acrt_LCMapStringA       10041a9b f   libucrt:lcmapstringa.obj
 0001:00040ae6       __freea_crt                10041ae6 f i libucrt:lcmapstringa.obj
 0001:00040b06       ___acrt_locale_free_monetary 10041b06 f   libucrt:initmon.obj
 0001:00040c04       ___acrt_locale_free_numeric 10041c04 f   libucrt:initnum.obj
 0001:00040ca9       ___acrt_locale_free_time   10041ca9 f   libucrt:inittime.obj
 0001:00040d8d       ___acrt_GetStringTypeA     10041d8d f   libucrt:getstringtypea.obj
 0001:00040eaa       ___acrt_fp_strflt_to_string 10041eaa f   libucrt:_fptostr.obj
 0001:00040f66       ??0scoped_fp_state_reset@?A0x48fbfdd4@@QAE@XZ 10041f66 f i libucrt:cfout.obj
 0001:00040f90       ?divide@__crt_strtox@@YA_KAAUbig_integer@1@ABU21@@Z 10041f90 f i libucrt:cfout.obj
 0001:0004143e       ___acrt_fltout             1004243e f   libucrt:cfout.obj
 0001:000427da       __isatty                   100437da f   libucrt:isatty.obj
 0001:00042830       ___acrt_lowio_create_handle_array 10043830 f   libucrt:osfinfo.obj
 0001:000428aa       ___acrt_lowio_destroy_handle_array 100438aa f   libucrt:osfinfo.obj
 0001:000428df       ___acrt_lowio_ensure_fh_exists 100438df f   libucrt:osfinfo.obj
 0001:00042977       ___acrt_lowio_lock_fh      10043977 f   libucrt:osfinfo.obj
 0001:0004299a       ___acrt_lowio_set_os_handle 1004399a f   libucrt:osfinfo.obj
 0001:00042a2e       ___acrt_lowio_unlock_fh    10043a2e f   libucrt:osfinfo.obj
 0001:00042a51       __alloc_osfhnd             10043a51 f   libucrt:osfinfo.obj
 0001:00042b63       __free_osfhnd              10043b63 f   libucrt:osfinfo.obj
 0001:00042bf4       __get_osfhandle            10043bf4 f   libucrt:osfinfo.obj
 0001:00042d1a       ___acrt_DownlevelLocaleNameToLCID 10043d1a f   libucrt:lcidtoname_downlevel.obj
 0001:00042d50       _strncmp                   10043d50 f   libucrt:strncmp.obj
 0001:00042dc8       __strnicmp                 10043dc8 f   libucrt:strnicmp.obj
 0001:00042e34       __strnicmp_l               10043e34 f   libucrt:strnicmp.obj
 0001:000434c5       __sopen_nolock             100444c5 f   libucrt:open.obj
 0001:00043516       __sopen_s                  10044516 f   libucrt:open.obj
 0001:00043536       __wsopen_nolock            10044536 f   libucrt:open.obj
 0001:000439e2       __lseeki64                 100449e2 f   libucrt:lseek.obj
 0001:000439fd       __lseeki64_nolock          100449fd f   libucrt:lseek.obj
 0001:00043a18       __putwch_nolock            10044a18 f   libucrt:putwch.obj
 0001:00043a5d       ___acrt_stdio_allocate_buffer_nolock 10044a5d f   libucrt:_getbuf.obj
 0001:00043ba0       _qsort                     10044ba0 f   libucrt:qsort.obj
 0001:00043f40       _strpbrk                   10044f40 f   libucrt:strpbrk.obj
 0001:00043f80       __mbsdec                   10044f80 f   libucrt:mbsdec.obj
 0001:00043f97       __mbsdec_l                 10044f97 f   libucrt:mbsdec.obj
 0001:00044033       __msize                    10045033 f   libucrt:msize.obj
 0001:00044066       __realloc_base             10045066 f   libucrt:realloc_base.obj
 0001:000440cf       ___strncnt                 100450cf f   libucrt:strncnt.obj
 0001:000440eb       _fegetenv                  100450eb f   libucrt:fegetenv.obj
 0001:00044108       _fesetenv                  10045108 f   libucrt:fesetenv.obj
 0001:00044151       _feholdexcept              10045151 f   libucrt:feholdexcept.obj
 0001:000441a0       _log10                     100451a0 f   libucrt:log10.obj
 0001:000441e0       __CIlog10                  100451e0 f   libucrt:log10.obj
 0001:0004421b       __CIlog10_default          1004521b f   libucrt:log10.obj
 0001:0004422f       __log10_default            1004522f     libucrt:log10.obj
 0001:000442f0       _ceil                      100452f0 f   libucrt:ceil_pentium4.obj
 0001:00044330       __ceil_pentium4            10045330 f   libucrt:ceil_pentium4.obj
 0001:00044410       ___ascii_strnicmp          10045410 f   libucrt:_strnicm.obj
 0001:00044471       __get_fmode                10045471 f   libucrt:setmode.obj
 0001:0004449d       __setmode_nolock           1004549d f   libucrt:setmode.obj
 0001:0004456e       ___acrt_copy_path_to_wide_string 1004556e f   libucrt:string_utilities.obj
 0001:00044635       __chsize_nolock            10045635 f   libucrt:chsize.obj
 0001:00044cae       __read_nolock              10045cae f   libucrt:read.obj
 0001:00045063       ___dcrt_lowio_initialize_console_output 10046063 f   libucrt:initcon.obj
 0001:00045082       ___dcrt_terminate_console_output 10046082 f   libucrt:initcon.obj
 0001:0004533c       __getfpcontrolword         1004633c f   libucrt:_fenvutils.obj
 0001:0004537f       __getfpstatusword          1004637f f   libucrt:_fenvutils.obj
 0001:00045427       __setfpcontrolword         10046427 f   libucrt:_fenvutils.obj
 0001:000454a7       __setfpstatusword          100464a7 f   libucrt:_fenvutils.obj
 0001:00045527       __clearfp                  10046527 f   libucrt:ieee87.obj
 0001:00045605       ___acrt_initialize_sse2    10046605 f   libucrt:mathfcns.obj
 0001:00045620       __CIlog10_pentium4         10046620 f   libucrt:log10_pentium4.obj
 0001:00045638       __log10_pentium4           10046638     libucrt:log10_pentium4.obj
 0001:000458c1       __fFEXP                    100468c1     libucrt:87tran.obj
 0001:00045918       __rtinfpopse               10046918     libucrt:87tran.obj
 0001:0004591a       __rtinfnpopse              1004691a     libucrt:87tran.obj
 0001:0004592a       __fFLN                     1004692a     libucrt:87tran.obj
 0001:000459df       __rtinfpop                 100469df     libucrt:87tran.obj
 0001:000459e1       __rtinfnpop                100469e1     libucrt:87tran.obj
 0001:000459fe       __ffexpm1                  100469fe     libucrt:87tran.obj
 0001:00045ab0       __trandisp1                10046ab0 f   libucrt:87disp.obj
 0001:00045b17       __trandisp2                10046b17 f   libucrt:87disp.obj
 0001:00045ba3       __rttospopde               10046ba3     libucrt:87disp.obj
 0001:00045ba8       __rttospop                 10046ba8     libucrt:87disp.obj
 0001:00045baa       __rtnospop                 10046baa     libucrt:87disp.obj
 0001:00045bac       __rttosnpop                10046bac     libucrt:87disp.obj
 0001:00045bad       __rtnospopde               10046bad     libucrt:87disp.obj
 0001:00045bb4       __rtzeropop                10046bb4     libucrt:87disp.obj
 0001:00045bb6       __rtzeronpop               10046bb6     libucrt:87disp.obj
 0001:00045bbb       __rtzerospop               10046bbb     libucrt:87disp.obj
 0001:00045bc8       __rtonepop                 10046bc8     libucrt:87disp.obj
 0001:00045bca       __rtonenpop                10046bca     libucrt:87disp.obj
 0001:00045bcf       __tosnan1                  10046bcf     libucrt:87disp.obj
 0001:00045bfa       __nosnan2                  10046bfa     libucrt:87disp.obj
 0001:00045bfc       __tosnan2                  10046bfc     libucrt:87disp.obj
 0001:00045c24       __nan2                     10046c24     libucrt:87disp.obj
 0001:00045c63       __rtindfpop                10046c63     libucrt:87disp.obj
 0001:00045c65       __rtindfnpop               10046c65     libucrt:87disp.obj
 0001:00045c76       __rttosnpopde              10046c76     libucrt:87disp.obj
 0001:00045c80       __rtatan2inf               10046c80     libucrt:87disp.obj
 0001:00045c9d       __rtchsifneg               10046c9d     libucrt:87disp.obj
 0001:00045cb0       __twoToTOS                 10046cb0 f   libucrt:common.obj
 0001:00045cc5       __load_CW                  10046cc5 f   libucrt:common.obj
 0001:00045cdc       __convertTOStoQNaN         10046cdc f   libucrt:common.obj
 0001:00045cf5       __fload_withFB             10046cf5 f   libucrt:common.obj
 0001:00045d38       __checkTOS_withFB          10046d38 f   libucrt:common.obj
 0001:00045d4e       __fast_exit                10046d4e f   libucrt:common.obj
 0001:00045d5b       __math_exit                10046d5b f   libucrt:common.obj
 0001:00045d85       __check_overflow_exit      10046d85 f   libucrt:common.obj
 0001:00045d99       __check_range_exit         10046d99 f   libucrt:common.obj
 0001:00045e40       __startTwoArgErrorHandling 10046e40 f   libucrt:genexcep.obj
 0001:00045e57       __startOneArgErrorHandling 10046e57 f   libucrt:genexcep.obj
 0001:00045e93       ___libm_error_support      10046e93 f   libucrt:libm_error.obj
 0001:000460ab       __ceil_default             100470ab f   libucrt:ceil.obj
 0001:00046164       __clrfp                    10047164 f   libucrt:fpctrl.obj
 0001:00046177       __ctrlfp                   10047177 f   libucrt:fpctrl.obj
 0001:000461a3       __set_statfp               100471a3 f   libucrt:fpctrl.obj
 0001:000461fe       __statfp                   100471fe f   libucrt:fpctrl.obj
 0001:00046210       __d_inttype                10047210 f   libucrt:powhlp.obj
 0001:0004627a       __powhlp                   1004727a f   libucrt:powhlp.obj
 0001:000463a5       __87except                 100473a5 f   libucrt:87except.obj
 0001:000464b0       __frnd                     100474b0 f   libucrt:frnd.obj
 0001:000464c6       __errcode                  100474c6 f   libucrt:fpexcept.obj
 0001:000464fa       __except1                  100474fa f   libucrt:fpexcept.obj
 0001:000465c8       __handle_exc               100475c8 f   libucrt:fpexcept.obj
 0001:000467a8       __raise_exc                100477a8 f   libucrt:fpexcept.obj
 0001:000467cb       __raise_exc_ex             100477cb f   libucrt:fpexcept.obj
 0001:00046abc       __set_errno_from_matherr   10047abc f   libucrt:fpexcept.obj
 0001:00046aeb       __umatherr                 10047aeb f   libucrt:fpexcept.obj
 0001:00046b8d       __decomp                   10047b8d f   libucrt:util.obj
 0001:00046c61       __set_exp                  10047c61 f   libucrt:util.obj
 0001:00046c90       __sptype                   10047c90 f   libucrt:util.obj
 0001:00046cee       __fpclass                  10047cee f   libucrt:ieeemisc.obj
 0001:00046d92       _IsProcessorFeaturePresent@4 10047d92 f   kernel32:KERNEL32.dll
 0001:00046d98       _RtlUnwind@16              10047d98 f   kernel32:KERNEL32.dll
 0001:00046d9e       ?DloadAcquireSectionWriteAccess@@YGXXZ 10047d9e f i DelayImp:delayhlp.obj
 0001:00046dd1       ?DloadGetSRWLockFunctionPointers@@YGEXZ 10047dd1 f i DelayImp:delayhlp.obj
 0001:00046e4c       ?DloadLock@@YGXXZ          10047e4c f i DelayImp:delayhlp.obj
 0001:00046ea9       ?DloadMakePermanentImageCommit@@YGXPAXK@Z 10047ea9 f i DelayImp:delayhlp.obj
 0001:00046f1b       ?DloadObtainSection@@YGPAXPAK0@Z 10047f1b f i DelayImp:delayhlp.obj
 0001:00046f9e       ?DloadProtectSection@@YGXKPAK@Z 10047f9e f i DelayImp:delayhlp.obj
 0001:0004700e       ?DloadReleaseSectionWriteAccess@@YGXXZ 1004800e f i DelayImp:delayhlp.obj
 0001:00047046       ?DloadUnlock@@YGXXZ        10048046 f i DelayImp:delayhlp.obj
 0001:00047090       ___delayLoadHelper2@8      10048090 f   DelayImp:delayhlp.obj
 0001:00047315       __imp_load__uv_cond_signal 10048315 f   node:node.exe
 0001:0004731f       __imp_load__uv_cond_destroy 1004831f f   node:node.exe
 0001:00047329       __imp_load__uv_mutex_unlock 10048329 f   node:node.exe
 0001:00047333       __imp_load__uv_cond_init   10048333 f   node:node.exe
 0001:0004733d       __imp_load__uv_once        1004833d f   node:node.exe
 0001:00047347       __imp_load__uv_mutex_lock  10048347 f   node:node.exe
 0001:00047351       __imp_load__uv_cond_wait   10048351 f   node:node.exe
 0001:0004735b       __imp_load__uv_mutex_destroy 1004835b f   node:node.exe
 0001:00047365       __imp_load__uv_cond_broadcast 10048365 f   node:node.exe
 0001:0004736f       __imp_load__uv_mutex_init  1004836f f   node:node.exe
 0001:00047380       __FindPESection            10048380 f   LIBCMT:pesect.obj
 0001:000473d0       __IsNonwritableInCurrentImage 100483d0 f   LIBCMT:pesect.obj
 0001:00047490       __ValidateImageBase        10048490 f   LIBCMT:pesect.obj
 0001:000474d0       __aulldvrm                 100484d0 f   LIBCMT:ulldvrm.obj
 0001:00047570       __SEH_prolog4_GS           10048570 f   LIBCMT:_sehprolg4gs_.obj
 0001:000475b9       __SEH_epilog4_GS           100485b9 f   LIBCMT:_sehprolg4gs_.obj
 0001:000475d0       __allmul                   100485d0 f   LIBCMT:llmul.obj
 0001:00047610       __alldvrm                  10048610 f   LIBCMT:lldvrm.obj
 0001:000476f0       __aullshr                  100486f0 f   LIBCMT:ullshr.obj
 0001:00047710       __alloca_probe             10048710 f   LIBCMT:chkstk.obj
 0001:00047710       __chkstk                   10048710 f   LIBCMT:chkstk.obj
 0001:00047740       __alloca_probe_16          10048740 f   LIBCMT:alloca16.obj
 0001:00047756       __alloca_probe_8           10048756     LIBCMT:alloca16.obj
 0001:00047770       __allshl                   10048770 f   LIBCMT:llshl.obj
 0001:00047790       __ftol2_sse                10048790 f   LIBCMT:_ftol2_.obj
 0001:00047799       __ftol2_pentium4           10048799 f   LIBCMT:_ftol2_.obj
 0001:000477ac       __ftol2_sse_excpt          100487ac f   LIBCMT:_ftol2_.obj
 0001:000477d0       __ftol2                    100487d0 f   LIBCMT:_ftol2_.obj
 0001:00047850       _memcpy                    10048850 f   libvcruntime:memcpy.obj
 0001:00047dd0       _strchr                    10048dd0 f   libvcruntime:strchr.obj
 0001:00047e3e       ___from_strstr_to_strchr   10048e3e     libvcruntime:strchr.obj
 0001:00047f00       __alldiv                   10048f00 f   LIBCMT:lldiv.obj
 0001:00047fb0       __ftoui3                   10048fb0 f   LIBCMT:_ftol3_.obj
 0001:00047fbf       __ftoul3                   10048fbf f   LIBCMT:_ftol3_.obj
 0001:00047fce       __ftol3                    10048fce f   LIBCMT:_ftol3_.obj
 0001:00047fdb       __ftol3_NaN                10048fdb f   LIBCMT:_ftol3_.obj
 0001:00047ff3       __ftol3_work               10048ff3 f   LIBCMT:_ftol3_.obj
 0001:00048079       __ftol3_common             10049079 f   LIBCMT:_ftol3_.obj
 0001:0004813b       __ftol3_arg_error          1004913b f   LIBCMT:_ftol3_.obj
 0001:0004814d       __ftol3_except             1004914d f   LIBCMT:_ftol3_.obj
 0001:00048191       __dtoui3                   10049191 f   LIBCMT:_ftol3_.obj
 0001:000481a0       __dtoul3                   100491a0 f   LIBCMT:_ftol3_.obj
 0001:000481af       __dtol3                    100491af f   LIBCMT:_ftol3_.obj
 0001:000481bc       __dtol3_NaN                100491bc f   LIBCMT:_ftol3_.obj
 0001:000481d9       __dtol3_work               100491d9 f   LIBCMT:_ftol3_.obj
 0001:000482c0       __ultod3                   100492c0 f   LIBCMT:_ftol3_.obj
 0001:00048300       __ltod3                    10049300 f   LIBCMT:_ftol3_.obj
 0001:00048327       ?_CallCatchBlock2@@YAPAXPAUEHRegistrationNode@@PBU_s_FuncInfo@@PAXHK@Z 10049327 f   libvcruntime:trnsctrl.obj
 0001:00048387       ?_CallSETranslator@@YAHPAUEHExceptionRecord@@PAUEHRegistrationNode@@PAX2PBU_s_FuncInfo@@H1@Z 10049387 f   libvcruntime:trnsctrl.obj
 0001:00048464       ?_GetRangeOfTrysToCheck@@YAPBU_s_TryBlockMapEntry@@PBU_s_FuncInfo@@HHPAI1@Z 10049464 f   libvcruntime:trnsctrl.obj
 0001:000484dc       ?_JumpToContinuation@@YGXPAXPAUEHRegistrationNode@@@Z 100494dc f   libvcruntime:trnsctrl.obj
 0001:0004850e       ?_UnwindNestedFrames@@YGXPAUEHRegistrationNode@@PAUEHExceptionRecord@@@Z 1004950e f   libvcruntime:trnsctrl.obj
 0001:00048563       __CatchGuardHandler        10049563 f   libvcruntime:trnsctrl.obj
 0001:00048594       __CreateFrameInfo          10049594 f   libvcruntime:trnsctrl.obj
 0001:000485b8       __FindAndUnlinkFrame       100495b8 f   libvcruntime:trnsctrl.obj
 0001:00048602       __IsExceptionObjectToBeDestroyed 10049602 f   libvcruntime:trnsctrl.obj
 0001:00048628       __TranslatorGuardHandler   10049628 f   libvcruntime:trnsctrl.obj
 0001:000486c7       ___CxxFrameHandler3        100496c7 f   libvcruntime:trnsctrl.obj
 0001:00048700       __CallSettingFrame@12      10049700 f   libvcruntime:lowhelpr.obj
 0001:00048727       __NLG_Return               10049727     libvcruntime:lowhelpr.obj
 0001:0004874c       ___DestructExceptionObject 1004974c f   libvcruntime:frame.obj
 0001:000487e0       ??0bad_exception@std@@QAE@ABV01@@Z 100497e0 f i libvcruntime:frame.obj
 0001:000487fb       ??0bad_exception@std@@QAE@XZ 100497fb f i libvcruntime:frame.obj
 0001:0004902c       ?_CallMemberFunction0@@YGXQAX0@Z 1004a02c f i libvcruntime:frame.obj
 0001:0004902c       ?_CallMemberFunction1@@YGXQAX00@Z 1004a02c f i libvcruntime:frame.obj
 0001:0004902c       ?_CallMemberFunction2@@YGXQAX00H@Z 1004a02c f i libvcruntime:frame.obj
 0001:00049033       ___AdjustPointer           1004a033 f   libvcruntime:frame.obj
 0001:00049058       ___BuildCatchObject        1004a058 f   libvcruntime:frame.obj
 0001:000490e7       ___BuildCatchObjectHelper  1004a0e7 f   libvcruntime:frame.obj
 0001:00049215       ___FrameUnwindFilter       1004a215 f   libvcruntime:frame.obj
 0001:0004925a       ___FrameUnwindToState      1004a25a f   libvcruntime:frame.obj
 0001:00049322       ___InternalCxxFrameHandler 1004a322 f   libvcruntime:frame.obj
 0001:0004941e       ___TypeMatch               1004a41e f   libvcruntime:frame.obj
 0001:000494ac       _unexpected                1004a4ac f   libvcruntime:unexpected.obj
 0001:000494c8       __EH_prolog3_catch         1004a4c8 f   LIBCMT:ehprolg3.obj
 0002:00000000       __imp__GetModuleHandleA@4  10051000     kernel32:KERNEL32.dll
 0002:00000004       __imp__CreateDirectoryW@8  10051004     kernel32:KERNEL32.dll
 0002:00000008       __imp__ReadFile@20         10051008     kernel32:KERNEL32.dll
 0002:0000000c       __imp__FindFirstFileW@8    1005100c     kernel32:KERNEL32.dll
 0002:00000010       __imp__GetFileSizeEx@8     10051010     kernel32:KERNEL32.dll
 0002:00000014       __imp__FindNextFileW@8     10051014     kernel32:KERNEL32.dll
 0002:00000018       __imp__WriteFile@20        10051018     kernel32:KERNEL32.dll
 0002:0000001c       __imp__RemoveDirectoryW@4  1005101c     kernel32:KERNEL32.dll
 0002:00000020       __imp__GetTempPathW@8      10051020     kernel32:KERNEL32.dll
 0002:00000024       __imp__FindClose@4         10051024     kernel32:KERNEL32.dll
 0002:00000028       __imp__CreateFileW@28      10051028     kernel32:KERNEL32.dll
 0002:0000002c       __imp__MultiByteToWideChar@24 1005102c     kernel32:KERNEL32.dll
 0002:00000030       __imp__Sleep@4             10051030     kernel32:KERNEL32.dll
 0002:00000034       __imp__GetLastError@0      10051034     kernel32:KERNEL32.dll
 0002:00000038       __imp__GetFileAttributesExW@12 10051038     kernel32:KERNEL32.dll
 0002:0000003c       __imp__QueryPerformanceFrequency@4 1005103c     kernel32:KERNEL32.dll
 0002:00000040       __imp__DeleteFileW@4       10051040     kernel32:KERNEL32.dll
 0002:00000044       __imp__CloseHandle@4       10051044     kernel32:KERNEL32.dll
 0002:00000048       __imp__SetFilePointerEx@20 10051048     kernel32:KERNEL32.dll
 0002:0000004c       __imp__LocalFree@4         1005104c     kernel32:KERNEL32.dll
 0002:00000050       __imp__MoveFileExW@12      10051050     kernel32:KERNEL32.dll
 0002:00000054       __imp__WideCharToMultiByte@32 10051054     kernel32:KERNEL32.dll
 0002:00000058       __imp__FormatMessageA@28   10051058     kernel32:KERNEL32.dll
 0002:0000005c       __imp__QueryPerformanceCounter@4 1005105c     kernel32:KERNEL32.dll
 0002:00000060       __imp__FlushFileBuffers@4  10051060     kernel32:KERNEL32.dll
 0002:00000064       __imp__GetCurrentThreadId@0 10051064     kernel32:KERNEL32.dll
 0002:00000068       __imp__GetLocalTime@4      10051068     kernel32:KERNEL32.dll
 0002:0000006c       __imp__UnhandledExceptionFilter@4 1005106c     kernel32:KERNEL32.dll
 0002:00000070       __imp__SetUnhandledExceptionFilter@4 10051070     kernel32:KERNEL32.dll
 0002:00000074       __imp__GetCurrentProcess@0 10051074     kernel32:KERNEL32.dll
 0002:00000078       __imp__TerminateProcess@8  10051078     kernel32:KERNEL32.dll
 0002:0000007c       __imp__IsProcessorFeaturePresent@4 1005107c     kernel32:KERNEL32.dll
 0002:00000080       __imp__IsDebuggerPresent@0 10051080     kernel32:KERNEL32.dll
 0002:00000084       __imp__GetStartupInfoW@4   10051084     kernel32:KERNEL32.dll
 0002:00000088       __imp__GetModuleHandleW@4  10051088     kernel32:KERNEL32.dll
 0002:0000008c       __imp__GetCurrentProcessId@0 1005108c     kernel32:KERNEL32.dll
 0002:00000090       __imp__GetSystemTimeAsFileTime@4 10051090     kernel32:KERNEL32.dll
 0002:00000094       __imp__InitializeSListHead@4 10051094     kernel32:KERNEL32.dll
 0002:00000098       __imp__RaiseException@16   10051098     kernel32:KERNEL32.dll
 0002:0000009c       __imp__InterlockedFlushSList@4 1005109c     kernel32:KERNEL32.dll
 0002:000000a0       __imp__SetLastError@4      100510a0     kernel32:KERNEL32.dll
 0002:000000a4       __imp__EnterCriticalSection@4 100510a4     kernel32:KERNEL32.dll
 0002:000000a8       __imp__LeaveCriticalSection@4 100510a8     kernel32:KERNEL32.dll
 0002:000000ac       __imp__DeleteCriticalSection@4 100510ac     kernel32:KERNEL32.dll
 0002:000000b0       __imp__InitializeCriticalSectionAndSpinCount@8 100510b0     kernel32:KERNEL32.dll
 0002:000000b4       __imp__TlsAlloc@0          100510b4     kernel32:KERNEL32.dll
 0002:000000b8       __imp__TlsGetValue@4       100510b8     kernel32:KERNEL32.dll
 0002:000000bc       __imp__TlsSetValue@8       100510bc     kernel32:KERNEL32.dll
 0002:000000c0       __imp__TlsFree@4           100510c0     kernel32:KERNEL32.dll
 0002:000000c4       __imp__FreeLibrary@4       100510c4     kernel32:KERNEL32.dll
 0002:000000c8       __imp__GetProcAddress@8    100510c8     kernel32:KERNEL32.dll
 0002:000000cc       __imp__LoadLibraryExW@12   100510cc     kernel32:KERNEL32.dll
 0002:000000d0       __imp__RtlUnwind@16        100510d0     kernel32:KERNEL32.dll
 0002:000000d4       __imp__GetStdHandle@4      100510d4     kernel32:KERNEL32.dll
 0002:000000d8       __imp__GetFileType@4       100510d8     kernel32:KERNEL32.dll
 0002:000000dc       __imp__GetModuleFileNameA@12 100510dc     kernel32:KERNEL32.dll
 0002:000000e0       __imp__GetModuleFileNameW@12 100510e0     kernel32:KERNEL32.dll
 0002:000000e4       __imp__GetModuleHandleExW@12 100510e4     kernel32:KERNEL32.dll
 0002:000000e8       __imp__WriteConsoleW@20    100510e8     kernel32:KERNEL32.dll
 0002:000000ec       __imp__CreateThread@24     100510ec     kernel32:KERNEL32.dll
 0002:000000f0       __imp__ExitThread@4        100510f0     kernel32:KERNEL32.dll
 0002:000000f4       __imp__FreeLibraryAndExitThread@8 100510f4     kernel32:KERNEL32.dll
 0002:000000f8       __imp__ExitProcess@4       100510f8     kernel32:KERNEL32.dll
 0002:000000fc       __imp__HeapFree@12         100510fc     kernel32:KERNEL32.dll
 0002:00000100       __imp__HeapAlloc@12        10051100     kernel32:KERNEL32.dll
 0002:00000104       __imp__OutputDebugStringW@4 10051104     kernel32:KERNEL32.dll
 0002:00000108       __imp__WaitForSingleObjectEx@12 10051108     kernel32:KERNEL32.dll
 0002:0000010c       __imp__GetACP@0            1005110c     kernel32:KERNEL32.dll
 0002:00000110       __imp__LCMapStringW@24     10051110     kernel32:KERNEL32.dll
 0002:00000114       __imp__GetConsoleCP@0      10051114     kernel32:KERNEL32.dll
 0002:00000118       __imp__GetConsoleMode@8    10051118     kernel32:KERNEL32.dll
 0002:0000011c       __imp__FindFirstFileExA@24 1005111c     kernel32:KERNEL32.dll
 0002:00000120       __imp__FindNextFileA@8     10051120     kernel32:KERNEL32.dll
 0002:00000124       __imp__IsValidCodePage@4   10051124     kernel32:KERNEL32.dll
 0002:00000128       __imp__GetOEMCP@0          10051128     kernel32:KERNEL32.dll
 0002:0000012c       __imp__GetCPInfo@8         1005112c     kernel32:KERNEL32.dll
 0002:00000130       __imp__GetCommandLineA@0   10051130     kernel32:KERNEL32.dll
 0002:00000134       __imp__GetCommandLineW@0   10051134     kernel32:KERNEL32.dll
 0002:00000138       __imp__GetEnvironmentStringsW@0 10051138     kernel32:KERNEL32.dll
 0002:0000013c       __imp__FreeEnvironmentStringsW@4 1005113c     kernel32:KERNEL32.dll
 0002:00000140       __imp__GetProcessHeap@0    10051140     kernel32:KERNEL32.dll
 0002:00000144       __imp__GetStringTypeW@16   10051144     kernel32:KERNEL32.dll
 0002:00000148       __imp__SetStdHandle@8      10051148     kernel32:KERNEL32.dll
 0002:0000014c       __imp__HeapSize@12         1005114c     kernel32:KERNEL32.dll
 0002:00000150       __imp__HeapReAlloc@16      10051150     kernel32:KERNEL32.dll
 0002:00000154       __imp__SetEndOfFile@4      10051154     kernel32:KERNEL32.dll
 0002:00000158       __imp__ReadConsoleW@20     10051158     kernel32:KERNEL32.dll
 0002:0000015c       __imp__EncodePointer@4     1005115c     kernel32:KERNEL32.dll
 0002:00000160       __imp__DecodePointer@4     10051160     kernel32:KERNEL32.dll
 0002:00000164       __imp__GetSystemInfo@4     10051164     kernel32:KERNEL32.dll
 0002:00000168       __imp__VirtualProtect@16   10051168     kernel32:KERNEL32.dll
 0002:0000016c       __imp__VirtualQuery@12     1005116c     kernel32:KERNEL32.dll
 0002:00000170       __imp__LoadLibraryExA@12   10051170     kernel32:KERNEL32.dll
 0002:00000174       \177KERNEL32_NULL_THUNK_DATA 10051174     kernel32:KERNEL32.dll
 0002:00000178       ___guard_check_icall_fptr  10051178     LIBCMT:guard_support.obj
 0002:0000017c       ___xc_a                    1005117c     LIBCMT:initializers.obj
 0002:00000180       __register_leveldown_      10051180     leveldown.obj
 0002:00000194       ___xc_z                    10051194     LIBCMT:initializers.obj
 0002:00000198       ___xi_a                    10051198     LIBCMT:initializers.obj
 0002:0000019c       ___acrt_stdio_initializer  1005119c     libucrt:stdio_initializer.obj
 0002:000001a0       ___acrt_multibyte_initializer 100511a0     libucrt:multibyte_initializer.obj
 0002:000001a4       ___acrt_tran_sse2_initializer 100511a4     libucrt:sse2_initializer.obj
 0002:000001a8       ___xi_z                    100511a8     LIBCMT:initializers.obj
 0002:000001ac       ___xp_a                    100511ac     LIBCMT:initializers.obj
 0002:000001b0       ___acrt_locale_terminator  100511b0     libucrt:locale_initializer.obj
 0002:000001b4       ___dcrt_console_output_terminator 100511b4     libucrt:console_output_initializer.obj
 0002:000001b8       ___acrt_stdio_terminator   100511b8     libucrt:stdio_initializer.obj
 0002:000001bc       ___xp_z                    100511bc     LIBCMT:initializers.obj
 0002:000001c0       ___xt_a                    100511c0     LIBCMT:initializers.obj
 0002:000001c4       ___xt_z                    100511c4     LIBCMT:initializers.obj
 0002:000001d0       __sz_node_exe              100511d0     node:node.exe
 0002:000001e0       ??_7exception@std@@6B@     100511e0     libcpmt:xthrow.obj
 0002:000001e8       ??_C@_0BC@EOODALEL@Unknown?5exception?$AA@ 100511e8     libcpmt:xthrow.obj
 0002:00000200       ??_7bad_alloc@std@@6B@     10051200     libcpmt:xthrow.obj
 0002:00000208       ??_C@_0P@GHFPNOJB@bad?5allocation?$AA@ 10051208     libcpmt:xthrow.obj
 0002:0000021c       ??_7logic_error@std@@6B@   1005121c     libcpmt:xthrow.obj
 0002:00000228       ??_7length_error@std@@6B@  10051228     libcpmt:xthrow.obj
 0002:00000234       ??_7out_of_range@std@@6B@  10051234     libcpmt:xthrow.obj
 0002:0000023c       __pDefaultRawDllMain       1005123c     LIBCMT:dll_dllmain.obj
 0002:0000023c       __pRawDllMain              1005123c     LIBCMT:dll_dllmain.obj
 0002:00000244       ??_7type_info@@6B@         10051244     LIBCMT:std_type_info_static.obj
 0002:00000254       ??_7bad_array_new_length@std@@6B@ 10051254     LIBCMT:throw_bad_alloc.obj
 0002:0000025c       ??_C@_0BF@KINCDENJ@bad?5array?5new?5length?$AA@ 1005125c     LIBCMT:throw_bad_alloc.obj
 0002:000002a4       ??_C@_1BC@DNHGCMLG@?$AAa?$AAd?$AAv?$AAa?$AAp?$AAi?$AA3?$AA2?$AA?$AA@ 100512a4     libvcruntime:winapi_downlevel.obj
 0002:000002b8       ??_C@_1DM@KHCHBNEB@?$AAa?$AAp?$AAi?$AA?9?$AAm?$AAs?$AA?9?$AAw?$AAi?$AAn?$AA?9?$AAc?$AAo?$AAr?$AAe?$AA?9?$AAf?$AAi?$AAb?$AAe?$AAr?$AAs?$AA?9?$AAl?$AA1?$AA?9?$AA1?$AA?9?$AA1?$AA?$AA@ 100512b8     libvcruntime:winapi_downlevel.obj
 0002:000002f4       ??_C@_1DK@LPPGFMPP@?$AAa?$AAp?$AAi?$AA?9?$AAm?$AAs?$AA?9?$AAw?$AAi?$AAn?$AA?9?$AAc?$AAo?$AAr?$AAe?$AA?9?$AAs?$AAy?$AAn?$AAc?$AAh?$AA?9?$AAl?$AA1?$AA?9?$AA2?$AA?9?$AA0?$AA?$AA@ 100512f4     libvcruntime:winapi_downlevel.obj
 0002:00000330       ??_C@_1BC@GDMECMAK@?$AAk?$AAe?$AAr?$AAn?$AAe?$AAl?$AA3?$AA2?$AA?$AA@ 10051330     libvcruntime:winapi_downlevel.obj
 0002:0000034c       ??_C@_08KNHFBNJ@FlsAlloc?$AA@ 1005134c     libvcruntime:winapi_downlevel.obj
 0002:00000360       ??_C@_07PEJMOBNF@FlsFree?$AA@ 10051360     libvcruntime:winapi_downlevel.obj
 0002:00000370       ??_C@_0M@GDNOONDI@FlsGetValue?$AA@ 10051370     libvcruntime:winapi_downlevel.obj
 0002:00000384       ??_C@_0M@JCPCPOEF@FlsSetValue?$AA@ 10051384     libvcruntime:winapi_downlevel.obj
 0002:00000398       ??_C@_0BM@HCFOFFN@InitializeCriticalSectionEx?$AA@ 10051398     libvcruntime:winapi_downlevel.obj
 0002:00000548       ??_C@_08EHJDFFNH@__based?$CI?$AA@ 10051548     libvcruntime:undname.obj
 0002:00000554       ??_C@_07KOLFKCDI@__cdecl?$AA@ 10051554     libvcruntime:undname.obj
 0002:0000055c       ??_C@_08GHMPAG@__pascal?$AA@ 1005155c     libvcruntime:undname.obj
 0002:00000568       ??_C@_09IFJBGAPI@__stdcall?$AA@ 10051568     libvcruntime:undname.obj
 0002:00000574       ??_C@_0L@NPHFGOKO@__thiscall?$AA@ 10051574     libvcruntime:undname.obj
 0002:00000580       ??_C@_0L@JMKHOMEK@__fastcall?$AA@ 10051580     libvcruntime:undname.obj
 0002:0000058c       ??_C@_0N@BCKKPABJ@__vectorcall?$AA@ 1005158c     libvcruntime:undname.obj
 0002:0000059c       ??_C@_09HIJEGCPM@__clrcall?$AA@ 1005159c     libvcruntime:undname.obj
 0002:000005a8       ??_C@_06GHPCKEAG@__eabi?$AA@ 100515a8     libvcruntime:undname.obj
 0002:000005b0       ??_C@_07JOMMBBKO@__ptr64?$AA@ 100515b0     libvcruntime:undname.obj
 0002:000005b8       ??_C@_0L@PILCLIHE@__restrict?$AA@ 100515b8     libvcruntime:undname.obj
 0002:000005c4       ??_C@_0M@GFIIJFMG@__unaligned?$AA@ 100515c4     libvcruntime:undname.obj
 0002:000005d0       ??_C@_09DHDLOLLB@restrict?$CI?$AA@ 100515d0     libvcruntime:undname.obj
 0002:000005dc       ??_C@_04NIHEBCM@?5new?$AA@ 100515dc     libvcruntime:undname.obj
 0002:000005e4       ??_C@_07FPCDHGMM@?5delete?$AA@ 100515e4     libvcruntime:undname.obj
 0002:000005ec       ??_C@_01NEMOKFLO@?$DN?$AA@ 100515ec     libvcruntime:undname.obj
 0002:000005f0       ??_C@_02GPIOPFAK@?$DO?$DO?$AA@ 100515f0     libvcruntime:undname.obj
 0002:000005f4       ??_C@_02FODMEDOG@?$DM?$DM?$AA@ 100515f4     libvcruntime:undname.obj
 0002:000005f8       ??_C@_01DCLJPIOD@?$CB?$AA@ 100515f8     libvcruntime:undname.obj
 0002:000005fc       ??_C@_02EGOFBIJA@?$DN?$DN?$AA@ 100515fc     libvcruntime:undname.obj
 0002:00000600       ??_C@_02FDNJECIE@?$CB?$DN?$AA@ 10051600     libvcruntime:undname.obj
 0002:00000604       ??_C@_02GPECMEKF@?$FL?$FN?$AA@ 10051604     libvcruntime:undname.obj
 0002:00000608       ??_C@_08LHJFAFGD@operator?$AA@ 10051608     libvcruntime:undname.obj
 0002:00000614       ??_C@_02HBOOOICD@?9?$DO?$AA@ 10051614     libvcruntime:undname.obj
 0002:00000618       ??_C@_01NBENCBCI@?$CK?$AA@ 10051618     libvcruntime:undname.obj
 0002:0000061c       ??_C@_02ECNGHCIF@?$CL?$CL?$AA@ 1005161c     libvcruntime:undname.obj
 0002:00000620       ??_C@_02BAABKJLB@?9?9?$AA@ 10051620     libvcruntime:undname.obj
 0002:00000624       ??_C@_01JOAMLHOP@?9?$AA@   10051624     libvcruntime:undname.obj
 0002:00000628       ??_C@_01MIFGBAGJ@?$CL?$AA@ 10051628     libvcruntime:undname.obj
 0002:0000062c       ??_C@_01HNPIGOCE@?$CG?$AA@ 1005162c     libvcruntime:undname.obj
 0002:00000630       ??_C@_03MNHNFDLC@?9?$DO?$CK?$AA@ 10051630     libvcruntime:undname.obj
 0002:00000634       ??_C@_01FGNFDNOH@?$CF?$AA@ 10051634     libvcruntime:undname.obj
 0002:00000638       ??_C@_01MNNFJEPP@?$DM?$AA@ 10051638     libvcruntime:undname.obj
 0002:0000063c       ??_C@_02EHCHHCKH@?$DM?$DN?$AA@ 1005163c     libvcruntime:undname.obj
 0002:00000640       ??_C@_01PPODPGHN@?$DO?$AA@ 10051640     libvcruntime:undname.obj
 0002:00000644       ??_C@_02EEKDKGMJ@?$DO?$DN?$AA@ 10051644     libvcruntime:undname.obj
 0002:00000648       ??_C@_01IHBHIGKO@?0?$AA@   10051648     libvcruntime:undname.obj
 0002:0000064c       ??_C@_02HCKGKOFO@?$CI?$CJ?$AA@ 1005164c     libvcruntime:undname.obj
 0002:00000650       ??_C@_01PJKLJHI@?$HO?$AA@  10051650     libvcruntime:undname.obj
 0002:00000654       ??_C@_01JKBOJNNK@?$FO?$AA@ 10051654     libvcruntime:undname.obj
 0002:00000658       ??_C@_01DNKMNLPK@?$HM?$AA@ 10051658     libvcruntime:undname.obj
 0002:0000065c       ??_C@_02PPKAJPJL@?$CG?$CG?$AA@ 1005165c     libvcruntime:undname.obj
 0002:00000660       ??_C@_02NONPIBCD@?$HM?$HM?$AA@ 10051660     libvcruntime:undname.obj
 0002:00000664       ??_C@_02FPIMKNGF@?$CK?$DN?$AA@ 10051664     libvcruntime:undname.obj
 0002:00000668       ??_C@_02FOEOMHFC@?$CL?$DN?$AA@ 10051668     libvcruntime:undname.obj
 0002:0000066c       ??_C@_02FKMDLLOA@?9?$DN?$AA@ 1005166c     libvcruntime:undname.obj
 0002:00000670       ??_C@_02FJEHGPIO@?1?$DN?$AA@ 10051670     libvcruntime:undname.obj
 0002:00000674       ??_C@_02FENAOKFI@?$CF?$DN?$AA@ 10051674     libvcruntime:undname.obj
 0002:00000678       ??_C@_03IKFCCPFF@?$DO?$DO?$DN?$AA@ 10051678     libvcruntime:undname.obj
 0002:0000067c       ??_C@_03CDNPDDLA@?$DM?$DM?$DN?$AA@ 1005167c     libvcruntime:undname.obj
 0002:00000680       ??_C@_02FGJGFEAB@?$CG?$DN?$AA@ 10051680     libvcruntime:undname.obj
 0002:00000684       ??_C@_02DHLNPPGH@?$HM?$DN?$AA@ 10051684     libvcruntime:undname.obj
 0002:00000688       ??_C@_02MHEGNOJ@?$FO?$DN?$AA@ 10051688     libvcruntime:undname.obj
 0002:0000068c       ??_C@_09IFPLHPGF@?$GAvftable?8?$AA@ 1005168c     libvcruntime:undname.obj
 0002:00000698       ??_C@_09BLBHBJP@?$GAvbtable?8?$AA@ 10051698     libvcruntime:undname.obj
 0002:000006a4       ??_C@_07FEEIOKP@?$GAvcall?8?$AA@ 100516a4     libvcruntime:undname.obj
 0002:000006ac       ??_C@_08LLFFHHDJ@?$GAtypeof?8?$AA@ 100516ac     libvcruntime:undname.obj
 0002:000006b8       ??_C@_0BF@KDPPACIK@?$GAlocal?5static?5guard?8?$AA@ 100516b8     libvcruntime:undname.obj
 0002:000006d0       ??_C@_08OBABFOLI@?$GAstring?8?$AA@ 100516d0     libvcruntime:undname.obj
 0002:000006dc       ??_C@_0BD@JDLKDPAB@?$GAvbase?5destructor?8?$AA@ 100516dc     libvcruntime:undname.obj
 0002:000006f0       ??_C@_0BN@DEGPLNFK@?$GAvector?5deleting?5destructor?8?$AA@ 100516f0     libvcruntime:undname.obj
 0002:00000710       ??_C@_0BO@OBMKPJIG@?$GAdefault?5constructor?5closure?8?$AA@ 10051710     libvcruntime:undname.obj
 0002:00000730       ??_C@_0BN@IMDCHIKM@?$GAscalar?5deleting?5destructor?8?$AA@ 10051730     libvcruntime:undname.obj
 0002:00000750       ??_C@_0BO@PFGOCPJJ@?$GAvector?5constructor?5iterator?8?$AA@ 10051750     libvcruntime:undname.obj
 0002:00000770       ??_C@_0BN@LFPFMEDL@?$GAvector?5destructor?5iterator?8?$AA@ 10051770     libvcruntime:undname.obj
 0002:00000790       ??_C@_0CE@IKBNEHA@?$GAvector?5vbase?5constructor?5iterat@ 10051790     libvcruntime:undname.obj
 0002:000007b4       ??_C@_0BL@NILFHHPC@?$GAvirtual?5displacement?5map?8?$AA@ 100517b4     libvcruntime:undname.obj
 0002:000007d0       ??_C@_0CB@JONCMFFK@?$GAeh?5vector?5constructor?5iterator?8@ 100517d0     libvcruntime:undname.obj
 0002:000007f4       ??_C@_0CA@GCEOPDGL@?$GAeh?5vector?5destructor?5iterator?8?$AA@ 100517f4     libvcruntime:undname.obj
 0002:00000814       ??_C@_0CH@OOJPLCPH@?$GAeh?5vector?5vbase?5constructor?5ite@ 10051814     libvcruntime:undname.obj
 0002:0000083c       ??_C@_0BL@LLKPOHJI@?$GAcopy?5constructor?5closure?8?$AA@ 1005183c     libvcruntime:undname.obj
 0002:00000858       ??_C@_0BA@KBCDOMBN@?$GAudt?5returning?8?$AA@ 10051858     libvcruntime:undname.obj
 0002:00000868       ??_C@_03KLGMFNMG@?$GAEH?$AA@ 10051868     libvcruntime:undname.obj
 0002:0000086c       ??_C@_05KHLCHHI@?$GARTTI?$AA@ 1005186c     libvcruntime:undname.obj
 0002:00000874       ??_C@_0BA@KKLDJDLB@?$GAlocal?5vftable?8?$AA@ 10051874     libvcruntime:undname.obj
 0002:00000884       ??_C@_0CE@IIHCMGGL@?$GAlocal?5vftable?5constructor?5closu@ 10051884     libvcruntime:undname.obj
 0002:000008a8       ??_C@_06FHBGPFGH@?5new?$FL?$FN?$AA@ 100518a8     libvcruntime:undname.obj
 0002:000008b0       ??_C@_09LBNFPBCA@?5delete?$FL?$FN?$AA@ 100518b0     libvcruntime:undname.obj
 0002:000008bc       ??_C@_0P@HJKNJFNN@?$GAomni?5callsig?8?$AA@ 100518bc     libvcruntime:undname.obj
 0002:000008cc       ??_C@_0BL@CNOONJFP@?$GAplacement?5delete?5closure?8?$AA@ 100518cc     libvcruntime:undname.obj
 0002:000008e8       ??_C@_0BN@CKNJLHMB@?$GAplacement?5delete?$FL?$FN?5closure?8?$AA@ 100518e8     libvcruntime:undname.obj
 0002:00000908       ??_C@_0CG@CFDHKGGD@?$GAmanaged?5vector?5constructor?5iter@ 10051908     libvcruntime:undname.obj
 0002:00000930       ??_C@_0CF@IMGKMJNO@?$GAmanaged?5vector?5destructor?5itera@ 10051930     libvcruntime:undname.obj
 0002:00000958       ??_C@_0CG@HLDDJMAG@?$GAeh?5vector?5copy?5constructor?5iter@ 10051958     libvcruntime:undname.obj
 0002:00000980       ??_C@_0CM@FCBBDIGB@?$GAeh?5vector?5vbase?5copy?5constructo@ 10051980     libvcruntime:undname.obj
 0002:000009ac       ??_C@_0BL@CLIPGLGB@?$GAdynamic?5initializer?5for?5?8?$AA@ 100519ac     libvcruntime:undname.obj
 0002:000009c8       ??_C@_0CB@PDBIFEP@?$GAdynamic?5atexit?5destructor?5for?5?8@ 100519c8     libvcruntime:undname.obj
 0002:000009ec       ??_C@_0CD@CGAJBKEJ@?$GAvector?5copy?5constructor?5iterato@ 100519ec     libvcruntime:undname.obj
 0002:00000a10       ??_C@_0CJ@GJELGAMM@?$GAvector?5vbase?5copy?5constructor?5i@ 10051a10     libvcruntime:undname.obj
 0002:00000a3c       ??_C@_0CL@FGIJHLCE@?$GAmanaged?5vector?5copy?5constructor@ 10051a3c     libvcruntime:undname.obj
 0002:00000a68       ??_C@_0BM@PMGGMLDN@?$GAlocal?5static?5thread?5guard?8?$AA@ 10051a68     libvcruntime:undname.obj
 0002:00000a84       ??_C@_0N@BDNMDMOL@operator?5?$CC?$CC?5?$AA@ 10051a84     libvcruntime:undname.obj
 0002:00000a94       ??_C@_0BC@DAFEJGAK@?5Type?5Descriptor?8?$AA@ 10051a94     libvcruntime:undname.obj
 0002:00000aa8       ??_C@_0BM@LDKODKLH@?5Base?5Class?5Descriptor?5at?5?$CI?$AA@ 10051aa8     libvcruntime:undname.obj
 0002:00000ac4       ??_C@_0BD@LGICGFMM@?5Base?5Class?5Array?8?$AA@ 10051ac4     libvcruntime:undname.obj
 0002:00000ad8       ??_C@_0BN@MECKDCOJ@?5Class?5Hierarchy?5Descriptor?8?$AA@ 10051ad8     libvcruntime:undname.obj
 0002:00000af8       ??_C@_0BK@CFCOFLF@?5Complete?5Object?5Locator?8?$AA@ 10051af8     libvcruntime:undname.obj
 0002:00000b18       ??_C@_1EK@MBDPDCGA@?$AAM?$AAi?$AAc?$AAr?$AAo?$AAs?$AAo?$AAf?$AAt?$AA?5?$AAV?$AAi?$AAs?$AAu?$AAa?$AAl?$AA?5?$AAC?$AA?$CL?$AA?$CL?$AA?5?$AAR?$AAu?$AAn?$AAt?$AAi?$AAm?$AAe?$AA?5?$AAL?$AAi?$AAb@ 10051b18     libucrt:assert.obj
 0002:00000b68       ??_C@_1FE@LHBLIKM@?$AAA?$AAs?$AAs?$AAe?$AAr?$AAt?$AAi?$AAo?$AAn?$AA?5?$AAf?$AAa?$AAi?$AAl?$AAe?$AAd?$AA?3?$AA?5?$AA?$CF?$AAT?$AAs?$AA?0?$AA?5?$AAf?$AAi?$AAl?$AAe?$AA?5?$AA?$CF?$AAT?$AAs?$AA?0@ 10051b68     libucrt:assert.obj
 0002:00000bbc       ??_C@_1CE@OJBNHDMO@?$AAA?$AAs?$AAs?$AAe?$AAr?$AAt?$AAi?$AAo?$AAn?$AA?5?$AAf?$AAa?$AAi?$AAl?$AAe?$AAd?$AA?$CB?$AA?$AA@ 10051bbc     libucrt:assert.obj
 0002:00000be0       ??_C@_1BE@PHKBBGE@?$AAP?$AAr?$AAo?$AAg?$AAr?$AAa?$AAm?$AA?3?$AA?5?$AA?$AA@ 10051be0     libucrt:assert.obj
 0002:00000bf4       ??_C@_1O@HEMHKNDC@?$AAF?$AAi?$AAl?$AAe?$AA?3?$AA?5?$AA?$AA@ 10051bf4     libucrt:assert.obj
 0002:00000c04       ??_C@_1O@KCAFKHJE@?$AAL?$AAi?$AAn?$AAe?$AA?3?$AA?5?$AA?$AA@ 10051c04     libucrt:assert.obj
 0002:00000c14       ??_C@_1BK@PEDCIPMA@?$AAE?$AAx?$AAp?$AAr?$AAe?$AAs?$AAs?$AAi?$AAo?$AAn?$AA?3?$AA?5?$AA?$AA@ 10051c14     libucrt:assert.obj
 0002:00000c30       ??_C@_1OA@EGMLFBHJ@?$AAF?$AAo?$AAr?$AA?5?$AAi?$AAn?$AAf?$AAo?$AAr?$AAm?$AAa?$AAt?$AAi?$AAo?$AAn?$AA?5?$AAo?$AAn?$AA?5?$AAh?$AAo?$AAw?$AA?5?$AAy?$AAo?$AAu?$AAr?$AA?5?$AAp?$AAr?$AAo?$AAg@ 10051c30     libucrt:assert.obj
 0002:00000d10       ??_C@_1HK@POCJMFGK@?$AA?$CI?$AAP?$AAr?$AAe?$AAs?$AAs?$AA?5?$AAR?$AAe?$AAt?$AAr?$AAy?$AA?5?$AAt?$AAo?$AA?5?$AAd?$AAe?$AAb?$AAu?$AAg?$AA?5?$AAt?$AAh?$AAe?$AA?5?$AAa?$AAp?$AAp?$AAl?$AAi?$AAc@ 10051d10     libucrt:assert.obj
 0002:00000d8c       ??_C@_17LGKOMLJ@?$AA?4?$AA?4?$AA?4?$AA?$AA@ 10051d8c     libucrt:assert.obj
 0002:00000d94       ??_C@_13LBAGMAIH@?$AA?6?$AA?$AA@ 10051d94     libucrt:assert.obj
 0002:00000d98       ??_C@_15IABLJNFO@?$AA?6?$AA?6?$AA?$AA@ 10051d98     libucrt:assert.obj
 0002:00000da0       ??_C@_1CO@EAEJAADC@?$AA?$DM?$AAp?$AAr?$AAo?$AAg?$AAr?$AAa?$AAm?$AA?5?$AAn?$AAa?$AAm?$AAe?$AA?5?$AAu?$AAn?$AAk?$AAn?$AAo?$AAw?$AAn?$AA?$DO?$AA?$AA@ 10051da0     libucrt:assert.obj
 0002:00000dd0       _standard_lookup_table     10051dd0     libucrt:output.obj
 0002:00000e30       _format_validation_lookup_table 10051e30     libucrt:output.obj
 0002:00000e8c       ??_C@_06OJHGLDPL@?$CInull?$CJ?$AA@ 10051e8c     libucrt:output.obj
 0002:00000e94       ??_C@_1O@CEDCILHN@?$AA?$CI?$AAn?$AAu?$AAl?$AAl?$AA?$CJ?$AA?$AA@ 10051e94     libucrt:output.obj
 0002:00001010       ??_C@_0EA@FCLIIPNN@Visual?5C?$CL?$CL?5CRT?3?5Not?5enough?5memor@ 10052010     libucrt:strerror.obj
 0002:00001050       ___acrt_exception_action_table 10052050     libucrt:exception_filter.obj
 0002:000010e0       ___acrt_signal_action_table_count 100520e0     libucrt:exception_filter.obj
 0002:000010e4       ___acrt_signal_action_first_fpe_index 100520e4     libucrt:exception_filter.obj
 0002:000010e8       ___acrt_signal_action_fpe_count 100520e8     libucrt:exception_filter.obj
 0002:000010ec       ??_C@_1BI@BGOHAHKC@?$AAm?$AAs?$AAc?$AAo?$AAr?$AAe?$AAe?$AA?4?$AAd?$AAl?$AAl?$AA?$AA@ 100520ec     libucrt:exit.obj
 0002:00001104       ??_C@_0P@MIGLKIOC@CorExitProcess?$AA@ 10052104     libucrt:exit.obj
 0002:00001190       ??_C@_03KOEHGMDN@Sun?$AA@  10052190     libucrt:nlsdata.obj
 0002:00001194       ??_C@_03PDAGKDH@Mon?$AA@   10052194     libucrt:nlsdata.obj
 0002:00001198       ??_C@_03NAGEINEP@Tue?$AA@  10052198     libucrt:nlsdata.obj
 0002:0000119c       ??_C@_03MHOMLAJA@Wed?$AA@  1005219c     libucrt:nlsdata.obj
 0002:000011a0       ??_C@_03IOFIKPDN@Thu?$AA@  100521a0     libucrt:nlsdata.obj
 0002:000011a4       ??_C@_03IDIOELNC@Fri?$AA@  100521a4     libucrt:nlsdata.obj
 0002:000011a8       ??_C@_03FEFJNEK@Sat?$AA@   100521a8     libucrt:nlsdata.obj
 0002:000011ac       ??_C@_06OOPIFAJ@Sunday?$AA@ 100521ac     libucrt:nlsdata.obj
 0002:000011b4       ??_C@_06JLEDEDGH@Monday?$AA@ 100521b4     libucrt:nlsdata.obj
 0002:000011bc       ??_C@_07BAAGCFCM@Tuesday?$AA@ 100521bc     libucrt:nlsdata.obj
 0002:000011c4       ??_C@_09DLIGFAKA@Wednesday?$AA@ 100521c4     libucrt:nlsdata.obj
 0002:000011d0       ??_C@_08HACCIKIA@Thursday?$AA@ 100521d0     libucrt:nlsdata.obj
 0002:000011dc       ??_C@_06JECMNKMI@Friday?$AA@ 100521dc     libucrt:nlsdata.obj
 0002:000011e4       ??_C@_08INBOOONO@Saturday?$AA@ 100521e4     libucrt:nlsdata.obj
 0002:000011f0       ??_C@_03JIHJHPIE@Jan?$AA@  100521f0     libucrt:nlsdata.obj
 0002:000011f4       ??_C@_03HJBDCHOM@Feb?$AA@  100521f4     libucrt:nlsdata.obj
 0002:000011f8       ??_C@_03ODNJBKGA@Mar?$AA@  100521f8     libucrt:nlsdata.obj
 0002:000011fc       ??_C@_03LEOLGMJP@Apr?$AA@  100521fc     libucrt:nlsdata.obj
 0002:00001200       ??_C@_03CNMDKL@May?$AA@    10052200     libucrt:nlsdata.obj
 0002:00001204       ??_C@_03IDFGHECI@Jun?$AA@  10052204     libucrt:nlsdata.obj
 0002:00001208       ??_C@_03LBGABGKK@Jul?$AA@  10052208     libucrt:nlsdata.obj
 0002:0000120c       ??_C@_03IFJFEIGA@Aug?$AA@  1005220c     libucrt:nlsdata.obj
 0002:00001210       ??_C@_03GGCAPAJC@Sep?$AA@  10052210     libucrt:nlsdata.obj
 0002:00001214       ??_C@_03BMAOKBAD@Oct?$AA@  10052214     libucrt:nlsdata.obj
 0002:00001218       ??_C@_03JPJOFNIA@Nov?$AA@  10052218     libucrt:nlsdata.obj
 0002:0000121c       ??_C@_03MKABNOCG@Dec?$AA@  1005221c     libucrt:nlsdata.obj
 0002:00001220       ??_C@_07CGJPFGJA@January?$AA@ 10052220     libucrt:nlsdata.obj
 0002:00001228       ??_C@_08GNJGEPFN@February?$AA@ 10052228     libucrt:nlsdata.obj
 0002:00001234       ??_C@_05HPCKOFNC@March?$AA@ 10052234     libucrt:nlsdata.obj
 0002:0000123c       ??_C@_05DMJDNLEJ@April?$AA@ 1005223c     libucrt:nlsdata.obj
 0002:00001244       ??_C@_04CNLMGBGM@June?$AA@ 10052244     libucrt:nlsdata.obj
 0002:0000124c       ??_C@_04MIEPOIFP@July?$AA@ 1005224c     libucrt:nlsdata.obj
 0002:00001254       ??_C@_06LBBHFDDG@August?$AA@ 10052254     libucrt:nlsdata.obj
 0002:0000125c       ??_C@_09BHHEALKD@September?$AA@ 1005225c     libucrt:nlsdata.obj
 0002:00001268       ??_C@_07JJNFCEND@October?$AA@ 10052268     libucrt:nlsdata.obj
 0002:00001270       ??_C@_08HCHEGEOA@November?$AA@ 10052270     libucrt:nlsdata.obj
 0002:0000127c       ??_C@_08EDHMEBNP@December?$AA@ 1005227c     libucrt:nlsdata.obj
 0002:00001288       ??_C@_02DEDBPAFC@AM?$AA@   10052288     libucrt:nlsdata.obj
 0002:0000128c       ??_C@_02CJNFDJBF@PM?$AA@   1005228c     libucrt:nlsdata.obj
 0002:00001290       ??_C@_08BPBNCDIB@MM?1dd?1yy?$AA@ 10052290     libucrt:nlsdata.obj
 0002:0000129c       ??_C@_0BE@CKGJFCPC@dddd?0?5MMMM?5dd?0?5yyyy?$AA@ 1005229c     libucrt:nlsdata.obj
 0002:000012b0       ??_C@_08JCCMCCIL@HH?3mm?3ss?$AA@ 100522b0     libucrt:nlsdata.obj
 0002:000012bc       ??_C@_17MBGCMIPB@?$AAS?$AAu?$AAn?$AA?$AA@ 100522bc     libucrt:nlsdata.obj
 0002:000012c4       ??_C@_17KBOMKBF@?$AAM?$AAo?$AAn?$AA?$AA@ 100522c4     libucrt:nlsdata.obj
 0002:000012cc       ??_C@_17BMKGEGOJ@?$AAT?$AAu?$AAe?$AA?$AA@ 100522cc     libucrt:nlsdata.obj
 0002:000012d4       ??_C@_17CJEDCEPE@?$AAW?$AAe?$AAd?$AA?$AA@ 100522d4     libucrt:nlsdata.obj
 0002:000012dc       ??_C@_17PDPHAADD@?$AAT?$AAh?$AAu?$AA?$AA@ 100522dc     libucrt:nlsdata.obj
 0002:000012e4       ??_C@_17HFOLPPLP@?$AAF?$AAr?$AAi?$AA?$AA@ 100522e4     libucrt:nlsdata.obj
 0002:000012ec       ??_C@_17GGIBDPIH@?$AAS?$AAa?$AAt?$AA?$AA@ 100522ec     libucrt:nlsdata.obj
 0002:000012f4       ??_C@_1O@IHNHDHPB@?$AAS?$AAu?$AAn?$AAd?$AAa?$AAy?$AA?$AA@ 100522f4     libucrt:nlsdata.obj
 0002:00001304       ??_C@_1O@MMNBFLIA@?$AAM?$AAo?$AAn?$AAd?$AAa?$AAy?$AA?$AA@ 10052304     libucrt:nlsdata.obj
 0002:00001314       ??_C@_1BA@ENFBFFEK@?$AAT?$AAu?$AAe?$AAs?$AAd?$AAa?$AAy?$AA?$AA@ 10052314     libucrt:nlsdata.obj
 0002:00001324       ??_C@_1BE@EBOGMDOH@?$AAW?$AAe?$AAd?$AAn?$AAe?$AAs?$AAd?$AAa?$AAy?$AA?$AA@ 10052324     libucrt:nlsdata.obj
 0002:00001338       ??_C@_1BC@HHMNLIHE@?$AAT?$AAh?$AAu?$AAr?$AAs?$AAd?$AAa?$AAy?$AA?$AA@ 10052338     libucrt:nlsdata.obj
 0002:0000134c       ??_C@_1O@PDICJHAG@?$AAF?$AAr?$AAi?$AAd?$AAa?$AAy?$AA?$AA@ 1005234c     libucrt:nlsdata.obj
 0002:0000135c       ??_C@_1BC@ENMNNPAJ@?$AAS?$AAa?$AAt?$AAu?$AAr?$AAd?$AAa?$AAy?$AA?$AA@ 1005235c     libucrt:nlsdata.obj
 0002:00001370       ??_C@_17DKNBKCHM@?$AAJ?$AAa?$AAn?$AA?$AA@ 10052370     libucrt:nlsdata.obj
 0002:00001378       ??_C@_17LMDJEKJN@?$AAF?$AAe?$AAb?$AA?$AA@ 10052378     libucrt:nlsdata.obj
 0002:00001380       ??_C@_17CKNLEDEC@?$AAM?$AAa?$AAr?$AA?$AA@ 10052380     libucrt:nlsdata.obj
 0002:00001388       ??_C@_17LFPOIHDD@?$AAA?$AAp?$AAr?$AA?$AA@ 10052388     libucrt:nlsdata.obj
 0002:00001390       ??_C@_17PNNKMEED@?$AAM?$AAa?$AAy?$AA?$AA@ 10052390     libucrt:nlsdata.obj
 0002:00001398       ??_C@_17KCJGOCPB@?$AAJ?$AAu?$AAn?$AA?$AA@ 10052398     libucrt:nlsdata.obj
 0002:000013a0       ??_C@_17IJPCKHK@?$AAJ?$AAu?$AAl?$AA?$AA@ 100523a0     libucrt:nlsdata.obj
 0002:000013a8       ??_C@_17ICPELBCN@?$AAA?$AAu?$AAg?$AA?$AA@ 100523a8     libucrt:nlsdata.obj
 0002:000013b0       ??_C@_17HCHCOKMG@?$AAS?$AAe?$AAp?$AA?$AA@ 100523b0     libucrt:nlsdata.obj
 0002:000013b8       ??_C@_17FNLKOI@?$AAO?$AAc?$AAt?$AA?$AA@ 100523b8     libucrt:nlsdata.obj
 0002:000013c0       ??_C@_17BBDMLCIG@?$AAN?$AAo?$AAv?$AA?$AA@ 100523c0     libucrt:nlsdata.obj
 0002:000013c8       ??_C@_17EGKACKIF@?$AAD?$AAe?$AAc?$AA?$AA@ 100523c8     libucrt:nlsdata.obj
 0002:000013d0       ??_C@_1BA@EFMEIEBA@?$AAJ?$AAa?$AAn?$AAu?$AAa?$AAr?$AAy?$AA?$AA@ 100523d0     libucrt:nlsdata.obj
 0002:000013e0       ??_C@_1BC@JGDDFFAM@?$AAF?$AAe?$AAb?$AAr?$AAu?$AAa?$AAr?$AAy?$AA?$AA@ 100523e0     libucrt:nlsdata.obj
 0002:000013f4       ??_C@_1M@IKEENEDF@?$AAM?$AAa?$AAr?$AAc?$AAh?$AA?$AA@ 100523f4     libucrt:nlsdata.obj
 0002:00001400       ??_C@_1M@GJNLMHFD@?$AAA?$AAp?$AAr?$AAi?$AAl?$AA?$AA@ 10052400     libucrt:nlsdata.obj
 0002:0000140c       ??_C@_19EPFLPGAP@?$AAJ?$AAu?$AAn?$AAe?$AA?$AA@ 1005240c     libucrt:nlsdata.obj
 0002:00001418       ??_C@_19BIFMLPCD@?$AAJ?$AAu?$AAl?$AAy?$AA?$AA@ 10052418     libucrt:nlsdata.obj
 0002:00001424       ??_C@_1O@PAHLKOAC@?$AAA?$AAu?$AAg?$AAu?$AAs?$AAt?$AA?$AA@ 10052424     libucrt:nlsdata.obj
 0002:00001434       ??_C@_1BE@DKAAMBJL@?$AAS?$AAe?$AAp?$AAt?$AAe?$AAm?$AAb?$AAe?$AAr?$AA?$AA@ 10052434     libucrt:nlsdata.obj
 0002:00001448       ??_C@_1BA@EPANDLNG@?$AAO?$AAc?$AAt?$AAo?$AAb?$AAe?$AAr?$AA?$AA@ 10052448     libucrt:nlsdata.obj
 0002:00001458       ??_C@_1BC@BGLIFPF@?$AAN?$AAo?$AAv?$AAe?$AAm?$AAb?$AAe?$AAr?$AA?$AA@ 10052458     libucrt:nlsdata.obj
 0002:0000146c       ??_C@_1BC@FEMKIFH@?$AAD?$AAe?$AAc?$AAe?$AAm?$AAb?$AAe?$AAr?$AA?$AA@ 1005246c     libucrt:nlsdata.obj
 0002:00001480       ??_C@_15ODEHAHHF@?$AAA?$AAM?$AA?$AA@ 10052480     libucrt:nlsdata.obj
 0002:00001488       ??_C@_15CLMNNGEL@?$AAP?$AAM?$AA?$AA@ 10052488     libucrt:nlsdata.obj
 0002:00001490       ??_C@_1BC@IEBCMHCM@?$AAM?$AAM?$AA?1?$AAd?$AAd?$AA?1?$AAy?$AAy?$AA?$AA@ 10052490     libucrt:nlsdata.obj
 0002:000014a4       ??_C@_1CI@KNAKOEBC@?$AAd?$AAd?$AAd?$AAd?$AA?0?$AA?5?$AAM?$AAM?$AAM?$AAM?$AA?5?$AAd?$AAd?$AA?0?$AA?5?$AAy?$AAy?$AAy?$AAy?$AA?$AA@ 100524a4     libucrt:nlsdata.obj
 0002:000014cc       ??_C@_1BC@GDGBMEMK@?$AAH?$AAH?$AA?3?$AAm?$AAm?$AA?3?$AAs?$AAs?$AA?$AA@ 100524cc     libucrt:nlsdata.obj
 0002:000014e0       ??_C@_1M@BMHNFIME@?$AAe?$AAn?$AA?9?$AAU?$AAS?$AA?$AA@ 100524e0     libucrt:nlsdata.obj
 0002:000014f0       ___lc_time_c               100524f0     libucrt:nlsdata.obj
 0002:00001654       ??_C@_03OEIAHPBN@INF?$AA@  10052654     libucrt:cvt.obj
 0002:00001658       ??_C@_03OJHLLCGB@inf?$AA@  10052658     libucrt:cvt.obj
 0002:0000165c       ??_C@_03LKNCIKJB@NAN?$AA@  1005265c     libucrt:cvt.obj
 0002:00001660       ??_C@_03LHCJEHON@nan?$AA@  10052660     libucrt:cvt.obj
 0002:00001664       ??_C@_09OFJJIMPC@NAN?$CISNAN?$CJ?$AA@ 10052664     libucrt:cvt.obj
 0002:00001670       ??_C@_09IPFBKMDL@nan?$CIsnan?$CJ?$AA@ 10052670     libucrt:cvt.obj
 0002:0000167c       ??_C@_08IKHNHAJ@NAN?$CIIND?$CJ?$AA@ 1005267c     libucrt:cvt.obj
 0002:00001688       ??_C@_08OFCDMILK@nan?$CIind?$CJ?$AA@ 10052688     libucrt:cvt.obj
 0002:00001694       ??_C@_05KLBDPFGC@e?$CL000?$AA@ 10052694     libucrt:cvt.obj
 0002:000016f0       ??_C@_1EG@CNNIPFIM@?$AAa?$AAp?$AAi?$AA?9?$AAm?$AAs?$AA?9?$AAw?$AAi?$AAn?$AA?9?$AAa?$AAp?$AAp?$AAm?$AAo?$AAd?$AAe?$AAl?$AA?9?$AAr?$AAu?$AAn?$AAt?$AAi?$AAm?$AAe?$AA?9?$AAl?$AA1?$AA?9?$AA1@ 100526f0     libucrt:winapi_thunks.obj
 0002:00001738       ??_C@_1EA@JGEFHKEI@?$AAa?$AAp?$AAi?$AA?9?$AAm?$AAs?$AA?9?$AAw?$AAi?$AAn?$AA?9?$AAc?$AAo?$AAr?$AAe?$AA?9?$AAd?$AAa?$AAt?$AAe?$AAt?$AAi?$AAm?$AAe?$AA?9?$AAl?$AA1?$AA?9?$AA1?$AA?9?$AA1?$AA?$AA@ 10052738     libucrt:winapi_thunks.obj
 0002:00001778       ??_C@_1DI@GCIAAENM@?$AAa?$AAp?$AAi?$AA?9?$AAm?$AAs?$AA?9?$AAw?$AAi?$AAn?$AA?9?$AAc?$AAo?$AAr?$AAe?$AA?9?$AAf?$AAi?$AAl?$AAe?$AA?9?$AAl?$AA2?$AA?9?$AA1?$AA?9?$AA1?$AA?$AA@ 10052778     libucrt:winapi_thunks.obj
 0002:000017b0       ??_C@_1EI@MPIAOHOC@?$AAa?$AAp?$AAi?$AA?9?$AAm?$AAs?$AA?9?$AAw?$AAi?$AAn?$AA?9?$AAc?$AAo?$AAr?$AAe?$AA?9?$AAl?$AAo?$AAc?$AAa?$AAl?$AAi?$AAz?$AAa?$AAt?$AAi?$AAo?$AAn?$AA?9?$AAl?$AA1?$AA?9@ 100527b0     libucrt:winapi_thunks.obj
 0002:000017f8       ??_C@_1FK@FPHCKFIE@?$AAa?$AAp?$AAi?$AA?9?$AAm?$AAs?$AA?9?$AAw?$AAi?$AAn?$AA?9?$AAc?$AAo?$AAr?$AAe?$AA?9?$AAl?$AAo?$AAc?$AAa?$AAl?$AAi?$AAz?$AAa?$AAt?$AAi?$AAo?$AAn?$AA?9?$AAo?$AAb?$AAs@ 100527f8     libucrt:winapi_thunks.obj
 0002:00001858       ??_C@_1EM@DILCGIIO@?$AAa?$AAp?$AAi?$AA?9?$AAm?$AAs?$AA?9?$AAw?$AAi?$AAn?$AA?9?$AAc?$AAo?$AAr?$AAe?$AA?9?$AAp?$AAr?$AAo?$AAc?$AAe?$AAs?$AAs?$AAt?$AAh?$AAr?$AAe?$AAa?$AAd?$AAs?$AA?9?$AAl@ 10052858     libucrt:winapi_thunks.obj
 0002:000018a4       ??_C@_1DM@LNCGDDPN@?$AAa?$AAp?$AAi?$AA?9?$AAm?$AAs?$AA?9?$AAw?$AAi?$AAn?$AA?9?$AAc?$AAo?$AAr?$AAe?$AA?9?$AAs?$AAt?$AAr?$AAi?$AAn?$AAg?$AA?9?$AAl?$AA1?$AA?9?$AA1?$AA?9?$AA0?$AA?$AA@ 100528a4     libucrt:winapi_thunks.obj
 0002:000018e0       ??_C@_1DO@FPAPJEMD@?$AAa?$AAp?$AAi?$AA?9?$AAm?$AAs?$AA?9?$AAw?$AAi?$AAn?$AA?9?$AAc?$AAo?$AAr?$AAe?$AA?9?$AAs?$AAy?$AAs?$AAi?$AAn?$AAf?$AAo?$AA?9?$AAl?$AA1?$AA?9?$AA2?$AA?9?$AA1?$AA?$AA@ 100528e0     libucrt:winapi_thunks.obj
 0002:00001920       ??_C@_1DK@NDHNAHIO@?$AAa?$AAp?$AAi?$AA?9?$AAm?$AAs?$AA?9?$AAw?$AAi?$AAn?$AA?9?$AAc?$AAo?$AAr?$AAe?$AA?9?$AAw?$AAi?$AAn?$AAr?$AAt?$AA?9?$AAl?$AA1?$AA?9?$AA1?$AA?9?$AA0?$AA?$AA@ 10052920     libucrt:winapi_thunks.obj
 0002:0000195c       ??_C@_1DM@KGHDGBCM@?$AAa?$AAp?$AAi?$AA?9?$AAm?$AAs?$AA?9?$AAw?$AAi?$AAn?$AA?9?$AAc?$AAo?$AAr?$AAe?$AA?9?$AAx?$AAs?$AAt?$AAa?$AAt?$AAe?$AA?9?$AAl?$AA2?$AA?9?$AA1?$AA?9?$AA0?$AA?$AA@ 1005295c     libucrt:winapi_thunks.obj
 0002:00001998       ??_C@_1EO@IJIOEFOH@?$AAa?$AAp?$AAi?$AA?9?$AAm?$AAs?$AA?9?$AAw?$AAi?$AAn?$AA?9?$AAr?$AAt?$AAc?$AAo?$AAr?$AAe?$AA?9?$AAn?$AAt?$AAu?$AAs?$AAe?$AAr?$AA?9?$AAw?$AAi?$AAn?$AAd?$AAo?$AAw?$AA?9@ 10052998     libucrt:winapi_thunks.obj
 0002:000019e8       ??_C@_1FG@HHGEKANL@?$AAa?$AAp?$AAi?$AA?9?$AAm?$AAs?$AA?9?$AAw?$AAi?$AAn?$AA?9?$AAs?$AAe?$AAc?$AAu?$AAr?$AAi?$AAt?$AAy?$AA?9?$AAs?$AAy?$AAs?$AAt?$AAe?$AAm?$AAf?$AAu?$AAn?$AAc?$AAt?$AAi@ 100529e8     libucrt:winapi_thunks.obj
 0002:00001a40       ??_C@_1FG@NCKKOLKO@?$AAe?$AAx?$AAt?$AA?9?$AAm?$AAs?$AA?9?$AAw?$AAi?$AAn?$AA?9?$AAk?$AAe?$AAr?$AAn?$AAe?$AAl?$AA3?$AA2?$AA?9?$AAp?$AAa?$AAc?$AAk?$AAa?$AAg?$AAe?$AA?9?$AAc?$AAu?$AAr?$AAr@ 10052a40     libucrt:winapi_thunks.obj
 0002:00001a98       ??_C@_1EG@DBIOJECG@?$AAe?$AAx?$AAt?$AA?9?$AAm?$AAs?$AA?9?$AAw?$AAi?$AAn?$AA?9?$AAn?$AAt?$AAu?$AAs?$AAe?$AAr?$AA?9?$AAd?$AAi?$AAa?$AAl?$AAo?$AAg?$AAb?$AAo?$AAx?$AA?9?$AAl?$AA1?$AA?9?$AA1@ 10052a98     libucrt:winapi_thunks.obj
 0002:00001ae0       ??_C@_1EO@FIHMJCLF@?$AAe?$AAx?$AAt?$AA?9?$AAm?$AAs?$AA?9?$AAw?$AAi?$AAn?$AA?9?$AAn?$AAt?$AAu?$AAs?$AAe?$AAr?$AA?9?$AAw?$AAi?$AAn?$AAd?$AAo?$AAw?$AAs?$AAt?$AAa?$AAt?$AAi?$AAo?$AAn?$AA?9@ 10052ae0     libucrt:winapi_thunks.obj
 0002:00001b30       ??_C@_1O@BCCLBEOE@?$AAu?$AAs?$AAe?$AAr?$AA3?$AA2?$AA?$AA@ 10052b30     libucrt:winapi_thunks.obj
 0002:00001b44       ??_C@_0BA@FHFNEAED@AreFileApisANSI?$AA@ 10052b44     libucrt:winapi_thunks.obj
 0002:00001b7c       ??_C@_0BA@HNOPNCHB@GetActiveWindow?$AA@ 10052b7c     libucrt:winapi_thunks.obj
 0002:00001b94       ??_C@_0BE@JOGNEJCI@GetCurrentPackageId?$AA@ 10052b94     libucrt:winapi_thunks.obj
 0002:00001bb0       ??_C@_0BD@HHGDFDBJ@GetLastActivePopup?$AA@ 10052bb0     libucrt:winapi_thunks.obj
 0002:00001bcc       ??_C@_0BI@DFKBFLJE@GetProcessWindowStation?$AA@ 10052bcc     libucrt:winapi_thunks.obj
 0002:00001bec       ??_C@_0BK@DEKFELLI@GetUserObjectInformationW?$AA@ 10052bec     libucrt:winapi_thunks.obj
 0002:00001c18       ??_C@_0O@KKBNKAPF@LCMapStringEx?$AA@ 10052c18     libucrt:winapi_thunks.obj
 0002:00001c30       ??_C@_0BB@HBDEELFH@LocaleNameToLCID?$AA@ 10052c30     libucrt:winapi_thunks.obj
 0002:00001c4c       ??_C@_0M@CHKKJDAI@MessageBoxA?$AA@ 10052c4c     libucrt:winapi_thunks.obj
 0002:00001c60       ??_C@_0M@DLDCCGNP@MessageBoxW?$AA@ 10052c60     libucrt:winapi_thunks.obj
 0002:00001c70       ??_C@_0N@PPOMPGGK@RoInitialize?$AA@ 10052c70     libucrt:winapi_thunks.obj
 0002:00001c84       ??_C@_0P@LLFHBIJD@RoUninitialize?$AA@ 10052c84     libucrt:winapi_thunks.obj
 0002:00001c94       ?ccs@?BL@???$__acrt_stdio_parse_mode@D@@YA?AU__acrt_stdio_stream_mode@@QBD@Z@4QBDB 10052c94     libucrt:openfile.obj
 0002:00001c98       ?utf8_encoding@?BL@???$__acrt_stdio_parse_mode@D@@YA?AU__acrt_stdio_stream_mode@@QBD@Z@4QBDB 10052c98     libucrt:openfile.obj
 0002:00001ca0       ?utf16_encoding@?BL@???$__acrt_stdio_parse_mode@D@@YA?AU__acrt_stdio_stream_mode@@QBD@Z@4QBDB 10052ca0     libucrt:openfile.obj
 0002:00001ca8       ?unicode_encoding@?BL@???$__acrt_stdio_parse_mode@D@@YA?AU__acrt_stdio_stream_mode@@QBD@Z@4QBDB 10052ca8     libucrt:openfile.obj
 0002:00001cb0       __sys_errlist              10052cb0     libucrt:syserr.obj
 0002:00001d60       ??_C@_08INEPGKHH@No?5error?$AA@ 10052d60     libucrt:syserr.obj
 0002:00001d6c       ??_C@_0BI@BJFCGOHL@Operation?5not?5permitted?$AA@ 10052d6c     libucrt:syserr.obj
 0002:00001d84       ??_C@_0BK@FMDHKPNF@No?5such?5file?5or?5directory?$AA@ 10052d84     libucrt:syserr.obj
 0002:00001da0       ??_C@_0BA@FKIAIBGA@No?5such?5process?$AA@ 10052da0     libucrt:syserr.obj
 0002:00001db0       ??_C@_0BK@FJBOAFDK@Interrupted?5function?5call?$AA@ 10052db0     libucrt:syserr.obj
 0002:00001dcc       ??_C@_0BD@KKNFOBBD@Input?1output?5error?$AA@ 10052dcc     libucrt:syserr.obj
 0002:00001de0       ??_C@_0BK@DPKMCKJ@No?5such?5device?5or?5address?$AA@ 10052de0     libucrt:syserr.obj
 0002:00001dfc       ??_C@_0BC@MFFGCDFL@Arg?5list?5too?5long?$AA@ 10052dfc     libucrt:syserr.obj
 0002:00001e10       ??_C@_0BC@HKPNECK@Exec?5format?5error?$AA@ 10052e10     libucrt:syserr.obj
 0002:00001e24       ??_C@_0BE@NFGDDCEF@Bad?5file?5descriptor?$AA@ 10052e24     libucrt:syserr.obj
 0002:00001e38       ??_C@_0BD@LOHELEP@No?5child?5processes?$AA@ 10052e38     libucrt:syserr.obj
 0002:00001e4c       ??_C@_0CB@EPFKGNAK@Resource?5temporarily?5unavailable@ 10052e4c     libucrt:syserr.obj
 0002:00001e70       ??_C@_0BB@IMDKMPFB@Not?5enough?5space?$AA@ 10052e70     libucrt:syserr.obj
 0002:00001e84       ??_C@_0BC@HFNFNKAI@Permission?5denied?$AA@ 10052e84     libucrt:syserr.obj
 0002:00001e98       ??_C@_0M@LOEHLCJD@Bad?5address?$AA@ 10052e98     libucrt:syserr.obj
 0002:00001ea4       ??_C@_0O@NIPGCINC@Unknown?5error?$AA@ 10052ea4     libucrt:syserr.obj
 0002:00001eb4       ??_C@_0BA@BIBLIOEK@Resource?5device?$AA@ 10052eb4     libucrt:syserr.obj
 0002:00001ec4       ??_C@_0M@NAAJNNGH@File?5exists?$AA@ 10052ec4     libucrt:syserr.obj
 0002:00001ed0       ??_C@_0O@OAMDNOCP@Improper?5link?$AA@ 10052ed0     libucrt:syserr.obj
 0002:00001ee0       ??_C@_0P@NLEIANHE@No?5such?5device?$AA@ 10052ee0     libucrt:syserr.obj
 0002:00001ef0       ??_C@_0BA@CJBACOOL@Not?5a?5directory?$AA@ 10052ef0     libucrt:syserr.obj
 0002:00001f00       ??_C@_0P@NDHGCGKE@Is?5a?5directory?$AA@ 10052f00     libucrt:syserr.obj
 0002:00001f10       ??_C@_0BB@HMGGCEBG@Invalid?5argument?$AA@ 10052f10     libucrt:syserr.obj
 0002:00001f24       ??_C@_0BO@IIFBODJE@Too?5many?5open?5files?5in?5system?$AA@ 10052f24     libucrt:syserr.obj
 0002:00001f44       ??_C@_0BE@INBJMKGG@Too?5many?5open?5files?$AA@ 10052f44     libucrt:syserr.obj
 0002:00001f58       ??_C@_0CE@ONOKNLPF@Inappropriate?5I?1O?5control?5operat@ 10052f58     libucrt:syserr.obj
 0002:00001f7c       ??_C@_0P@LFMMIPAE@File?5too?5large?$AA@ 10052f7c     libucrt:syserr.obj
 0002:00001f8c       ??_C@_0BI@FEALHKLD@No?5space?5left?5on?5device?$AA@ 10052f8c     libucrt:syserr.obj
 0002:00001fa4       ??_C@_0N@FEHLOILP@Invalid?5seek?$AA@ 10052fa4     libucrt:syserr.obj
 0002:00001fb4       ??_C@_0BG@DDBFNKBH@Read?9only?5file?5system?$AA@ 10052fb4     libucrt:syserr.obj
 0002:00001fcc       ??_C@_0P@PKCJJLLM@Too?5many?5links?$AA@ 10052fcc     libucrt:syserr.obj
 0002:00001fdc       ??_C@_0M@LHEPIIOM@Broken?5pipe?$AA@ 10052fdc     libucrt:syserr.obj
 0002:00001fe8       ??_C@_0N@MMJPGLJK@Domain?5error?$AA@ 10052fe8     libucrt:syserr.obj
 0002:00001ff8       ??_C@_0BB@FCBJFCAJ@Result?5too?5large?$AA@ 10052ff8     libucrt:syserr.obj
 0002:0000200c       ??_C@_0BK@JAEBMJJM@Resource?5deadlock?5avoided?$AA@ 1005300c     libucrt:syserr.obj
 0002:00002028       ??_C@_0BC@BEDIHIDK@Filename?5too?5long?$AA@ 10053028     libucrt:syserr.obj
 0002:0000203c       ??_C@_0BD@CLHBCGPB@No?5locks?5available?$AA@ 1005303c     libucrt:syserr.obj
 0002:00002050       ??_C@_0BJ@IHEHINLI@Function?5not?5implemented?$AA@ 10053050     libucrt:syserr.obj
 0002:0000206c       ??_C@_0BE@ICMCHPHH@Directory?5not?5empty?$AA@ 1005306c     libucrt:syserr.obj
 0002:00002080       ??_C@_0BG@KLEAJEFJ@Illegal?5byte?5sequence?$AA@ 10053080     libucrt:syserr.obj
 0002:00002098       __sys_nerr                 10053098     libucrt:syserr.obj
 0002:000020ac       ??_C@_1M@HPNHIDJI@?$AAj?$AAa?$AA?9?$AAJ?$AAP?$AA?$AA@ 100530ac     libucrt:mbctype.obj
 0002:000020b8       ??_C@_1M@BIBDDEMK@?$AAz?$AAh?$AA?9?$AAC?$AAN?$AA?$AA@ 100530b8     libucrt:mbctype.obj
 0002:000020c4       ??_C@_1M@JLOOOEGK@?$AAk?$AAo?$AA?9?$AAK?$AAR?$AA?$AA@ 100530c4     libucrt:mbctype.obj
 0002:000020d0       ??_C@_1M@CLNBBOPM@?$AAz?$AAh?$AA?9?$AAT?$AAW?$AA?$AA@ 100530d0     libucrt:mbctype.obj
 0002:000020e0       __wctype                   100530e0     libucrt:ctype.obj
 0002:000022e8       ___newctype                100532e8     libucrt:ctype.obj
 0002:000025e8       ___newclmap                100535e8     libucrt:ctype.obj
 0002:00002768       ___newcumap                10053768     libucrt:ctype.obj
 0002:000028e8       ??_C@_15PJPFLCCM@?$AAu?$AAk?$AA?$AA@ 100538e8     libucrt:get_qualified_locale.obj
 0002:000028f0       ?large_power_data@?1??multiply_by_power_of_ten@__crt_strtox@@YA_NAAUbig_integer@2@I@Z@4QBIB 100538f0     libucrt:cfout.obj
 0002:000031f8       ?large_power_indices@?1??multiply_by_power_of_ten@__crt_strtox@@YA_NAAUbig_integer@2@I@Z@4QBUunpack_index@?1??12@YA_N0I@Z@B 100541f8     libucrt:cfout.obj
 0002:00003290       ?small_powers_of_ten@?6??multiply_by_power_of_ten@__crt_strtox@@YA_NAAUbig_integer@2@I@Z@4QBIB 10054290     libucrt:cfout.obj
 0002:000032b4       ??_C@_01GBGANLPD@0?$AA@    100542b4     libucrt:cfout.obj
 0002:000032b8       ??_C@_05DNEBIAHO@1?$CDINF?$AA@ 100542b8     libucrt:cfout.obj
 0002:000032c0       ??_C@_06IMKFLFPG@1?$CDQNAN?$AA@ 100542c0     libucrt:cfout.obj
 0002:000032c8       ??_C@_06PGGFOGJG@1?$CDSNAN?$AA@ 100542c8     libucrt:cfout.obj
 0002:000032d0       ??_C@_05PHHOCPM@1?$CDIND?$AA@ 100542d0     libucrt:cfout.obj
 0002:000039f8       ??_C@_15EMKDOKLE@?$AAa?$AAr?$AA?$AA@ 100549f8     libucrt:lcidtoname_downlevel.obj
 0002:00003a00       ??_C@_15KNPADPLH@?$AAb?$AAg?$AA?$AA@ 10054a00     libucrt:lcidtoname_downlevel.obj
 0002:00003a08       ??_C@_15EDMHLDMO@?$AAc?$AAa?$AA?$AA@ 10054a08     libucrt:lcidtoname_downlevel.obj
 0002:00003a10       ??_C@_1O@BPEAJADD@?$AAz?$AAh?$AA?9?$AAC?$AAH?$AAS?$AA?$AA@ 10054a10     libucrt:lcidtoname_downlevel.obj
 0002:00003a20       ??_C@_15LJNHCMNK@?$AAc?$AAs?$AA?$AA@ 10054a20     libucrt:lcidtoname_downlevel.obj
 0002:00003a28       ??_C@_15FOMCIDHG@?$AAd?$AAa?$AA?$AA@ 10054a28     libucrt:lcidtoname_downlevel.obj
 0002:00003a30       ??_C@_15NBKABECB@?$AAd?$AAe?$AA?$AA@ 10054a30     libucrt:lcidtoname_downlevel.obj
 0002:00003a38       ??_C@_15GHPEIIAO@?$AAe?$AAl?$AA?$AA@ 10054a38     libucrt:lcidtoname_downlevel.obj
 0002:00003a40       ??_C@_15MNPNEAIF@?$AAe?$AAn?$AA?$AA@ 10054a40     libucrt:lcidtoname_downlevel.obj
 0002:00003a48       ??_C@_15GPIOMPMH@?$AAe?$AAs?$AA?$AA@ 10054a48     libucrt:lcidtoname_downlevel.obj
 0002:00003a50       ??_C@_15NGLOAKJC@?$AAf?$AAi?$AA?$AA@ 10054a50     libucrt:lcidtoname_downlevel.obj
 0002:00003a58       ??_C@_15FBKGNKAM@?$AAf?$AAr?$AA?$AA@ 10054a58     libucrt:lcidtoname_downlevel.obj
 0002:00003a60       ??_C@_15KGGCNEFK@?$AAh?$AAe?$AA?$AA@ 10054a60     libucrt:lcidtoname_downlevel.obj
 0002:00003a68       ??_C@_15PGHLIDMF@?$AAh?$AAu?$AA?$AA@ 10054a68     libucrt:lcidtoname_downlevel.obj
 0002:00003a70       ??_C@_15BIEMAPLM@?$AAi?$AAs?$AA?$AA@ 10054a70     libucrt:lcidtoname_downlevel.obj
 0002:00003a78       ??_C@_15IFJLDHAF@?$AAi?$AAt?$AA?$AA@ 10054a78     libucrt:lcidtoname_downlevel.obj
 0002:00003a80       ??_C@_15GEMIOCAG@?$AAj?$AAa?$AA?$AA@ 10054a80     libucrt:lcidtoname_downlevel.obj
 0002:00003a88       ??_C@_15EPELEGJA@?$AAk?$AAo?$AA?$AA@ 10054a88     libucrt:lcidtoname_downlevel.obj
 0002:00003a90       ??_C@_15NDDHIMN@?$AAn?$AAl?$AA?$AA@ 10054a90     libucrt:lcidtoname_downlevel.obj
 0002:00003a98       ??_C@_15BPIGNHCD@?$AAn?$AAo?$AA?$AA@ 10054a98     libucrt:lcidtoname_downlevel.obj
 0002:00003aa0       ??_C@_15DEOPBLCG@?$AAp?$AAl?$AA?$AA@ 10054aa0     libucrt:lcidtoname_downlevel.obj
 0002:00003aa8       ??_C@_15KBECGEFG@?$AAp?$AAt?$AA?$AA@ 10054aa8     libucrt:lcidtoname_downlevel.obj
 0002:00003ab0       ??_C@_15GLJCBFMD@?$AAr?$AAo?$AA?$AA@ 10054ab0     libucrt:lcidtoname_downlevel.obj
 0002:00003ab8       ??_C@_15FEDGKCDI@?$AAr?$AAu?$AA?$AA@ 10054ab8     libucrt:lcidtoname_downlevel.obj
 0002:00003ac0       ??_C@_15GLKMLLHM@?$AAh?$AAr?$AA?$AA@ 10054ac0     libucrt:lcidtoname_downlevel.obj
 0002:00003ac8       ??_C@_15CPKMFBDB@?$AAs?$AAk?$AA?$AA@ 10054ac8     libucrt:lcidtoname_downlevel.obj
 0002:00003ad0       ??_C@_15BAAIOGMK@?$AAs?$AAq?$AA?$AA@ 10054ad0     libucrt:lcidtoname_downlevel.obj
 0002:00003ad8       ??_C@_15INNPNOHD@?$AAs?$AAv?$AA?$AA@ 10054ad8     libucrt:lcidtoname_downlevel.obj
 0002:00003ae0       ??_C@_15CABMMOGH@?$AAt?$AAh?$AA?$AA@ 10054ae0     libucrt:lcidtoname_downlevel.obj
 0002:00003ae8       ??_C@_15BPLIHJJM@?$AAt?$AAr?$AA?$AA@ 10054ae8     libucrt:lcidtoname_downlevel.obj
 0002:00003af0       ??_C@_15NEOEKKDJ@?$AAu?$AAr?$AA?$AA@ 10054af0     libucrt:lcidtoname_downlevel.obj
 0002:00003af8       ??_C@_15NFICGAJK@?$AAi?$AAd?$AA?$AA@ 10054af8     libucrt:lcidtoname_downlevel.obj
 0002:00003b00       ??_C@_15HPJPHDM@?$AAb?$AAe?$AA?$AA@ 10054b00     libucrt:lcidtoname_downlevel.obj
 0002:00003b08       ??_C@_15LCHLGJII@?$AAs?$AAl?$AA?$AA@ 10054b08     libucrt:lcidtoname_downlevel.obj
 0002:00003b10       ??_C@_15PCFJPHHO@?$AAe?$AAt?$AA?$AA@ 10054b10     libucrt:lcidtoname_downlevel.obj
 0002:00003b18       ??_C@_15HPFPGODN@?$AAl?$AAv?$AA?$AA@ 10054b18     libucrt:lcidtoname_downlevel.obj
 0002:00003b20       ??_C@_15NFFGKGLG@?$AAl?$AAt?$AA?$AA@ 10054b20     libucrt:lcidtoname_downlevel.obj
 0002:00003b28       ??_C@_15BDAKCCHN@?$AAf?$AAa?$AA?$AA@ 10054b28     libucrt:lcidtoname_downlevel.obj
 0002:00003b30       ??_C@_15NFGIAIAJ@?$AAv?$AAi?$AA?$AA@ 10054b30     libucrt:lcidtoname_downlevel.obj
 0002:00003b38       ??_C@_15LMKNDMHN@?$AAh?$AAy?$AA?$AA@ 10054b38     libucrt:lcidtoname_downlevel.obj
 0002:00003b40       ??_C@_15IJBHMCFL@?$AAa?$AAz?$AA?$AA@ 10054b40     libucrt:lcidtoname_downlevel.obj
 0002:00003b48       ??_C@_15EKOFJABL@?$AAe?$AAu?$AA?$AA@ 10054b48     libucrt:lcidtoname_downlevel.obj
 0002:00003b50       ??_C@_15BGHADCNK@?$AAm?$AAk?$AA?$AA@ 10054b50     libucrt:lcidtoname_downlevel.obj
 0002:00003b58       ??_C@_15JDNICKHM@?$AAa?$AAf?$AA?$AA@ 10054b58     libucrt:lcidtoname_downlevel.obj
 0002:00003b60       ??_C@_15KPJEDBKD@?$AAk?$AAa?$AA?$AA@ 10054b60     libucrt:lcidtoname_downlevel.obj
 0002:00003b68       ??_C@_15PDNFFFEO@?$AAf?$AAo?$AA?$AA@ 10054b68     libucrt:lcidtoname_downlevel.obj
 0002:00003b70       ??_C@_15OMLEGLOC@?$AAh?$AAi?$AA?$AA@ 10054b70     libucrt:lcidtoname_downlevel.obj
 0002:00003b78       ??_C@_15IDNNENKK@?$AAm?$AAs?$AA?$AA@ 10054b78     libucrt:lcidtoname_downlevel.obj
 0002:00003b80       ??_C@_15MACJNBMH@?$AAk?$AAk?$AA?$AA@ 10054b80     libucrt:lcidtoname_downlevel.obj
 0002:00003b88       ??_C@_15DKDJEOND@?$AAk?$AAy?$AA?$AA@ 10054b88     libucrt:lcidtoname_downlevel.obj
 0002:00003b90       ??_C@_15DFGDLJBG@?$AAs?$AAw?$AA?$AA@ 10054b90     libucrt:lcidtoname_downlevel.obj
 0002:00003b98       ??_C@_15BBFAICNG@?$AAu?$AAz?$AA?$AA@ 10054b98     libucrt:lcidtoname_downlevel.obj
 0002:00003ba0       ??_C@_15DKNDCGEA@?$AAt?$AAt?$AA?$AA@ 10054ba0     libucrt:lcidtoname_downlevel.obj
 0002:00003ba8       ??_C@_15MGIFMDPL@?$AAp?$AAa?$AA?$AA@ 10054ba8     libucrt:lcidtoname_downlevel.obj
 0002:00003bb0       ??_C@_15HCNDBBA@?$AAg?$AAu?$AA?$AA@ 10054bb0     libucrt:lcidtoname_downlevel.obj
 0002:00003bb8       ??_C@_15FNBEIBON@?$AAt?$AAa?$AA?$AA@ 10054bb8     libucrt:lcidtoname_downlevel.obj
 0002:00003bc0       ??_C@_15NCHGBGLK@?$AAt?$AAe?$AA?$AA@ 10054bc0     libucrt:lcidtoname_downlevel.obj
 0002:00003bc8       ??_C@_15PHPHCBPF@?$AAk?$AAn?$AA?$AA@ 10054bc8     libucrt:lcidtoname_downlevel.obj
 0002:00003bd0       ??_C@_15DLGBCKMP@?$AAm?$AAr?$AA?$AA@ 10054bd0     libucrt:lcidtoname_downlevel.obj
 0002:00003bd8       ??_C@_15EABBLBFF@?$AAs?$AAa?$AA?$AA@ 10054bd8     libucrt:lcidtoname_downlevel.obj
 0002:00003be0       ??_C@_15CBKOMCOI@?$AAm?$AAn?$AA?$AA@ 10054be0     libucrt:lcidtoname_downlevel.obj
 0002:00003be8       ??_C@_15CKDMCJAF@?$AAg?$AAl?$AA?$AA@ 10054be8     libucrt:lcidtoname_downlevel.obj
 0002:00003bf0       ??_C@_17CNJFBPG@?$AAk?$AAo?$AAk?$AA?$AA@ 10054bf0     libucrt:lcidtoname_downlevel.obj
 0002:00003bf8       ??_C@_17FFBJICPL@?$AAs?$AAy?$AAr?$AA?$AA@ 10054bf8     libucrt:lcidtoname_downlevel.obj
 0002:00003c00       ??_C@_17KPNDCPAF@?$AAd?$AAi?$AAv?$AA?$AA@ 10054c00     libucrt:lcidtoname_downlevel.obj
 0002:00003c08       ??_C@_11LOCGONAA@?$AA?$AA@ 10054c08     libucrt:lcidtoname_downlevel.obj
 0002:00003c0c       ??_C@_1M@OKAHONE@?$AAa?$AAr?$AA?9?$AAS?$AAA?$AA?$AA@ 10054c0c     libucrt:lcidtoname_downlevel.obj
 0002:00003c18       ??_C@_1M@FFFIGIGK@?$AAb?$AAg?$AA?9?$AAB?$AAG?$AA?$AA@ 10054c18     libucrt:lcidtoname_downlevel.obj
 0002:00003c24       ??_C@_1M@BJNKEDC@?$AAc?$AAa?$AA?9?$AAE?$AAS?$AA?$AA@ 10054c24     libucrt:lcidtoname_downlevel.obj
 0002:00003c30       ??_C@_1M@IJJHFJHA@?$AAc?$AAs?$AA?9?$AAC?$AAZ?$AA?$AA@ 10054c30     libucrt:lcidtoname_downlevel.obj
 0002:00003c3c       ??_C@_1M@CLPEOBGI@?$AAd?$AAa?$AA?9?$AAD?$AAK?$AA?$AA@ 10054c3c     libucrt:lcidtoname_downlevel.obj
 0002:00003c48       ??_C@_1M@MCMADGCB@?$AAd?$AAe?$AA?9?$AAD?$AAE?$AA?$AA@ 10054c48     libucrt:lcidtoname_downlevel.obj
 0002:00003c54       ??_C@_1M@OOCKEMAM@?$AAe?$AAl?$AA?9?$AAG?$AAR?$AA?$AA@ 10054c54     libucrt:lcidtoname_downlevel.obj
 0002:00003c60       ??_C@_1M@DDNJFGID@?$AAf?$AAi?$AA?9?$AAF?$AAI?$AA?$AA@ 10054c60     libucrt:lcidtoname_downlevel.obj
 0002:00003c6c       ??_C@_1M@GLIPPMAC@?$AAf?$AAr?$AA?9?$AAF?$AAR?$AA?$AA@ 10054c6c     libucrt:lcidtoname_downlevel.obj
 0002:00003c78       ??_C@_1M@GFMCHPE@?$AAh?$AAe?$AA?9?$AAI?$AAL?$AA?$AA@ 10054c78     libucrt:lcidtoname_downlevel.obj
 0002:00003c84       ??_C@_1M@MHLPGNKM@?$AAh?$AAu?$AA?9?$AAH?$AAU?$AA?$AA@ 10054c84     libucrt:lcidtoname_downlevel.obj
 0002:00003c90       ??_C@_1M@LPDDNNPN@?$AAi?$AAs?$AA?9?$AAI?$AAS?$AA?$AA@ 10054c90     libucrt:lcidtoname_downlevel.obj
 0002:00003c9c       ??_C@_1M@MADIPODN@?$AAi?$AAt?$AA?9?$AAI?$AAT?$AA?$AA@ 10054c9c     libucrt:lcidtoname_downlevel.obj
 0002:00003ca8       ??_C@_1M@IHBJJGG@?$AAn?$AAl?$AA?9?$AAN?$AAL?$AA?$AA@ 10054ca8     libucrt:lcidtoname_downlevel.obj
 0002:00003cb4       ??_C@_1M@EANAGDL@?$AAn?$AAb?$AA?9?$AAN?$AAO?$AA?$AA@ 10054cb4     libucrt:lcidtoname_downlevel.obj
 0002:00003cc0       ??_C@_1M@NEIEMEGP@?$AAp?$AAl?$AA?9?$AAP?$AAL?$AA?$AA@ 10054cc0     libucrt:lcidtoname_downlevel.obj
 0002:00003ccc       ??_C@_1M@BOCFIGEP@?$AAp?$AAt?$AA?9?$AAB?$AAR?$AA?$AA@ 10054ccc     libucrt:lcidtoname_downlevel.obj
 0002:00003cd8       ??_C@_1M@IMPFOPBG@?$AAr?$AAo?$AA?9?$AAR?$AAO?$AA?$AA@ 10054cd8     libucrt:lcidtoname_downlevel.obj
 0002:00003ce4       ??_C@_1M@IDNNEJMM@?$AAr?$AAu?$AA?9?$AAR?$AAU?$AA?$AA@ 10054ce4     libucrt:lcidtoname_downlevel.obj
 0002:00003cf0       ??_C@_1M@LILEEOGM@?$AAh?$AAr?$AA?9?$AAH?$AAR?$AA?$AA@ 10054cf0     libucrt:lcidtoname_downlevel.obj
 0002:00003cfc       ??_C@_1M@FKIFEHPB@?$AAs?$AAk?$AA?9?$AAS?$AAK?$AA?$AA@ 10054cfc     libucrt:lcidtoname_downlevel.obj
 0002:00003d08       ??_C@_1M@LJMAMNPJ@?$AAs?$AAq?$AA?9?$AAA?$AAL?$AA?$AA@ 10054d08     libucrt:lcidtoname_downlevel.obj
 0002:00003d14       ??_C@_1M@GIAKDKJK@?$AAs?$AAv?$AA?9?$AAS?$AAE?$AA?$AA@ 10054d14     libucrt:lcidtoname_downlevel.obj
 0002:00003d20       ??_C@_1M@MKJKIKCL@?$AAt?$AAh?$AA?9?$AAT?$AAH?$AA?$AA@ 10054d20     libucrt:lcidtoname_downlevel.obj
 0002:00003d2c       ??_C@_1M@MFLCCMPB@?$AAt?$AAr?$AA?9?$AAT?$AAR?$AA?$AA@ 10054d2c     libucrt:lcidtoname_downlevel.obj
 0002:00003d38       ??_C@_1M@OIJHDKJN@?$AAu?$AAr?$AA?9?$AAP?$AAK?$AA?$AA@ 10054d38     libucrt:lcidtoname_downlevel.obj
 0002:00003d44       ??_C@_1M@LHIPCIEK@?$AAi?$AAd?$AA?9?$AAI?$AAD?$AA?$AA@ 10054d44     libucrt:lcidtoname_downlevel.obj
 0002:00003d50       ??_C@_1M@MFMOBGI@?$AAu?$AAk?$AA?9?$AAU?$AAA?$AA?$AA@ 10054d50     libucrt:lcidtoname_downlevel.obj
 0002:00003d5c       ??_C@_1M@OBGLJIPL@?$AAb?$AAe?$AA?9?$AAB?$AAY?$AA?$AA@ 10054d5c     libucrt:lcidtoname_downlevel.obj
 0002:00003d68       ??_C@_1M@BCFAJEAD@?$AAs?$AAl?$AA?9?$AAS?$AAI?$AA?$AA@ 10054d68     libucrt:lcidtoname_downlevel.obj
 0002:00003d74       ??_C@_1M@FKFFEDDN@?$AAe?$AAt?$AA?9?$AAE?$AAE?$AA?$AA@ 10054d74     libucrt:lcidtoname_downlevel.obj
 0002:00003d80       ??_C@_1M@KGKKAACI@?$AAl?$AAv?$AA?9?$AAL?$AAV?$AA?$AA@ 10054d80     libucrt:lcidtoname_downlevel.obj
 0002:00003d8c       ??_C@_1M@IFGBIJO@?$AAl?$AAt?$AA?9?$AAL?$AAT?$AA?$AA@ 10054d8c     libucrt:lcidtoname_downlevel.obj
 0002:00003d98       ??_C@_1M@FGEAHEDM@?$AAf?$AAa?$AA?9?$AAI?$AAR?$AA?$AA@ 10054d98     libucrt:lcidtoname_downlevel.obj
 0002:00003da4       ??_C@_1M@KBMAIBFN@?$AAv?$AAi?$AA?9?$AAV?$AAN?$AA?$AA@ 10054da4     libucrt:lcidtoname_downlevel.obj
 0002:00003db0       ??_C@_1M@GPCBKDJK@?$AAh?$AAy?$AA?9?$AAA?$AAM?$AA?$AA@ 10054db0     libucrt:lcidtoname_downlevel.obj
 0002:00003dbc       ??_C@_1BG@BECMDDJB@?$AAa?$AAz?$AA?9?$AAA?$AAZ?$AA?9?$AAL?$AAa?$AAt?$AAn?$AA?$AA@ 10054dbc     libucrt:lcidtoname_downlevel.obj
 0002:00003dd4       ??_C@_1M@MAOFCAEA@?$AAe?$AAu?$AA?9?$AAE?$AAS?$AA?$AA@ 10054dd4     libucrt:lcidtoname_downlevel.obj
 0002:00003de0       ??_C@_1M@IGHABKPI@?$AAm?$AAk?$AA?9?$AAM?$AAK?$AA?$AA@ 10054de0     libucrt:lcidtoname_downlevel.obj
 0002:00003dec       ??_C@_1M@IAIGNEJG@?$AAt?$AAn?$AA?9?$AAZ?$AAA?$AA?$AA@ 10054dec     libucrt:lcidtoname_downlevel.obj
 0002:00003df8       ??_C@_1M@IIJCOJFA@?$AAx?$AAh?$AA?9?$AAZ?$AAA?$AA?$AA@ 10054df8     libucrt:lcidtoname_downlevel.obj
 0002:00003e04       ??_C@_1M@LGPJHNJH@?$AAz?$AAu?$AA?9?$AAZ?$AAA?$AA?$AA@ 10054e04     libucrt:lcidtoname_downlevel.obj
 0002:00003e10       ??_C@_1M@HOKAOIO@?$AAa?$AAf?$AA?9?$AAZ?$AAA?$AA?$AA@ 10054e10     libucrt:lcidtoname_downlevel.obj
 0002:00003e1c       ??_C@_1M@DPCLHLIE@?$AAk?$AAa?$AA?9?$AAG?$AAE?$AA?$AA@ 10054e1c     libucrt:lcidtoname_downlevel.obj
 0002:00003e28       ??_C@_1M@BLKMHJBI@?$AAf?$AAo?$AA?9?$AAF?$AAO?$AA?$AA@ 10054e28     libucrt:lcidtoname_downlevel.obj
 0002:00003e34       ??_C@_1M@LGGJAPPB@?$AAh?$AAi?$AA?9?$AAI?$AAN?$AA?$AA@ 10054e34     libucrt:lcidtoname_downlevel.obj
 0002:00003e40       ??_C@_1M@FIKPIHFE@?$AAm?$AAt?$AA?9?$AAM?$AAT?$AA?$AA@ 10054e40     libucrt:lcidtoname_downlevel.obj
 0002:00003e4c       ??_C@_1M@HEGGPBFA@?$AAs?$AAe?$AA?9?$AAN?$AAO?$AA?$AA@ 10054e4c     libucrt:lcidtoname_downlevel.obj
 0002:00003e58       ??_C@_1M@EIBJEEPA@?$AAm?$AAs?$AA?9?$AAM?$AAY?$AA?$AA@ 10054e58     libucrt:lcidtoname_downlevel.obj
 0002:00003e64       ??_C@_1M@FHLBGMPP@?$AAk?$AAk?$AA?9?$AAK?$AAZ?$AA?$AA@ 10054e64     libucrt:lcidtoname_downlevel.obj
 0002:00003e70       ??_C@_1M@NGJJLCGI@?$AAk?$AAy?$AA?9?$AAK?$AAG?$AA?$AA@ 10054e70     libucrt:lcidtoname_downlevel.obj
 0002:00003e7c       ??_C@_1M@GIENNBFC@?$AAs?$AAw?$AA?9?$AAK?$AAE?$AA?$AA@ 10054e7c     libucrt:lcidtoname_downlevel.obj
 0002:00003e88       ??_C@_1BG@NDGMJIMJ@?$AAu?$AAz?$AA?9?$AAU?$AAZ?$AA?9?$AAL?$AAa?$AAt?$AAn?$AA?$AA@ 10054e88     libucrt:lcidtoname_downlevel.obj
 0002:00003ea0       ??_C@_1M@IDCCIHBC@?$AAt?$AAt?$AA?9?$AAR?$AAU?$AA?$AA@ 10054ea0     libucrt:lcidtoname_downlevel.obj
 0002:00003eac       ??_C@_1M@LOICPMOJ@?$AAb?$AAn?$AA?9?$AAI?$AAN?$AA?$AA@ 10054eac     libucrt:lcidtoname_downlevel.obj
 0002:00003eb8       ??_C@_1M@KPKKNEAH@?$AAp?$AAa?$AA?9?$AAI?$AAN?$AA?$AA@ 10054eb8     libucrt:lcidtoname_downlevel.obj
 0002:00003ec4       ??_C@_1M@PJGPPBOG@?$AAg?$AAu?$AA?9?$AAI?$AAN?$AA?$AA@ 10054ec4     libucrt:lcidtoname_downlevel.obj
 0002:00003ed0       ??_C@_1M@KMKMOPHI@?$AAt?$AAa?$AA?9?$AAI?$AAN?$AA?$AA@ 10054ed0     libucrt:lcidtoname_downlevel.obj
 0002:00003edc       ??_C@_1M@KFEHEPAC@?$AAt?$AAe?$AA?9?$AAI?$AAN?$AA?$AA@ 10054edc     libucrt:lcidtoname_downlevel.obj
 0002:00003ee8       ??_C@_1M@CDCLMGHI@?$AAk?$AAn?$AA?9?$AAI?$AAN?$AA?$AA@ 10054ee8     libucrt:lcidtoname_downlevel.obj
 0002:00003ef4       ??_C@_1M@MIODLDKF@?$AAm?$AAl?$AA?9?$AAI?$AAN?$AA?$AA@ 10054ef4     libucrt:lcidtoname_downlevel.obj
 0002:00003f00       ??_C@_1M@PBIEACPO@?$AAm?$AAr?$AA?9?$AAI?$AAN?$AA?$AA@ 10054f00     libucrt:lcidtoname_downlevel.obj
 0002:00003f0c       ??_C@_1M@NIDEAGPH@?$AAs?$AAa?$AA?9?$AAI?$AAN?$AA?$AA@ 10054f0c     libucrt:lcidtoname_downlevel.obj
 0002:00003f18       ??_C@_1M@FHIHCBIO@?$AAm?$AAn?$AA?9?$AAM?$AAN?$AA?$AA@ 10054f18     libucrt:lcidtoname_downlevel.obj
 0002:00003f24       ??_C@_1M@JAIJPENP@?$AAc?$AAy?$AA?9?$AAG?$AAB?$AA?$AA@ 10054f24     libucrt:lcidtoname_downlevel.obj
 0002:00003f30       ??_C@_1M@PHGFBEPN@?$AAg?$AAl?$AA?9?$AAE?$AAS?$AA?$AA@ 10054f30     libucrt:lcidtoname_downlevel.obj
 0002:00003f3c       ??_C@_1O@KPIPDNCP@?$AAk?$AAo?$AAk?$AA?9?$AAI?$AAN?$AA?$AA@ 10054f3c     libucrt:lcidtoname_downlevel.obj
 0002:00003f4c       ??_C@_1O@KNHJLDJA@?$AAs?$AAy?$AAr?$AA?9?$AAS?$AAY?$AA?$AA@ 10054f4c     libucrt:lcidtoname_downlevel.obj
 0002:00003f5c       ??_C@_1O@MKEKBLAH@?$AAd?$AAi?$AAv?$AA?9?$AAM?$AAV?$AA?$AA@ 10054f5c     libucrt:lcidtoname_downlevel.obj
 0002:00003f6c       ??_C@_1O@OHDCKDDF@?$AAq?$AAu?$AAz?$AA?9?$AAB?$AAO?$AA?$AA@ 10054f6c     libucrt:lcidtoname_downlevel.obj
 0002:00003f7c       ??_C@_1M@LEPJNLFD@?$AAn?$AAs?$AA?9?$AAZ?$AAA?$AA?$AA@ 10054f7c     libucrt:lcidtoname_downlevel.obj
 0002:00003f88       ??_C@_1M@OMLEIIJB@?$AAm?$AAi?$AA?9?$AAN?$AAZ?$AA?$AA@ 10054f88     libucrt:lcidtoname_downlevel.obj
 0002:00003f94       ??_C@_1M@PMPEAILG@?$AAa?$AAr?$AA?9?$AAI?$AAQ?$AA?$AA@ 10054f94     libucrt:lcidtoname_downlevel.obj
 0002:00003fa0       ??_C@_1M@CNKPNOEE@?$AAd?$AAe?$AA?9?$AAC?$AAH?$AA?$AA@ 10054fa0     libucrt:lcidtoname_downlevel.obj
 0002:00003fac       ??_C@_1M@LKMGMLKO@?$AAe?$AAn?$AA?9?$AAG?$AAB?$AA?$AA@ 10054fac     libucrt:lcidtoname_downlevel.obj
 0002:00003fb8       ??_C@_1M@PGKJFFGL@?$AAe?$AAs?$AA?9?$AAM?$AAX?$AA?$AA@ 10054fb8     libucrt:lcidtoname_downlevel.obj
 0002:00003fc4       ??_C@_1M@DNNANBDC@?$AAf?$AAr?$AA?9?$AAB?$AAE?$AA?$AA@ 10054fc4     libucrt:lcidtoname_downlevel.obj
 0002:00003fd0       ??_C@_1M@HLGMDFHM@?$AAi?$AAt?$AA?9?$AAC?$AAH?$AA?$AA@ 10054fd0     libucrt:lcidtoname_downlevel.obj
 0002:00003fdc       ??_C@_1M@CLLBGJH@?$AAn?$AAl?$AA?9?$AAB?$AAE?$AA?$AA@ 10054fdc     libucrt:lcidtoname_downlevel.obj
 0002:00003fe8       ??_C@_1M@BODBOGLF@?$AAn?$AAn?$AA?9?$AAN?$AAO?$AA?$AA@ 10054fe8     libucrt:lcidtoname_downlevel.obj
 0002:00003ff4       ??_C@_1M@HFFAHKAD@?$AAp?$AAt?$AA?9?$AAP?$AAT?$AA?$AA@ 10054ff4     libucrt:lcidtoname_downlevel.obj
 0002:00004000       ??_C@_1BG@LNOAKHIE@?$AAs?$AAr?$AA?9?$AAS?$AAP?$AA?9?$AAL?$AAa?$AAt?$AAn?$AA?$AA@ 10055000     libucrt:lcidtoname_downlevel.obj
 0002:00004018       ??_C@_1M@HBMHBGAK@?$AAs?$AAv?$AA?9?$AAF?$AAI?$AA?$AA@ 10055018     libucrt:lcidtoname_downlevel.obj
 0002:00004024       ??_C@_1BG@DGCJGJBE@?$AAa?$AAz?$AA?9?$AAA?$AAZ?$AA?9?$AAC?$AAy?$AAr?$AAl?$AA?$AA@ 10055024     libucrt:lcidtoname_downlevel.obj
 0002:0000403c       ??_C@_1M@KEJDAAHB@?$AAs?$AAe?$AA?9?$AAS?$AAE?$AA?$AA@ 1005503c     libucrt:lcidtoname_downlevel.obj
 0002:00004048       ??_C@_1M@HEIBJJAD@?$AAm?$AAs?$AA?9?$AAB?$AAN?$AA?$AA@ 10055048     libucrt:lcidtoname_downlevel.obj
 0002:00004054       ??_C@_1BG@PBGJMCEM@?$AAu?$AAz?$AA?9?$AAU?$AAZ?$AA?9?$AAC?$AAy?$AAr?$AAl?$AA?$AA@ 10055054     libucrt:lcidtoname_downlevel.obj
 0002:0000406c       ??_C@_1O@LAOBCMDF@?$AAq?$AAu?$AAz?$AA?9?$AAE?$AAC?$AA?$AA@ 1005506c     libucrt:lcidtoname_downlevel.obj
 0002:0000407c       ??_C@_1M@POEEMAIO@?$AAa?$AAr?$AA?9?$AAE?$AAG?$AA?$AA@ 1005507c     libucrt:lcidtoname_downlevel.obj
 0002:00004088       ??_C@_1M@EFAKDEDL@?$AAz?$AAh?$AA?9?$AAH?$AAK?$AA?$AA@ 10055088     libucrt:lcidtoname_downlevel.obj
 0002:00004094       ??_C@_1M@HKKIJHGI@?$AAd?$AAe?$AA?9?$AAA?$AAT?$AA?$AA@ 10055094     libucrt:lcidtoname_downlevel.obj
 0002:000040a0       ??_C@_1M@KBFBEHJF@?$AAe?$AAn?$AA?9?$AAA?$AAU?$AA?$AA@ 100550a0     libucrt:lcidtoname_downlevel.obj
 0002:000040ac       ??_C@_1M@MNPLFAAH@?$AAe?$AAs?$AA?9?$AAE?$AAS?$AA?$AA@ 100550ac     libucrt:lcidtoname_downlevel.obj
 0002:000040b8       ??_C@_1M@HJOOJFMA@?$AAf?$AAr?$AA?9?$AAC?$AAA?$AA?$AA@ 100550b8     libucrt:lcidtoname_downlevel.obj
 0002:000040c4       ??_C@_1BG@JPOFPNAB@?$AAs?$AAr?$AA?9?$AAS?$AAP?$AA?9?$AAC?$AAy?$AAr?$AAl?$AA?$AA@ 100550c4     libucrt:lcidtoname_downlevel.obj
 0002:000040dc       ??_C@_1M@LNFOCMOB@?$AAs?$AAe?$AA?9?$AAF?$AAI?$AA?$AA@ 100550dc     libucrt:lcidtoname_downlevel.obj
 0002:000040e8       ??_C@_1O@MGJBOAMB@?$AAq?$AAu?$AAz?$AA?9?$AAP?$AAE?$AA?$AA@ 100550e8     libucrt:lcidtoname_downlevel.obj
 0002:000040f8       ??_C@_1M@GJINLBOK@?$AAa?$AAr?$AA?9?$AAL?$AAY?$AA?$AA@ 100550f8     libucrt:lcidtoname_downlevel.obj
 0002:00004104       ??_C@_1M@GGMNHJNL@?$AAz?$AAh?$AA?9?$AAS?$AAG?$AA?$AA@ 10055104     libucrt:lcidtoname_downlevel.obj
 0002:00004110       ??_C@_1M@HOIKODND@?$AAd?$AAe?$AA?9?$AAL?$AAU?$AA?$AA@ 10055110     libucrt:lcidtoname_downlevel.obj
 0002:0000411c       ??_C@_1M@DDOCCGFG@?$AAe?$AAn?$AA?9?$AAC?$AAA?$AA?$AA@ 1005511c     libucrt:lcidtoname_downlevel.obj
 0002:00004128       ??_C@_1M@BNOEMJLF@?$AAe?$AAs?$AA?9?$AAG?$AAT?$AA?$AA@ 10055128     libucrt:lcidtoname_downlevel.obj
 0002:00004134       ??_C@_1M@EOGNKEK@?$AAf?$AAr?$AA?9?$AAC?$AAH?$AA?$AA@ 10055134     libucrt:lcidtoname_downlevel.obj
 0002:00004140       ??_C@_1M@FLIDJFHL@?$AAh?$AAr?$AA?9?$AAB?$AAA?$AA?$AA@ 10055140     libucrt:lcidtoname_downlevel.obj
 0002:0000414c       ??_C@_1O@FMCELNAJ@?$AAs?$AAm?$AAj?$AA?9?$AAN?$AAO?$AA?$AA@ 1005514c     libucrt:lcidtoname_downlevel.obj
 0002:0000415c       ??_C@_1M@JHGLJMGJ@?$AAa?$AAr?$AA?9?$AAD?$AAZ?$AA?$AA@ 1005515c     libucrt:lcidtoname_downlevel.obj
 0002:00004168       ??_C@_1M@JKKFDCNP@?$AAz?$AAh?$AA?9?$AAM?$AAO?$AA?$AA@ 10055168     libucrt:lcidtoname_downlevel.obj
 0002:00004174       ??_C@_1M@GEEFALPE@?$AAd?$AAe?$AA?9?$AAL?$AAI?$AA?$AA@ 10055174     libucrt:lcidtoname_downlevel.obj
 0002:00004180       ??_C@_1M@IGEOFBG@?$AAe?$AAn?$AA?9?$AAN?$AAZ?$AA?$AA@ 10055180     libucrt:lcidtoname_downlevel.obj
 0002:0000418c       ??_C@_1M@KDBONEHP@?$AAe?$AAs?$AA?9?$AAC?$AAR?$AA?$AA@ 1005518c     libucrt:lcidtoname_downlevel.obj
 0002:00004198       ??_C@_1M@FHMDOHNN@?$AAf?$AAr?$AA?9?$AAL?$AAU?$AA?$AA@ 10055198     libucrt:lcidtoname_downlevel.obj
 0002:000041a4       ??_C@_1BG@NFKKMAFG@?$AAb?$AAs?$AA?9?$AAB?$AAA?$AA?9?$AAL?$AAa?$AAt?$AAn?$AA?$AA@ 100551a4     libucrt:lcidtoname_downlevel.obj
 0002:000041bc       ??_C@_1O@IMNBEMCI@?$AAs?$AAm?$AAj?$AA?9?$AAS?$AAE?$AA?$AA@ 100551bc     libucrt:lcidtoname_downlevel.obj
 0002:000041cc       ??_C@_1M@DHHMBNDP@?$AAa?$AAr?$AA?9?$AAM?$AAA?$AA?$AA@ 100551cc     libucrt:lcidtoname_downlevel.obj
 0002:000041d8       ??_C@_1M@BNBLJCGH@?$AAe?$AAn?$AA?9?$AAI?$AAE?$AA?$AA@ 100551d8     libucrt:lcidtoname_downlevel.obj
 0002:000041e4       ??_C@_1M@GEPAFMDL@?$AAe?$AAs?$AA?9?$AAP?$AAA?$AA?$AA@ 100551e4     libucrt:lcidtoname_downlevel.obj
 0002:000041f0       ??_C@_1M@OJONDMDL@?$AAf?$AAr?$AA?9?$AAM?$AAC?$AA?$AA@ 100551f0     libucrt:lcidtoname_downlevel.obj
 0002:000041fc       ??_C@_1BG@OBCNFJB@?$AAs?$AAr?$AA?9?$AAB?$AAA?$AA?9?$AAL?$AAa?$AAt?$AAn?$AA?$AA@ 100551fc     libucrt:lcidtoname_downlevel.obj
 0002:00004214       ??_C@_1O@KEMEEGPO@?$AAs?$AAm?$AAa?$AA?9?$AAN?$AAO?$AA?$AA@ 10055214     libucrt:lcidtoname_downlevel.obj
 0002:00004224       ??_C@_1M@ELMGFODK@?$AAa?$AAr?$AA?9?$AAT?$AAN?$AA?$AA@ 10055224     libucrt:lcidtoname_downlevel.obj
 0002:00004230       ??_C@_1M@BHDLHFAF@?$AAe?$AAn?$AA?9?$AAZ?$AAA?$AA?$AA@ 10055230     libucrt:lcidtoname_downlevel.obj
 0002:0000423c       ??_C@_1M@BMGIGLIF@?$AAe?$AAs?$AA?9?$AAD?$AAO?$AA?$AA@ 1005523c     libucrt:lcidtoname_downlevel.obj
 0002:00004248       ??_C@_1BG@CMBHIPBE@?$AAs?$AAr?$AA?9?$AAB?$AAA?$AA?9?$AAC?$AAy?$AAr?$AAl?$AA?$AA@ 10055248     libucrt:lcidtoname_downlevel.obj
 0002:00004260       ??_C@_1O@HEDBLHNP@?$AAs?$AAm?$AAa?$AA?9?$AAS?$AAE?$AA?$AA@ 10055260     libucrt:lcidtoname_downlevel.obj
 0002:00004270       ??_C@_1M@DAGCADIM@?$AAa?$AAr?$AA?9?$AAO?$AAM?$AA?$AA@ 10055270     libucrt:lcidtoname_downlevel.obj
 0002:0000427c       ??_C@_1M@FODLMICG@?$AAe?$AAn?$AA?9?$AAJ?$AAM?$AA?$AA@ 1005527c     libucrt:lcidtoname_downlevel.obj
 0002:00004288       ??_C@_1M@DNMLCIHB@?$AAe?$AAs?$AA?9?$AAV?$AAE?$AA?$AA@ 10055288     libucrt:lcidtoname_downlevel.obj
 0002:00004294       ??_C@_1O@EOKHMKJK@?$AAs?$AAm?$AAs?$AA?9?$AAF?$AAI?$AA?$AA@ 10055294     libucrt:lcidtoname_downlevel.obj
 0002:000042a4       ??_C@_1M@CAFJMKOF@?$AAa?$AAr?$AA?9?$AAY?$AAE?$AA?$AA@ 100552a4     libucrt:lcidtoname_downlevel.obj
 0002:000042b0       ??_C@_1M@CBFHIJLI@?$AAe?$AAn?$AA?9?$AAC?$AAB?$AA?$AA@ 100552b0     libucrt:lcidtoname_downlevel.obj
 0002:000042bc       ??_C@_1M@BGNFLDN@?$AAe?$AAs?$AA?9?$AAC?$AAO?$AA?$AA@ 100552bc     libucrt:lcidtoname_downlevel.obj
 0002:000042c8       ??_C@_1O@JMPHMAMC@?$AAs?$AAm?$AAn?$AA?9?$AAF?$AAI?$AA?$AA@ 100552c8     libucrt:lcidtoname_downlevel.obj
 0002:000042d8       ??_C@_1M@JLANABKE@?$AAa?$AAr?$AA?9?$AAS?$AAY?$AA?$AA@ 100552d8     libucrt:lcidtoname_downlevel.obj
 0002:000042e4       ??_C@_1M@HPKGCFGN@?$AAe?$AAn?$AA?9?$AAB?$AAZ?$AA?$AA@ 100552e4     libucrt:lcidtoname_downlevel.obj
 0002:000042f0       ??_C@_1M@OLJCMLGM@?$AAe?$AAs?$AA?9?$AAP?$AAE?$AA?$AA@ 100552f0     libucrt:lcidtoname_downlevel.obj
 0002:000042fc       ??_C@_1M@MKKGFKLE@?$AAa?$AAr?$AA?9?$AAJ?$AAO?$AA?$AA@ 100552fc     libucrt:lcidtoname_downlevel.obj
 0002:00004308       ??_C@_1M@EKPGLDNI@?$AAe?$AAn?$AA?9?$AAT?$AAT?$AA?$AA@ 10055308     libucrt:lcidtoname_downlevel.obj
 0002:00004314       ??_C@_1M@OONGHFHE@?$AAe?$AAs?$AA?9?$AAA?$AAR?$AA?$AA@ 10055314     libucrt:lcidtoname_downlevel.obj
 0002:00004320       ??_C@_1M@OOJFGBHE@?$AAa?$AAr?$AA?9?$AAL?$AAB?$AA?$AA@ 10055320     libucrt:lcidtoname_downlevel.obj
 0002:0000432c       ??_C@_1M@GCEJHNEG@?$AAe?$AAn?$AA?9?$AAZ?$AAW?$AA?$AA@ 1005532c     libucrt:lcidtoname_downlevel.obj
 0002:00004338       ??_C@_1M@JNOCAHJI@?$AAe?$AAs?$AA?9?$AAE?$AAC?$AA?$AA@ 10055338     libucrt:lcidtoname_downlevel.obj
 0002:00004344       ??_C@_1M@JEFHPGGB@?$AAa?$AAr?$AA?9?$AAK?$AAW?$AA?$AA@ 10055344     libucrt:lcidtoname_downlevel.obj
 0002:00004350       ??_C@_1M@MLKIBJOJ@?$AAe?$AAn?$AA?9?$AAP?$AAH?$AA?$AA@ 10055350     libucrt:lcidtoname_downlevel.obj
 0002:0000435c       ??_C@_1M@BDNIPEND@?$AAe?$AAs?$AA?9?$AAC?$AAL?$AA?$AA@ 1005535c     libucrt:lcidtoname_downlevel.obj
 0002:00004368       ??_C@_1M@MPNMEKBD@?$AAa?$AAr?$AA?9?$AAA?$AAE?$AA?$AA@ 10055368     libucrt:lcidtoname_downlevel.obj
 0002:00004374       ??_C@_1M@KBJALCPI@?$AAe?$AAs?$AA?9?$AAU?$AAY?$AA?$AA@ 10055374     libucrt:lcidtoname_downlevel.obj
 0002:00004380       ??_C@_1M@LLCCOAGA@?$AAa?$AAr?$AA?9?$AAB?$AAH?$AA?$AA@ 10055380     libucrt:lcidtoname_downlevel.obj
 0002:0000438c       ??_C@_1M@PBFNCDEL@?$AAe?$AAs?$AA?9?$AAP?$AAY?$AA?$AA@ 1005538c     libucrt:lcidtoname_downlevel.obj
 0002:00004398       ??_C@_1M@EDGINPNP@?$AAa?$AAr?$AA?9?$AAQ?$AAA?$AA?$AA@ 10055398     libucrt:lcidtoname_downlevel.obj
 0002:000043a4       ??_C@_1M@MKDBIIJI@?$AAe?$AAs?$AA?9?$AAB?$AAO?$AA?$AA@ 100553a4     libucrt:lcidtoname_downlevel.obj
 0002:000043b0       ??_C@_1M@CPKKEBLD@?$AAe?$AAs?$AA?9?$AAS?$AAV?$AA?$AA@ 100553b0     libucrt:lcidtoname_downlevel.obj
 0002:000043bc       ??_C@_1M@NDBGMMJL@?$AAe?$AAs?$AA?9?$AAH?$AAN?$AA?$AA@ 100553bc     libucrt:lcidtoname_downlevel.obj
 0002:000043c8       ??_C@_1M@JIJIBHDP@?$AAe?$AAs?$AA?9?$AAN?$AAI?$AA?$AA@ 100553c8     libucrt:lcidtoname_downlevel.obj
 0002:000043d4       ??_C@_1M@CGFMKEEK@?$AAe?$AAs?$AA?9?$AAP?$AAR?$AA?$AA@ 100553d4     libucrt:lcidtoname_downlevel.obj
 0002:000043e0       ??_C@_1O@ICJHKIIK@?$AAz?$AAh?$AA?9?$AAC?$AAH?$AAT?$AA?$AA@ 100553e0     libucrt:lcidtoname_downlevel.obj
 0002:000043f0       ??_C@_15CLNEJCE@?$AAs?$AAr?$AA?$AA@ 100553f0     libucrt:lcidtoname_downlevel.obj
 0002:00004b18       ??_C@_1M@KAHEKEIG@?$AAa?$AAf?$AA?9?$AAz?$AAa?$AA?$AA@ 10055b18     libucrt:lcidtoname_downlevel.obj
 0002:00004b24       ??_C@_1M@GIECOABL@?$AAa?$AAr?$AA?9?$AAa?$AAe?$AA?$AA@ 10055b24     libucrt:lcidtoname_downlevel.obj
 0002:00004b30       ??_C@_1M@BMLMEKGI@?$AAa?$AAr?$AA?9?$AAb?$AAh?$AA?$AA@ 10055b30     libucrt:lcidtoname_downlevel.obj
 0002:00004b3c       ??_C@_1M@DAPFDGGB@?$AAa?$AAr?$AA?9?$AAd?$AAz?$AA?$AA@ 10055b3c     libucrt:lcidtoname_downlevel.obj
 0002:00004b48       ??_C@_1M@FJNKGKIG@?$AAa?$AAr?$AA?9?$AAe?$AAg?$AA?$AA@ 10055b48     libucrt:lcidtoname_downlevel.obj
 0002:00004b54       ??_C@_1M@FLGKKCLO@?$AAa?$AAr?$AA?9?$AAi?$AAq?$AA?$AA@ 10055b54     libucrt:lcidtoname_downlevel.obj
 0002:00004b60       ??_C@_1M@GNDIPALM@?$AAa?$AAr?$AA?9?$AAj?$AAo?$AA?$AA@ 10055b60     libucrt:lcidtoname_downlevel.obj
 0002:00004b6c       ??_C@_1M@DDMJFMGJ@?$AAa?$AAr?$AA?9?$AAk?$AAw?$AA?$AA@ 10055b6c     libucrt:lcidtoname_downlevel.obj
 0002:00004b78       ??_C@_1M@EJALMLHM@?$AAa?$AAr?$AA?9?$AAl?$AAb?$AA?$AA@ 10055b78     libucrt:lcidtoname_downlevel.obj
 0002:00004b84       ??_C@_1M@MOBDBLOC@?$AAa?$AAr?$AA?9?$AAl?$AAy?$AA?$AA@ 10055b84     libucrt:lcidtoname_downlevel.obj
 0002:00004b90       ??_C@_1M@JAOCLHDH@?$AAa?$AAr?$AA?9?$AAm?$AAa?$AA?$AA@ 10055b90     libucrt:lcidtoname_downlevel.obj
 0002:00004b9c       ??_C@_1M@JHPMKJIE@?$AAa?$AAr?$AA?9?$AAo?$AAm?$AA?$AA@ 10055b9c     libucrt:lcidtoname_downlevel.obj
 0002:00004ba8       ??_C@_1M@OEPGHFNH@?$AAa?$AAr?$AA?9?$AAq?$AAa?$AA?$AA@ 10055ba8     libucrt:lcidtoname_downlevel.obj
 0002:00004bb4       ??_C@_1M@KJDONENM@?$AAa?$AAr?$AA?9?$AAs?$AAa?$AA?$AA@ 10055bb4     libucrt:lcidtoname_downlevel.obj
 0002:00004bc0       ??_C@_1M@DMJDKLKM@?$AAa?$AAr?$AA?9?$AAs?$AAy?$AA?$AA@ 10055bc0     libucrt:lcidtoname_downlevel.obj
 0002:00004bcc       ??_C@_1M@OMFIPEDC@?$AAa?$AAr?$AA?9?$AAt?$AAn?$AA?$AA@ 10055bcc     libucrt:lcidtoname_downlevel.obj
 0002:00004bd8       ??_C@_1M@IHMHGAON@?$AAa?$AAr?$AA?9?$AAy?$AAe?$AA?$AA@ 10055bd8     libucrt:lcidtoname_downlevel.obj
 0002:00004be4       ??_C@_1BG@KDCPGJGB@?$AAa?$AAz?$AA?9?$AAa?$AAz?$AA?9?$AAc?$AAy?$AAr?$AAl?$AA?$AA@ 10055be4     libucrt:lcidtoname_downlevel.obj
 0002:00004bfc       ??_C@_1BG@IBCKDDOE@?$AAa?$AAz?$AA?9?$AAa?$AAz?$AA?9?$AAl?$AAa?$AAt?$AAn?$AA?$AA@ 10055bfc     libucrt:lcidtoname_downlevel.obj
 0002:00004c14       ??_C@_1M@EGPFDCPD@?$AAb?$AAe?$AA?9?$AAb?$AAy?$AA?$AA@ 10055c14     libucrt:lcidtoname_downlevel.obj
 0002:00004c20       ??_C@_1M@PCMGMCGC@?$AAb?$AAg?$AA?9?$AAb?$AAg?$AA?$AA@ 10055c20     libucrt:lcidtoname_downlevel.obj
 0002:00004c2c       ??_C@_1M@BJBMFGOB@?$AAb?$AAn?$AA?9?$AAi?$AAn?$AA?$AA@ 10055c2c     libucrt:lcidtoname_downlevel.obj
 0002:00004c38       ??_C@_1BG@EAKMMACD@?$AAb?$AAs?$AA?9?$AAb?$AAa?$AA?9?$AAl?$AAa?$AAt?$AAn?$AA?$AA@ 10055c38     libucrt:lcidtoname_downlevel.obj
 0002:00004c50       ??_C@_1M@KGADAODK@?$AAc?$AAa?$AA?9?$AAe?$AAs?$AA?$AA@ 10055c50     libucrt:lcidtoname_downlevel.obj
 0002:00004c5c       ??_C@_1M@COAJPDHI@?$AAc?$AAs?$AA?9?$AAc?$AAz?$AA?$AA@ 10055c5c     libucrt:lcidtoname_downlevel.obj
 0002:00004c68       ??_C@_1M@DHBHFONH@?$AAc?$AAy?$AA?9?$AAg?$AAb?$AA?$AA@ 10055c68     libucrt:lcidtoname_downlevel.obj
 0002:00004c74       ??_C@_1M@IMGKELGA@?$AAd?$AAa?$AA?9?$AAd?$AAk?$AA?$AA@ 10055c74     libucrt:lcidtoname_downlevel.obj
 0002:00004c80       ??_C@_1M@NNDGDNGA@?$AAd?$AAe?$AA?9?$AAa?$AAt?$AA?$AA@ 10055c80     libucrt:lcidtoname_downlevel.obj
 0002:00004c8c       ??_C@_1M@IKDBHEEM@?$AAd?$AAe?$AA?9?$AAc?$AAh?$AA?$AA@ 10055c8c     libucrt:lcidtoname_downlevel.obj
 0002:00004c98       ??_C@_1M@GFFOJMCJ@?$AAd?$AAe?$AA?9?$AAd?$AAe?$AA?$AA@ 10055c98     libucrt:lcidtoname_downlevel.obj
 0002:00004ca4       ??_C@_1M@MDNLKBPM@?$AAd?$AAe?$AA?9?$AAl?$AAi?$AA?$AA@ 10055ca4     libucrt:lcidtoname_downlevel.obj
 0002:00004cb0       ??_C@_1M@NJBEEJNL@?$AAd?$AAe?$AA?9?$AAl?$AAu?$AA?$AA@ 10055cb0     libucrt:lcidtoname_downlevel.obj
 0002:00004cbc       ??_C@_1O@GNNELBAP@?$AAd?$AAi?$AAv?$AA?9?$AAm?$AAv?$AA?$AA@ 10055cbc     libucrt:lcidtoname_downlevel.obj
 0002:00004ccc       ??_C@_1M@EJLEOGAE@?$AAe?$AAl?$AA?9?$AAg?$AAr?$AA?$AA@ 10055ccc     libucrt:lcidtoname_downlevel.obj
 0002:00004cd8       ??_C@_1M@GMPONJN@?$AAe?$AAn?$AA?9?$AAa?$AAu?$AA?$AA@ 10055cd8     libucrt:lcidtoname_downlevel.obj
 0002:00004ce4       ??_C@_1M@NIDIIPGF@?$AAe?$AAn?$AA?9?$AAb?$AAz?$AA?$AA@ 10055ce4     libucrt:lcidtoname_downlevel.obj
 0002:00004cf0       ??_C@_1M@JEHMIMFO@?$AAe?$AAn?$AA?9?$AAc?$AAa?$AA?$AA@ 10055cf0     libucrt:lcidtoname_downlevel.obj
 0002:00004cfc       ??_C@_1M@IGMJCDLA@?$AAe?$AAn?$AA?9?$AAc?$AAb?$AA?$AA@ 10055cfc     libucrt:lcidtoname_downlevel.obj
 0002:00004d08       ??_C@_1M@BNFIGBKG@?$AAe?$AAn?$AA?9?$AAg?$AAb?$AA?$AA@ 10055d08     libucrt:lcidtoname_downlevel.obj
 0002:00004d14       ??_C@_1M@LKIFDIGP@?$AAe?$AAn?$AA?9?$AAi?$AAe?$AA?$AA@ 10055d14     libucrt:lcidtoname_downlevel.obj
 0002:00004d20       ??_C@_1M@PJKFGCCO@?$AAe?$AAn?$AA?9?$AAj?$AAm?$AA?$AA@ 10055d20     libucrt:lcidtoname_downlevel.obj
 0002:00004d2c       ??_C@_1M@KPPKEPBO@?$AAe?$AAn?$AA?9?$AAn?$AAz?$AA?$AA@ 10055d2c     libucrt:lcidtoname_downlevel.obj
 0002:00004d38       ??_C@_1M@GMDGLDOB@?$AAe?$AAn?$AA?9?$AAp?$AAh?$AA?$AA@ 10055d38     libucrt:lcidtoname_downlevel.obj
 0002:00004d44       ??_C@_1M@ONGIBJNA@?$AAe?$AAn?$AA?9?$AAt?$AAt?$AA?$AA@ 10055d44     libucrt:lcidtoname_downlevel.obj
 0002:00004d50       ??_C@_1M@LLODPCMM@?$AAe?$AAn?$AA?9?$AAu?$AAs?$AA?$AA@ 10055d50     libucrt:lcidtoname_downlevel.obj
 0002:00004d5c       ??_C@_1M@LAKFNPAN@?$AAe?$AAn?$AA?9?$AAz?$AAa?$AA?$AA@ 10055d5c     libucrt:lcidtoname_downlevel.obj
 0002:00004d68       ??_C@_1M@MFNHNHEO@?$AAe?$AAn?$AA?9?$AAz?$AAw?$AA?$AA@ 10055d68     libucrt:lcidtoname_downlevel.obj
 0002:00004d74       ??_C@_1M@EJEINPHM@?$AAe?$AAs?$AA?9?$AAa?$AAr?$AA?$AA@ 10055d74     libucrt:lcidtoname_downlevel.obj
 0002:00004d80       ??_C@_1M@GNKPCCJA@?$AAe?$AAs?$AA?9?$AAb?$AAo?$AA?$AA@ 10055d80     libucrt:lcidtoname_downlevel.obj
 0002:00004d8c       ??_C@_1M@LEEGFONL@?$AAe?$AAs?$AA?9?$AAc?$AAl?$AA?$AA@ 10055d8c     libucrt:lcidtoname_downlevel.obj
 0002:00004d98       ??_C@_1M@KGPDPBDF@?$AAe?$AAs?$AA?9?$AAc?$AAo?$AA?$AA@ 10055d98     libucrt:lcidtoname_downlevel.obj
 0002:00004da4       ??_C@_1M@EIAHOHH@?$AAe?$AAs?$AA?9?$AAc?$AAr?$AA?$AA@ 10055da4     libucrt:lcidtoname_downlevel.obj
 0002:00004db0       ??_C@_1M@LLPGMBIN@?$AAe?$AAs?$AA?9?$AAd?$AAo?$AA?$AA@ 10055db0     libucrt:lcidtoname_downlevel.obj
 0002:00004dbc       ??_C@_1M@DKHMKNJA@?$AAe?$AAs?$AA?9?$AAe?$AAc?$AA?$AA@ 10055dbc     libucrt:lcidtoname_downlevel.obj
 0002:00004dc8       ??_C@_1M@GKGFPKAP@?$AAe?$AAs?$AA?9?$AAe?$AAs?$AA?$AA@ 10055dc8     libucrt:lcidtoname_downlevel.obj
 0002:00004dd4       ??_C@_1M@LKHKGDLN@?$AAe?$AAs?$AA?9?$AAg?$AAt?$AA?$AA@ 10055dd4     libucrt:lcidtoname_downlevel.obj
 0002:00004de0       ??_C@_1M@HEIIGGJD@?$AAe?$AAs?$AA?9?$AAh?$AAn?$AA?$AA@ 10055de0     libucrt:lcidtoname_downlevel.obj
 0002:00004dec       ??_C@_1M@FBDHPPGD@?$AAe?$AAs?$AA?9?$AAm?$AAx?$AA?$AA@ 10055dec     libucrt:lcidtoname_downlevel.obj
 0002:00004df8       ??_C@_1M@DPAGLNDH@?$AAe?$AAs?$AA?9?$AAn?$AAi?$AA?$AA@ 10055df8     libucrt:lcidtoname_downlevel.obj
 0002:00004e04       ??_C@_1M@MDGOPGDD@?$AAe?$AAs?$AA?9?$AAp?$AAa?$AA?$AA@ 10055e04     libucrt:lcidtoname_downlevel.obj
 0002:00004e10       ??_C@_1M@EMAMGBGE@?$AAe?$AAs?$AA?9?$AAp?$AAe?$AA?$AA@ 10055e10     libucrt:lcidtoname_downlevel.obj
 0002:00004e1c       ??_C@_1M@IBMCAOEC@?$AAe?$AAs?$AA?9?$AAp?$AAr?$AA?$AA@ 10055e1c     libucrt:lcidtoname_downlevel.obj
 0002:00004e28       ??_C@_1M@FGMDIJED@?$AAe?$AAs?$AA?9?$AAp?$AAy?$AA?$AA@ 10055e28     libucrt:lcidtoname_downlevel.obj
 0002:00004e34       ??_C@_1M@IIDEOLLL@?$AAe?$AAs?$AA?9?$AAs?$AAv?$AA?$AA@ 10055e34     libucrt:lcidtoname_downlevel.obj
 0002:00004e40       ??_C@_1M@GAOBIPA@?$AAe?$AAs?$AA?9?$AAu?$AAy?$AA?$AA@ 10055e40     libucrt:lcidtoname_downlevel.obj
 0002:00004e4c       ??_C@_1M@JKFFICHJ@?$AAe?$AAs?$AA?9?$AAv?$AAe?$AA?$AA@ 10055e4c     libucrt:lcidtoname_downlevel.obj
 0002:00004e58       ??_C@_1M@PNMLOJDF@?$AAe?$AAt?$AA?9?$AAe?$AAe?$AA?$AA@ 10055e58     libucrt:lcidtoname_downlevel.obj
 0002:00004e64       ??_C@_1M@GHHLIKEI@?$AAe?$AAu?$AA?9?$AAe?$AAs?$AA?$AA@ 10055e64     libucrt:lcidtoname_downlevel.obj
 0002:00004e70       ??_C@_1M@PBNONODE@?$AAf?$AAa?$AA?9?$AAi?$AAr?$AA?$AA@ 10055e70     libucrt:lcidtoname_downlevel.obj
 0002:00004e7c       ??_C@_1M@JEEHPMIL@?$AAf?$AAi?$AA?9?$AAf?$AAi?$AA?$AA@ 10055e7c     libucrt:lcidtoname_downlevel.obj
 0002:00004e88       ??_C@_1M@LMDCNDBA@?$AAf?$AAo?$AA?9?$AAf?$AAo?$AA?$AA@ 10055e88     libucrt:lcidtoname_downlevel.obj
 0002:00004e94       ??_C@_1M@JKEOHLDK@?$AAf?$AAr?$AA?9?$AAb?$AAe?$AA?$AA@ 10055e94     libucrt:lcidtoname_downlevel.obj
 0002:00004ea0       ??_C@_1M@NOHADPMI@?$AAf?$AAr?$AA?9?$AAc?$AAa?$AA?$AA@ 10055ea0     libucrt:lcidtoname_downlevel.obj
 0002:00004eac       ??_C@_1M@KDHIHAEC@?$AAf?$AAr?$AA?9?$AAc?$AAh?$AA?$AA@ 10055eac     libucrt:lcidtoname_downlevel.obj
 0002:00004eb8       ??_C@_1M@MMBBFGAK@?$AAf?$AAr?$AA?9?$AAf?$AAr?$AA?$AA@ 10055eb8     libucrt:lcidtoname_downlevel.obj
 0002:00004ec4       ??_C@_1M@PAFNENNF@?$AAf?$AAr?$AA?9?$AAl?$AAu?$AA?$AA@ 10055ec4     libucrt:lcidtoname_downlevel.obj
 0002:00004ed0       ??_C@_1M@EOHDJGDD@?$AAf?$AAr?$AA?9?$AAm?$AAc?$AA?$AA@ 10055ed0     libucrt:lcidtoname_downlevel.obj
 0002:00004edc       ??_C@_1M@FAPLLOPF@?$AAg?$AAl?$AA?9?$AAe?$AAs?$AA?$AA@ 10055edc     libucrt:lcidtoname_downlevel.obj
 0002:00004ee8       ??_C@_1M@FOPBFLOO@?$AAg?$AAu?$AA?9?$AAi?$AAn?$AA?$AA@ 10055ee8     libucrt:lcidtoname_downlevel.obj
 0002:00004ef4       ??_C@_1M@KBMCINPM@?$AAh?$AAe?$AA?9?$AAi?$AAl?$AA?$AA@ 10055ef4     libucrt:lcidtoname_downlevel.obj
 0002:00004f00       ??_C@_1M@BBPHKFPJ@?$AAh?$AAi?$AA?9?$AAi?$AAn?$AA?$AA@ 10055f00     libucrt:lcidtoname_downlevel.obj
 0002:00004f0c       ??_C@_1M@PMBNDPHD@?$AAh?$AAr?$AA?9?$AAb?$AAa?$AA?$AA@ 10055f0c     libucrt:lcidtoname_downlevel.obj
 0002:00004f18       ??_C@_1M@BPCKOEGE@?$AAh?$AAr?$AA?9?$AAh?$AAr?$AA?$AA@ 10055f18     libucrt:lcidtoname_downlevel.obj
 0002:00004f24       ??_C@_1M@GACBMHKE@?$AAh?$AAu?$AA?9?$AAh?$AAu?$AA?$AA@ 10055f24     libucrt:lcidtoname_downlevel.obj
 0002:00004f30       ??_C@_1M@MILPAJJC@?$AAh?$AAy?$AA?9?$AAa?$AAm?$AA?$AA@ 10055f30     libucrt:lcidtoname_downlevel.obj
 0002:00004f3c       ??_C@_1M@BABBICEC@?$AAi?$AAd?$AA?9?$AAi?$AAd?$AA?$AA@ 10055f3c     libucrt:lcidtoname_downlevel.obj
 0002:00004f48       ??_C@_1M@BIKNHHPF@?$AAi?$AAs?$AA?9?$AAi?$AAs?$AA?$AA@ 10055f48     libucrt:lcidtoname_downlevel.obj
 0002:00004f54       ??_C@_1M@NMPCJPHE@?$AAi?$AAt?$AA?9?$AAc?$AAh?$AA?$AA@ 10055f54     libucrt:lcidtoname_downlevel.obj
 0002:00004f60       ??_C@_1M@GHKGFEDF@?$AAi?$AAt?$AA?9?$AAi?$AAt?$AA?$AA@ 10055f60     libucrt:lcidtoname_downlevel.obj
 0002:00004f6c       ??_C@_1M@NIEJCJJA@?$AAj?$AAa?$AA?9?$AAj?$AAp?$AA?$AA@ 10055f6c     libucrt:lcidtoname_downlevel.obj
 0002:00004f78       ??_C@_1M@JILFNBIM@?$AAk?$AAa?$AA?9?$AAg?$AAe?$AA?$AA@ 10055f78     libucrt:lcidtoname_downlevel.obj
 0002:00004f84       ??_C@_1M@PACPMGPH@?$AAk?$AAk?$AA?9?$AAk?$AAz?$AA?$AA@ 10055f84     libucrt:lcidtoname_downlevel.obj
 0002:00004f90       ??_C@_1M@IELFGMHA@?$AAk?$AAn?$AA?9?$AAi?$AAn?$AA?$AA@ 10055f90     libucrt:lcidtoname_downlevel.obj
 0002:00004f9c       ??_C@_1O@IBBJHCH@?$AAk?$AAo?$AAk?$AA?9?$AAi?$AAn?$AA?$AA@ 10055f9c     libucrt:lcidtoname_downlevel.obj
 0002:00004fac       ??_C@_1M@DMHAEOGC@?$AAk?$AAo?$AA?9?$AAk?$AAr?$AA?$AA@ 10055fac     libucrt:lcidtoname_downlevel.obj
 0002:00004fb8       ??_C@_1M@HBAHBIGA@?$AAk?$AAy?$AA?9?$AAk?$AAg?$AA?$AA@ 10055fb8     libucrt:lcidtoname_downlevel.obj
 0002:00004fc4       ??_C@_1M@KPMILCJG@?$AAl?$AAt?$AA?9?$AAl?$AAt?$AA?$AA@ 10055fc4     libucrt:lcidtoname_downlevel.obj
 0002:00004fd0       ??_C@_1M@BDEKKCA@?$AAl?$AAv?$AA?9?$AAl?$AAv?$AA?$AA@ 10055fd0     libucrt:lcidtoname_downlevel.obj
 0002:00004fdc       ??_C@_1M@ELCKCCJJ@?$AAm?$AAi?$AA?9?$AAn?$AAz?$AA?$AA@ 10055fdc     libucrt:lcidtoname_downlevel.obj
 0002:00004fe8       ??_C@_1M@CBOOLAPA@?$AAm?$AAk?$AA?9?$AAm?$AAk?$AA?$AA@ 10055fe8     libucrt:lcidtoname_downlevel.obj
 0002:00004ff4       ??_C@_1M@GPHNBJKN@?$AAm?$AAl?$AA?9?$AAi?$AAn?$AA?$AA@ 10055ff4     libucrt:lcidtoname_downlevel.obj
 0002:00005000       ??_C@_1M@PABJILIG@?$AAm?$AAn?$AA?9?$AAm?$AAn?$AA?$AA@ 10056000     libucrt:lcidtoname_downlevel.obj
 0002:0000500c       ??_C@_1M@FGBKKIPG@?$AAm?$AAr?$AA?9?$AAi?$AAn?$AA?$AA@ 1005600c     libucrt:lcidtoname_downlevel.obj
 0002:00005018       ??_C@_1M@NDBPDDAL@?$AAm?$AAs?$AA?9?$AAb?$AAn?$AA?$AA@ 10056018     libucrt:lcidtoname_downlevel.obj
 0002:00005024       ??_C@_1M@OPIHOOPI@?$AAm?$AAs?$AA?9?$AAm?$AAy?$AA?$AA@ 10056024     libucrt:lcidtoname_downlevel.obj
 0002:00005030       ??_C@_1M@PPDBCNFM@?$AAm?$AAt?$AA?9?$AAm?$AAt?$AA?$AA@ 10056030     libucrt:lcidtoname_downlevel.obj
 0002:0000503c       ??_C@_1M@KDJDKMDD@?$AAn?$AAb?$AA?9?$AAn?$AAo?$AA?$AA@ 1005603c     libucrt:lcidtoname_downlevel.obj
 0002:00005048       ??_C@_1M@KFCFLMJP@?$AAn?$AAl?$AA?9?$AAb?$AAe?$AA?$AA@ 10056048     libucrt:lcidtoname_downlevel.obj
 0002:00005054       ??_C@_1M@KPOPDDGO@?$AAn?$AAl?$AA?9?$AAn?$AAl?$AA?$AA@ 10056054     libucrt:lcidtoname_downlevel.obj
 0002:00005060       ??_C@_1M@LJKPEMLN@?$AAn?$AAn?$AA?9?$AAn?$AAo?$AA?$AA@ 10056060     libucrt:lcidtoname_downlevel.obj
 0002:0000506c       ??_C@_1M@BDGHHBFL@?$AAn?$AAs?$AA?9?$AAz?$AAa?$AA?$AA@ 1005606c     libucrt:lcidtoname_downlevel.obj
 0002:00005078       ??_C@_1M@IDEHOAP@?$AAp?$AAa?$AA?9?$AAi?$AAn?$AA?$AA@ 10056078     libucrt:lcidtoname_downlevel.obj
 0002:00005084       ??_C@_1M@HDBKGOGH@?$AAp?$AAl?$AA?9?$AAp?$AAl?$AA?$AA@ 10056084     libucrt:lcidtoname_downlevel.obj
 0002:00005090       ??_C@_1M@LJLLCMEH@?$AAp?$AAt?$AA?9?$AAb?$AAr?$AA?$AA@ 10056090     libucrt:lcidtoname_downlevel.obj
 0002:0000509c       ??_C@_1M@NCMONAAL@?$AAp?$AAt?$AA?9?$AAp?$AAt?$AA?$AA@ 1005609c     libucrt:lcidtoname_downlevel.obj
 0002:000050a8       ??_C@_1O@EAKMAJDN@?$AAq?$AAu?$AAz?$AA?9?$AAb?$AAo?$AA?$AA@ 100560a8     libucrt:lcidtoname_downlevel.obj
 0002:000050b8       ??_C@_1O@BHHPIGDN@?$AAq?$AAu?$AAz?$AA?9?$AAe?$AAc?$AA?$AA@ 100560b8     libucrt:lcidtoname_downlevel.obj
 0002:000050c8       ??_C@_1O@GBAPEKMJ@?$AAq?$AAu?$AAz?$AA?9?$AAp?$AAe?$AA?$AA@ 100560c8     libucrt:lcidtoname_downlevel.obj
 0002:000050d8       ??_C@_1M@CLGLEFBO@?$AAr?$AAo?$AA?9?$AAr?$AAo?$AA?$AA@ 100560d8     libucrt:lcidtoname_downlevel.obj
 0002:000050e4       ??_C@_1M@CEEDODME@?$AAr?$AAu?$AA?9?$AAr?$AAu?$AA?$AA@ 100560e4     libucrt:lcidtoname_downlevel.obj
 0002:000050f0       ??_C@_1M@HPKKKMPP@?$AAs?$AAa?$AA?9?$AAi?$AAn?$AA?$AA@ 100560f0     libucrt:lcidtoname_downlevel.obj
 0002:000050fc       ??_C@_1M@BKMAIGOJ@?$AAs?$AAe?$AA?9?$AAf?$AAi?$AA?$AA@ 100560fc     libucrt:lcidtoname_downlevel.obj
 0002:00005108       ??_C@_1M@NDPIFLFI@?$AAs?$AAe?$AA?9?$AAn?$AAo?$AA?$AA@ 10056108     libucrt:lcidtoname_downlevel.obj
 0002:00005114       ??_C@_1M@DANKKHJ@?$AAs?$AAe?$AA?9?$AAs?$AAe?$AA?$AA@ 10056114     libucrt:lcidtoname_downlevel.obj
 0002:00005120       ??_C@_1M@PNBLONPJ@?$AAs?$AAk?$AA?9?$AAs?$AAk?$AA?$AA@ 10056120     libucrt:lcidtoname_downlevel.obj
 0002:0000512c       ??_C@_1M@LFMODOAL@?$AAs?$AAl?$AA?9?$AAs?$AAi?$AA?$AA@ 1005612c     libucrt:lcidtoname_downlevel.obj
 0002:00005138       ??_C@_1O@DFKOMPG@?$AAs?$AAm?$AAa?$AA?9?$AAn?$AAo?$AA?$AA@ 10056138     libucrt:lcidtoname_downlevel.obj
 0002:00005148       ??_C@_1O@NDKPBNNH@?$AAs?$AAm?$AAa?$AA?9?$AAs?$AAe?$AA?$AA@ 10056148     libucrt:lcidtoname_downlevel.obj
 0002:00005158       ??_C@_1O@PLLKBHAB@?$AAs?$AAm?$AAj?$AA?9?$AAn?$AAo?$AA?$AA@ 10056158     libucrt:lcidtoname_downlevel.obj
 0002:00005168       ??_C@_1O@CLEPOGCA@?$AAs?$AAm?$AAj?$AA?9?$AAs?$AAe?$AA?$AA@ 10056168     libucrt:lcidtoname_downlevel.obj
 0002:00005178       ??_C@_1O@DLGJGKMK@?$AAs?$AAm?$AAn?$AA?9?$AAf?$AAi?$AA?$AA@ 10056178     libucrt:lcidtoname_downlevel.obj
 0002:00005188       ??_C@_1O@OJDJGAJC@?$AAs?$AAm?$AAs?$AA?9?$AAf?$AAi?$AA?$AA@ 10056188     libucrt:lcidtoname_downlevel.obj
 0002:00005198       ??_C@_1M@BOFOGHPB@?$AAs?$AAq?$AA?9?$AAa?$AAl?$AA?$AA@ 10056198     libucrt:lcidtoname_downlevel.obj
 0002:000051a4       ??_C@_1BG@LJBBIPGB@?$AAs?$AAr?$AA?9?$AAb?$AAa?$AA?9?$AAc?$AAy?$AAr?$AAl?$AA?$AA@ 100561a4     libucrt:lcidtoname_downlevel.obj
 0002:000051bc       ??_C@_1BG@JLBENFOE@?$AAs?$AAr?$AA?9?$AAb?$AAa?$AA?9?$AAl?$AAa?$AAt?$AAn?$AA?$AA@ 100561bc     libucrt:lcidtoname_downlevel.obj
 0002:000051d4       ??_C@_1BG@KODPNHE@?$AAs?$AAr?$AA?9?$AAs?$AAp?$AA?9?$AAc?$AAy?$AAr?$AAl?$AA?$AA@ 100561d4     libucrt:lcidtoname_downlevel.obj
 0002:000051ec       ??_C@_1BG@CIOGKHPB@?$AAs?$AAr?$AA?9?$AAs?$AAp?$AA?9?$AAl?$AAa?$AAt?$AAn?$AA?$AA@ 100561ec     libucrt:lcidtoname_downlevel.obj
 0002:00005204       ??_C@_1M@NGFJLMAC@?$AAs?$AAv?$AA?9?$AAf?$AAi?$AA?$AA@ 10056204     libucrt:lcidtoname_downlevel.obj
 0002:00005210       ??_C@_1M@MPJEJAJC@?$AAs?$AAv?$AA?9?$AAs?$AAe?$AA?$AA@ 10056210     libucrt:lcidtoname_downlevel.obj
 0002:0000521c       ??_C@_1M@MPNDHLFK@?$AAs?$AAw?$AA?9?$AAk?$AAe?$AA?$AA@ 1005621c     libucrt:lcidtoname_downlevel.obj
 0002:00005228       ??_C@_1O@KOHBJJI@?$AAs?$AAy?$AAr?$AA?9?$AAs?$AAy?$AA?$AA@ 10056228     libucrt:lcidtoname_downlevel.obj
 0002:00005238       ??_C@_1M@LDCEFHA@?$AAt?$AAa?$AA?9?$AAi?$AAn?$AA?$AA@ 10056238     libucrt:lcidtoname_downlevel.obj
 0002:00005244       ??_C@_1M@CNJOFAK@?$AAt?$AAe?$AA?9?$AAi?$AAn?$AA?$AA@ 10056244     libucrt:lcidtoname_downlevel.obj
 0002:00005250       ??_C@_1M@GNAECACD@?$AAt?$AAh?$AA?9?$AAt?$AAh?$AA?$AA@ 10056250     libucrt:lcidtoname_downlevel.obj
 0002:0000525c       ??_C@_1M@CHBIHOJO@?$AAt?$AAn?$AA?9?$AAz?$AAa?$AA?$AA@ 1005625c     libucrt:lcidtoname_downlevel.obj
 0002:00005268       ??_C@_1M@GCCMIGPJ@?$AAt?$AAr?$AA?9?$AAt?$AAr?$AA?$AA@ 10056268     libucrt:lcidtoname_downlevel.obj
 0002:00005274       ??_C@_1M@CELMCNBK@?$AAt?$AAt?$AA?9?$AAr?$AAu?$AA?$AA@ 10056274     libucrt:lcidtoname_downlevel.obj
 0002:00005280       ??_C@_1M@KLMCELGA@?$AAu?$AAk?$AA?9?$AAu?$AAa?$AA?$AA@ 10056280     libucrt:lcidtoname_downlevel.obj
 0002:0000528c       ??_C@_1M@EPAJJAJF@?$AAu?$AAr?$AA?9?$AAp?$AAk?$AA?$AA@ 1005628c     libucrt:lcidtoname_downlevel.obj
 0002:00005298       ??_C@_1BG@GEGPMCDJ@?$AAu?$AAz?$AA?9?$AAu?$AAz?$AA?9?$AAc?$AAy?$AAr?$AAl?$AA?$AA@ 10056298     libucrt:lcidtoname_downlevel.obj
 0002:000052b0       ??_C@_1BG@EGGKJILM@?$AAu?$AAz?$AA?9?$AAu?$AAz?$AA?9?$AAl?$AAa?$AAt?$AAn?$AA?$AA@ 100562b0     libucrt:lcidtoname_downlevel.obj
 0002:000052c8       ??_C@_1M@GFOCLFF@?$AAv?$AAi?$AA?9?$AAv?$AAn?$AA?$AA@ 100562c8     libucrt:lcidtoname_downlevel.obj
 0002:000052d4       ??_C@_1M@CPAMEDFI@?$AAx?$AAh?$AA?9?$AAz?$AAa?$AA?$AA@ 100562d4     libucrt:lcidtoname_downlevel.obj
 0002:000052e0       ??_C@_1O@EBKIFIGN@?$AAz?$AAh?$AA?9?$AAc?$AAh?$AAs?$AA?$AA@ 100562e0     libucrt:lcidtoname_downlevel.obj
 0002:000052f0       ??_C@_1O@NMHPGANE@?$AAz?$AAh?$AA?9?$AAc?$AAh?$AAt?$AA?$AA@ 100562f0     libucrt:lcidtoname_downlevel.obj
 0002:00005300       ??_C@_1M@LPINJOMC@?$AAz?$AAh?$AA?9?$AAc?$AAn?$AA?$AA@ 10056300     libucrt:lcidtoname_downlevel.obj
 0002:0000530c       ??_C@_1M@OCJEJODD@?$AAz?$AAh?$AA?9?$AAh?$AAk?$AA?$AA@ 1005630c     libucrt:lcidtoname_downlevel.obj
 0002:00005318       ??_C@_1M@DNDLJINH@?$AAz?$AAh?$AA?9?$AAm?$AAo?$AA?$AA@ 10056318     libucrt:lcidtoname_downlevel.obj
 0002:00005324       ??_C@_1M@MBFDNDND@?$AAz?$AAh?$AA?9?$AAs?$AAg?$AA?$AA@ 10056324     libucrt:lcidtoname_downlevel.obj
 0002:00005330       ??_C@_1M@IMEPLEPE@?$AAz?$AAh?$AA?9?$AAt?$AAw?$AA?$AA@ 10056330     libucrt:lcidtoname_downlevel.obj
 0002:0000533c       ??_C@_1M@BBGHNHJP@?$AAz?$AAu?$AA?9?$AAz?$AAa?$AA?$AA@ 1005633c     libucrt:lcidtoname_downlevel.obj
 0002:000053a8       ??_C@_1BA@BALFACEM@?$AAC?$AAO?$AAN?$AAO?$AAU?$AAT?$AA$?$AA?$AA@ 100563a8     libucrt:initcon.obj
 0002:000054c0       __infinity                 100564c0     libucrt:87tran.obj
 0002:000054ca       __minfinity                100564ca     libucrt:87tran.obj
 0002:000054d4       __logemax                  100564d4     libucrt:87tran.obj
 0002:000054fa       __OP_EXPjmptab             100564fa     libucrt:87tran.obj
 0002:00005520       __indefinite               10056520     libucrt:87disp.obj
 0002:0000552a       __piby2                    1005652a     libucrt:87disp.obj
 0002:00005534       __piby4                    10056534     libucrt:87disp.obj
 0002:00005568       __DEFAULT_CW_in_mem        10056568     libucrt:common.obj
 0002:0000556a       __pi_by_2_to_61            1005656a     libucrt:common.obj
 0002:000055a4       ??_C@_05HGHHAHAP@log10?$AA@ 100565a4     libucrt:libm_error.obj
 0002:000055ac       ??_C@_03KHJOGHMM@exp?$AA@  100565ac     libucrt:libm_error.obj
 0002:000055b0       ??_C@_03JGHBODFD@pow?$AA@  100565b0     libucrt:libm_error.obj
 0002:000055b4       ??_C@_04FIHNOPOL@asin?$AA@ 100565b4     libucrt:libm_error.obj
 0002:000055bc       ??_C@_04PDIFKINK@acos?$AA@ 100565bc     libucrt:libm_error.obj
 0002:000055c4       ??_C@_04EIAKFFMI@sqrt?$AA@ 100565c4     libucrt:libm_error.obj
 0002:000055f0       ___acrt_log10_table_t      100565f0     libucrt:log10_tables.obj
 0002:00005a00       ___acrt_log10_table_cb     10056a00     libucrt:log10_tables.obj
 0002:00005e10       __real@3fe0000000000000    10056e10     libucrt:powhlp.obj
 0002:00005e18       ??_C@_04FJHINJAO@tanh?$AA@ 10056e18     libucrt:fpexcept.obj
 0002:00005e20       ??_C@_04MLLJIGOK@atan?$AA@ 10056e20     libucrt:fpexcept.obj
 0002:00005e28       ??_C@_05KNGEOGJB@atan2?$AA@ 10056e28     libucrt:fpexcept.obj
 0002:00005e30       ??_C@_03BLEJJJBH@sin?$AA@  10056e30     libucrt:fpexcept.obj
 0002:00005e34       ??_C@_03LALBNOCG@cos?$AA@  10056e34     libucrt:fpexcept.obj
 0002:00005e38       ??_C@_03IIINPABG@tan?$AA@  10056e38     libucrt:fpexcept.obj
 0002:00005e3c       ??_C@_04GFPJNGEK@ceil?$AA@ 10056e3c     libucrt:fpexcept.obj
 0002:00005e44       ??_C@_05PBJFFIGL@floor?$AA@ 10056e44     libucrt:fpexcept.obj
 0002:00005e4c       ??_C@_04ODHECPBC@fabs?$AA@ 10056e4c     libucrt:fpexcept.obj
 0002:00005e54       ??_C@_04EHEDPDJG@modf?$AA@ 10056e54     libucrt:fpexcept.obj
 0002:00005e5c       ??_C@_05CEJMAHNP@ldexp?$AA@ 10056e5c     libucrt:fpexcept.obj
 0002:00005e64       ??_C@_05KBKMEMPO@_cabs?$AA@ 10056e64     libucrt:fpexcept.obj
 0002:00005e6c       ??_C@_06MEIMCGCF@_hypot?$AA@ 10056e6c     libucrt:fpexcept.obj
 0002:00005e74       ??_C@_04KEPJIHGP@fmod?$AA@ 10056e74     libucrt:fpexcept.obj
 0002:00005e7c       ??_C@_05GKKHEGJL@frexp?$AA@ 10056e7c     libucrt:fpexcept.obj
 0002:00005e84       ??_C@_03MJLDFKDL@_y0?$AA@  10056e84     libucrt:fpexcept.obj
 0002:00005e88       ??_C@_03NAKIGLHK@_y1?$AA@  10056e88     libucrt:fpexcept.obj
 0002:00005e8c       ??_C@_03ONILCKOB@_yn?$AA@  10056e8c     libucrt:fpexcept.obj
 0002:00005e90       ??_C@_05JGDBENOH@_logb?$AA@ 10056e90     libucrt:fpexcept.obj
 0002:00005e98       ??_C@_0L@KDOEJCKC@_nextafter?$AA@ 10056e98     libucrt:fpexcept.obj
 0002:00005f90       ??_C@_04COOMCNPB@sinh?$AA@ 10056f90     libucrt:fpexcept.obj
 0002:00005f98       ??_C@_04HPJJNFIM@cosh?$AA@ 10056f98     libucrt:fpexcept.obj
 0002:00005fa0       __d_inf                    10056fa0     libucrt:util.obj
 0002:00005fa8       __d_max                    10056fa8     libucrt:util.obj
 0002:00005fb0       __d_mzero                  10056fb0     libucrt:util.obj
 0002:00005fb8       ??_C@_1BK@DBDEIDLH@?$AAK?$AAE?$AAR?$AAN?$AAE?$AAL?$AA3?$AA2?$AA?4?$AAD?$AAL?$AAL?$AA?$AA@ 10056fb8     DelayImp:delayhlp.obj
 0002:00005fd4       ??_C@_0BI@OMNLIJDB@AcquireSRWLockExclusive?$AA@ 10056fd4     DelayImp:delayhlp.obj
 0002:00005fec       ??_C@_0BI@HMIEPCNJ@ReleaseSRWLockExclusive?$AA@ 10056fec     DelayImp:delayhlp.obj
 0002:00006004       ___pfnDliFailureHook2      10057004     DelayImp:delayhk1.obj
 0002:00006008       __load_config_used         10057008     LIBCMT:loadcfg.obj
 0002:00006064       ??_C@_1DG@OKCGPKIB@?$AAp?$AAe?$AAr?$AAs?$AAi?$AAs?$AAt?$AAe?$AAn?$AAt?$AA?$CI?$AA?$CJ?$AA?4?$AAI?$AAs?$AAN?$AAe?$AAa?$AAr?$AAD?$AAe?$AAa?$AAt?$AAh?$AA?$CI?$AA?$CJ?$AA?$AA@ 10057064     batch.obj
 0002:0000609c       ??_C@_1CO@EGNPJLKI@?$AAp?$AAe?$AAr?$AAs?$AAi?$AAs?$AAt?$AAe?$AAn?$AAt?$AA?$CI?$AA?$CJ?$AA?4?$AAI?$AAs?$AAE?$AAm?$AAp?$AAt?$AAy?$AA?$CI?$AA?$CJ?$AA?$AA@ 1005709c     batch.obj
 0002:000060cc       ??_C@_1DA@FBGAEOIO@?$AA?$CB?$AAp?$AAe?$AAr?$AAs?$AAi?$AAs?$AAt?$AAe?$AAn?$AAt?$AA?$CI?$AA?$CJ?$AA?4?$AAI?$AAs?$AAE?$AAm?$AAp?$AAt?$AAy?$AA?$CI?$AA?$CJ?$AA?$AA@ 100570cc     batch.obj
 0002:000060fc       ??_C@_1CO@JCKLEFMA@?$AA?$CB?$AAp?$AAe?$AAr?$AAs?$AAi?$AAs?$AAt?$AAe?$AAn?$AAt?$AA?$CI?$AA?$CJ?$AA?4?$AAI?$AAs?$AAW?$AAe?$AAa?$AAk?$AA?$CI?$AA?$CJ?$AA?$AA@ 100570fc     batch.obj
 0002:0000612c       ??_C@_1BE@GMLLOIPJ@?$AAr?$AAe?$AAf?$AAs?$AA_?$AA?5?$AA?$DO?$AA?5?$AA0?$AA?$AA@ 1005712c     batch.obj
 0002:00006140       ??_C@_1CC@GBFLAAPF@?$AAw?$AAr?$AAa?$AAp?$AA?9?$AA?$DO?$AAr?$AAe?$AAf?$AAs?$AA_?$AA?5?$AA?$DN?$AA?$DN?$AA?5?$AA0?$AA?$AA@ 10057140     batch.obj
 0002:00006168       ??_C@_1IG@BECDHDEO@?$AAc?$AA?3?$AA?2?$AAc?$AAo?$AAd?$AAe?$AA?5?$AAd?$AAe?$AAv?$AAe?$AAl?$AAo?$AAp?$AAm?$AAe?$AAn?$AAt?$AA?2?$AAe?$AAh?$AAe?$AAa?$AAl?$AAt?$AAh?$AAt?$AAe?$AAs?$AAt?$AA?2@ 10057168     batch.obj
 0002:000061f0       ??_C@_1EC@MGGLMBLC@?$AAo?$AAb?$AAj?$AAe?$AAc?$AAt?$AA?9?$AA?$DO?$AAI?$AAn?$AAt?$AAe?$AAr?$AAn?$AAa?$AAl?$AAF?$AAi?$AAe?$AAl?$AAd?$AAC?$AAo?$AAu?$AAn?$AAt?$AA?$CI?$AA?$CJ?$AA?5?$AA?$DO?$AA?5?$AA0@ 100571f0     batch.obj
 0002:00006234       ??_C@_1DI@ELDBKNAK@?$AAw?$AAr?$AAa?$AAp?$AA?9?$AA?$DO?$AAh?$AAa?$AAn?$AAd?$AAl?$AAe?$AA_?$AA?4?$AAI?$AAs?$AAN?$AAe?$AAa?$AAr?$AAD?$AAe?$AAa?$AAt?$AAh?$AA?$CI?$AA?$CJ?$AA?$AA@ 10057234     batch.obj
 0002:0000626c       ??_C@_05KLBHAINL@Batch?$AA@ 1005726c     batch.obj
 0002:00006274       ??_C@_03KMONJGDG@put?$AA@  10057274     batch.obj
 0002:00006278       ??_C@_03ONKLGNNH@del?$AA@  10057278     batch.obj
 0002:0000627c       ??_C@_05MEHLAELG@clear?$AA@ 1005727c     batch.obj
 0002:00006284       ??_C@_05NGFEDHGN@write?$AA@ 10057284     batch.obj
 0002:0000628c       ??_C@_04JNABKDKF@sync?$AA@ 1005728c     batch.obj
 0002:00006294       ??_C@_05KMLLANON@batch?$AA@ 10057294     batch.obj
 0002:0000629c       ??_C@_1CE@LNAGEONJ@?$AA?$CB?$AAo?$AAb?$AAj?$AAe?$AAc?$AAt?$AA?4?$AAI?$AAs?$AAE?$AAm?$AAp?$AAt?$AAy?$AA?$CI?$AA?$CJ?$AA?$AA@ 1005729c     batch.obj
 0002:000062c0       ??_7Batch@leveldown@@6B@   100572c0     batch.obj
 0002:000062cc       ??_7ObjectWrap@Nan@@6B@    100572cc     batch.obj
 0002:000062d8       ??_7AsyncWorker@Nan@@6B@   100572d8     batch_async.obj
 0002:000062f0       ??_7BatchWriteWorker@leveldown@@6B@ 100572f0     batch_async.obj
 0002:00006308       ??_7AsyncWorker@leveldown@@6B@ 10057308     batch_async.obj
 0002:00006320       ??_C@_0BA@JFNIOLAK@string?5too?5long?$AA@ 10057320     database.obj
 0002:00006330       ??_C@_1GO@BKEDHAMP@?$AAC?$AA?3?$AA?2?$AAc?$AAo?$AAd?$AAe?$AA?5?$AAd?$AAe?$AAv?$AAe?$AAl?$AAo?$AAp?$AAm?$AAe?$AAn?$AAt?$AA?2?$AAe?$AAH?$AAe?$AAa?$AAl?$AAt?$AAh?$AAT?$AAe?$AAs?$AAt?$AA?2@ 10057330     database.obj
 0002:000063a0       ??_C@_1BO@OPFMAOCA@?$AAl?$AAe?$AAn?$AA?5?$AA?$DM?$AA?$DN?$AA?5?$AAI?$AAN?$AAT?$AA_?$AAM?$AAA?$AAX?$AA?$AA@ 100573a0     database.obj
 0002:000063c0       ??_C@_1BE@CKDJNAPC@?$AAs?$AAt?$AAr?$AA_?$AA?5?$AA?$CB?$AA?$DN?$AA?5?$AA0?$AA?$AA@ 100573c0     database.obj
 0002:000063d4       ??_C@_08HDBDMMBI@Database?$AA@ 100573d4     database.obj
 0002:000063e0       ??_C@_04PMOCAHAA@open?$AA@ 100573e0     database.obj
 0002:000063e8       ??_C@_05LBOHBHFK@close?$AA@ 100573e8     database.obj
 0002:000063f0       ??_C@_03HNAFFKGA@get?$AA@  100573f0     database.obj
 0002:000063f4       ??_C@_0BA@ICBLEBO@approximateSize?$AA@ 100573f4     database.obj
 0002:00006404       ??_C@_0M@NBNLNHMA@getProperty?$AA@ 10057404     database.obj
 0002:00006410       ??_C@_08EAMFHCBD@iterator?$AA@ 10057410     database.obj
 0002:0000641c       ??_C@_0CE@HHBAOMKC@open?$CI?$CJ?5requires?5a?5callback?5argum@ 1005741c     database.obj
 0002:00006440       ??_C@_0BA@IMLMMIHB@createIfMissing?$AA@ 10057440     database.obj
 0002:00006450       ??_C@_0O@CKMGLPGG@errorIfExists?$AA@ 10057450     database.obj
 0002:00006460       ??_C@_0M@DGJEMLOB@compression?$AA@ 10057460     database.obj
 0002:0000646c       ??_C@_09KLMIPJNI@cacheSize?$AA@ 1005746c     database.obj
 0002:00006478       ??_C@_0BA@DHJKOGAG@writeBufferSize?$AA@ 10057478     database.obj
 0002:00006488       ??_C@_09NKOHFFHE@blockSize?$AA@ 10057488     database.obj
 0002:00006494       ??_C@_0N@OEAPABBL@maxOpenFiles?$AA@ 10057494     database.obj
 0002:000064a4       ??_C@_0BF@KEFIBIAB@blockRestartInterval?$AA@ 100574a4     database.obj
 0002:000064bc       ??_C@_08PBOCEOLL@database?$AA@ 100574bc     database.obj
 0002:000064c8       ??_C@_0CF@NPLBOPGM@close?$CI?$CJ?5requires?5a?5callback?5argu@ 100574c8     database.obj
 0002:000064f0       ??_C@_03JBJLGPFL@end?$AA@  100574f0     database.obj
 0002:000064f4       ??_C@_0CD@OPCHGGCC@put?$CI?$CJ?5requires?5a?5callback?5argume@ 100574f4     database.obj
 0002:00006518       ??_C@_0CD@IGCCFGHB@get?$CI?$CJ?5requires?5a?5callback?5argume@ 10057518     database.obj
 0002:0000653c       ??_C@_08KDGACIGK@asBuffer?$AA@ 1005753c     database.obj
 0002:00006548       ??_C@_09KBFNDMIM@fillCache?$AA@ 10057548     database.obj
 0002:00006554       ??_C@_0CD@LINPOKAD@del?$CI?$CJ?5requires?5a?5callback?5argume@ 10057554     database.obj
 0002:00006578       ??_C@_0CF@CIMGFFEN@batch?$CI?$CJ?5requires?5a?5callback?5argu@ 10057578     database.obj
 0002:000065a0       ??_C@_03ICHNJLJF@key?$AA@  100575a0     database.obj
 0002:000065a4       ??_C@_04GPMDFGEJ@type?$AA@ 100575a4     database.obj
 0002:000065ac       ??_C@_05MFEJDJP@value?$AA@ 100575ac     database.obj
 0002:000065b4       ??_C@_0CP@IOHKLPIB@approximateSize?$CI?$CJ?5requires?5a?5cal@ 100575b4     database.obj
 0002:000065e4       ??_C@_0CD@DMCOACFB@Fatal?5Error?5in?5Database?3?3Iterato@ 100575e4     database.obj
 0002:00006608       ??_C@_0BI@CFPLBAOH@invalid?5string?5position?$AA@ 10057608     database.obj
 0002:00006620       ??_C@_0BE@JONHPENG@map?1set?$DMT?$DO?5too?5long?$AA@ 10057620     database.obj
 0002:00006644       ___pfnDliNotifyHook2       10057644     win_delay_load_hook.obj
 0002:00007870       ??_7Database@leveldown@@6B@ 10058870     database.obj
 0002:00007880       ??_C@_1FM@LOELJOFK@?$AAs?$AAi?$AAz?$AAe?$AA?5?$AA?$DM?$AA?$DN?$AA?5?$AAi?$AAm?$AAp?$AA?3?$AA?3?$AAk?$AAM?$AAa?$AAx?$AAL?$AAe?$AAn?$AAg?$AAt?$AAh?$AA?5?$AA?$CG?$AA?$CG?$AA?5?$AA?$CC?$AAt?$AAo?$AAo?$AA?5@ 10058880     database_async.obj
 0002:000078dc       ??_C@_05FAGFPHJG@start?$AA@ 100588dc     database_async.obj
 0002:000078e4       ??_7BatchWorker@leveldown@@6B@ 100588e4     database_async.obj
 0002:000078fc       ??_7CloseWorker@leveldown@@6B@ 100588fc     database_async.obj
 0002:00007914       ??_7DeleteWorker@leveldown@@6B@ 10058914     database_async.obj
 0002:0000792c       ??_7WriteWorker@leveldown@@6B@ 1005892c     database_async.obj
 0002:00007944       ??_7OpenWorker@leveldown@@6B@ 10058944     database_async.obj
 0002:0000795c       ??_7ReadWorker@leveldown@@6B@ 1005895c     database_async.obj
 0002:00007974       ??_7IOWorker@leveldown@@6B@ 10058974     database_async.obj
 0002:0000798c       ??_7ApproximateSizeWorker@leveldown@@6B@ 1005898c     database_async.obj
 0002:000079a4       ??_C@_0CE@FOALBICH@next?$CI?$CJ?5requires?5a?5callback?5argum@ 100589a4     iterator.obj
 0002:000079c8       ??_C@_0CD@IJEBAALJ@end?$CI?$CJ?5requires?5a?5callback?5argume@ 100589c8     iterator.obj
 0002:000079ec       ??_C@_08MCDEPALA@Iterator?$AA@ 100589ec     iterator.obj
 0002:000079f8       ??_C@_04EDECCOGL@seek?$AA@ 100589f8     iterator.obj
 0002:00007a00       ??_C@_04CJGEDOF@next?$AA@  10058a00     iterator.obj
 0002:00007a08       ??_C@_07KOIEOCCE@reverse?$AA@ 10058a08     iterator.obj
 0002:00007a10       ??_C@_05GADAOHMC@limit?$AA@ 10058a10     iterator.obj
 0002:00007a18       ??_C@_0O@PLFAGPJD@highWaterMark?$AA@ 10058a18     iterator.obj
 0002:00007a28       ??_C@_02KCAKIFL@lt?$AA@    10058a28     iterator.obj
 0002:00007a2c       ??_C@_03OEDJDHDG@lte?$AA@  10058a2c     iterator.obj
 0002:00007a30       ??_C@_02GHFEHLK@gt?$AA@    10058a30     iterator.obj
 0002:00007a34       ??_C@_03DDDILADH@gte?$AA@  10058a34     iterator.obj
 0002:00007a38       ??_C@_04IEPFDAGF@keys?$AA@ 10058a38     iterator.obj
 0002:00007a40       ??_C@_06GEKOPAHD@values?$AA@ 10058a40     iterator.obj
 0002:00007a48       ??_C@_0M@MOFCCECG@keyAsBuffer?$AA@ 10058a48     iterator.obj
 0002:00007a54       ??_C@_0O@ECAICMIE@valueAsBuffer?$AA@ 10058a54     iterator.obj
 0002:00007a64       ??_C@_0BD@OLBABOEK@vector?$DMT?$DO?5too?5long?$AA@ 10058a64     iterator.obj
 0002:00007a78       ??_7Iterator@leveldown@@6B@ 10058a78     iterator.obj
 0002:00007a84       ??_7NextWorker@leveldown@@6B@ 10058a84     iterator_async.obj
 0002:00007a9c       ??_7EndWorker@leveldown@@6B@ 10058a9c     iterator_async.obj
 0002:00007ab4       ??_C@_07OKFGPCEA@destroy?$AA@ 10058ab4     leveldown.obj
 0002:00007abc       ??_C@_06GBBKOEBI@repair?$AA@ 10058abc     leveldown.obj
 0002:00007ac4       ??_C@_09KIOKINMM@leveldown?$AA@ 10058ac4     leveldown.obj
 0002:00007ad0       ??_C@_0BE@BKDFJCMI@?4?4?2src?2leveldown?4cc?$AA@ 10058ad0     leveldown.obj
 0002:00007ae4       ??_7RepairWorker@leveldown@@6B@ 10058ae4     leveldown_async.obj
 0002:00007afc       ??_7DestroyWorker@leveldown@@6B@ 10058afc     leveldown_async.obj
 0002:00007b14       ??_C@_08HCOMDCCD@iojs?4exe?$AA@ 10058b14     win_delay_load_hook.obj
 0002:00007b20       ??_C@_08JDDNMFDB@node?4exe?$AA@ 10058b20     win_delay_load_hook.obj
 0002:00007b29       ??_C@_00CNPNBAHC@?$AA@     10058b29     leveldb:write_batch.obj
 0002:00007b30       ??_C@_1NG@HPJAKIIF@?$AAC?$AA?3?$AA?2?$AAc?$AAo?$AAd?$AAe?$AA?5?$AAd?$AAe?$AAv?$AAe?$AAl?$AAo?$AAp?$AAm?$AAe?$AAn?$AAt?$AA?2?$AAe?$AAH?$AAe?$AAa?$AAl?$AAt?$AAh?$AAT?$AAe?$AAs?$AAt?$AA?2@ 10058b30     leveldb:write_batch.obj
 0002:00007c08       ??_C@_1BG@NADKCJKJ@?$AAn?$AA?5?$AA?$DM?$AA?5?$AAs?$AAi?$AAz?$AAe?$AA?$CI?$AA?$CJ?$AA?$AA@ 10058c08     leveldb:write_batch.obj
 0002:00007c20       ??_C@_1BI@LMLGEHCA@?$AAn?$AA?5?$AA?$DM?$AA?$DN?$AA?5?$AAs?$AAi?$AAz?$AAe?$AA?$CI?$AA?$CJ?$AA?$AA@ 10058c20     leveldb:write_batch.obj
 0002:00007c38       ??_C@_0CB@MFAPGBPB@malformed?5WriteBatch?5?$CItoo?5small?$CJ@ 10058c38     leveldb:write_batch.obj
 0002:00007c5c       ??_C@_0BD@KFCDGH@bad?5WriteBatch?5Put?$AA@ 10058c5c     leveldb:write_batch.obj
 0002:00007c70       ??_C@_0BG@NCNAMDPJ@bad?5WriteBatch?5Delete?$AA@ 10058c70     leveldb:write_batch.obj
 0002:00007c88       ??_C@_0BH@MHGNFOAB@unknown?5WriteBatch?5tag?$AA@ 10058c88     leveldb:write_batch.obj
 0002:00007ca0       ??_C@_0BL@GDAJGIHJ@WriteBatch?5has?5wrong?5count?$AA@ 10058ca0     leveldb:write_batch.obj
 0002:00007cc0       ??_C@_1EC@EIAIFPOJ@?$AAl?$AAe?$AAv?$AAe?$AAl?$AAd?$AAb?$AA?9?$AA1?$AA?4?$AA1?$AA8?$AA?4?$AA0?$AA?2?$AAd?$AAb?$AA?2?$AAw?$AAr?$AAi?$AAt?$AAe?$AA_?$AAb?$AAa?$AAt?$AAc?$AAh?$AA?4?$AAc?$AAc@ 10058cc0     leveldb:write_batch.obj
 0002:00007d04       ??_C@_1DI@BGNOMHCM@?$AAs?$AAr?$AAc?$AA?9?$AA?$DO?$AAr?$AAe?$AAp?$AA_?$AA?4?$AAs?$AAi?$AAz?$AAe?$AA?$CI?$AA?$CJ?$AA?5?$AA?$DO?$AA?$DN?$AA?5?$AAk?$AAH?$AAe?$AAa?$AAd?$AAe?$AAr?$AA?$AA@ 10058d04     leveldb:write_batch.obj
 0002:00007d3c       ??_7SequentialFile@leveldb@@6B@ 10058d3c     leveldb:env.obj
 0002:00007d3c       ??_7Handler@WriteBatch@leveldb@@6B@ 10058d3c     leveldb:write_batch.obj
 0002:00007d48       ??_7MemTableInserter@?A0x588df0ed@leveldb@@6B@ 10058d48     leveldb:write_batch.obj
 0002:00007d54       ??_C@_02GIPFHKNO@OK?$AA@   10058d54     leveldb:status.obj
 0002:00007d58       ??_C@_0L@HKDIDHFG@NotFound?3?5?$AA@ 10058d58     leveldb:status.obj
 0002:00007d64       ??_C@_0N@KDKDJABO@Corruption?3?5?$AA@ 10058d64     leveldb:status.obj
 0002:00007d74       ??_C@_0BC@IFMBLDI@Not?5implemented?3?5?$AA@ 10058d74     leveldb:status.obj
 0002:00007d88       ??_C@_0BD@JMODGJIE@Invalid?5argument?3?5?$AA@ 10058d88     leveldb:status.obj
 0002:00007d9c       ??_C@_0L@BHAHLIIP@IO?5error?3?5?$AA@ 10058d9c     leveldb:status.obj
 0002:00007da8       ??_C@_0BD@MHNAFLBE@Unknown?5code?$CI?$CFd?$CJ?3?5?$AA@ 10058da8     leveldb:status.obj
 0002:00007dbc       ??_C@_0BM@ELMIHIHJ@leveldb?4BuiltinBloomFilter2?$AA@ 10058dbc     leveldb:bloom.obj
 0002:00007dd8       ??_7FilterPolicy@leveldb@@6B@ 10058dd8     leveldb:bloom.obj
 0002:00007dd8       ??_7Source@snappy@@6B@     10058dd8     snappy:snappy.obj
 0002:00007de8       ??_7BloomFilterPolicy@?A0xdfcd7922@leveldb@@6B@ 10058de8     leveldb:bloom.obj
 0002:00007df8       ??_C@_1MC@MMGCBOOH@?$AAC?$AA?3?$AA?2?$AAc?$AAo?$AAd?$AAe?$AA?5?$AAd?$AAe?$AAv?$AAe?$AAl?$AAo?$AAp?$AAm?$AAe?$AAn?$AAt?$AA?2?$AAe?$AAH?$AAe?$AAa?$AAl?$AAt?$AAh?$AAT?$AAe?$AAs?$AAt?$AA?2@ 10058df8     leveldb:db_impl.obj
 0002:00007ebc       ??_C@_1DC@KFNEGKGI@?$AAi?$AAn?$AAt?$AAe?$AAr?$AAn?$AAa?$AAl?$AA_?$AAk?$AAe?$AAy?$AA?4?$AAs?$AAi?$AAz?$AAe?$AA?$CI?$AA?$CJ?$AA?5?$AA?$DO?$AA?$DN?$AA?5?$AA8?$AA?$AA@ 10058ebc     leveldb:db_impl.obj
 0002:00007ef0       ??_C@_1MC@EBPMKCBI@?$AAC?$AA?3?$AA?2?$AAc?$AAo?$AAd?$AAe?$AA?5?$AAd?$AAe?$AAv?$AAe?$AAl?$AAo?$AAp?$AAm?$AAe?$AAn?$AAt?$AA?2?$AAe?$AAH?$AAe?$AAa?$AAl?$AAt?$AAh?$AAT?$AAe?$AAs?$AAt?$AA?2@ 10058ef0     leveldb:db_impl.obj
 0002:00007fb4       ??_C@_1CC@BBPCDAAO@?$AAs?$AA?9?$AA?$DO?$AAl?$AAi?$AAs?$AAt?$AA_?$AA?5?$AA?$DN?$AA?$DN?$AA?5?$AAt?$AAh?$AAi?$AAs?$AA?$AA@ 10058fb4     leveldb:db_impl.obj
 0002:00007fd8       ??_C@_1MC@OPMOKADK@?$AAC?$AA?3?$AA?2?$AAc?$AAo?$AAd?$AAe?$AA?5?$AAd?$AAe?$AAv?$AAe?$AAl?$AAo?$AAp?$AAm?$AAe?$AAn?$AAt?$AA?2?$AAe?$AAH?$AAe?$AAa?$AAl?$AAt?$AAh?$AAT?$AAe?$AAs?$AAt?$AA?2@ 10058fd8     leveldb:db_impl.obj
 0002:0000809c       ??_C@_1BG@HPOMICMF@?$AAr?$AAe?$AAf?$AAs?$AA_?$AA?5?$AA?$DO?$AA?$DN?$AA?5?$AA0?$AA?$AA@ 1005909c     leveldb:db_impl.obj
 0002:000080b8       ??_C@_1MI@CAFGJHNJ@?$AAC?$AA?3?$AA?2?$AAc?$AAo?$AAd?$AAe?$AA?5?$AAd?$AAe?$AAv?$AAe?$AAl?$AAo?$AAp?$AAm?$AAe?$AAn?$AAt?$AA?2?$AAe?$AAH?$AAe?$AAa?$AAl?$AAt?$AAh?$AAT?$AAe?$AAs?$AAt?$AA?2@ 100590b8     leveldb:db_impl.obj
 0002:00008180       ??_C@_1CI@ONGMKBKI@?$AAs?$AA?5?$AA?$DO?$AA?$DN?$AA?5?$AAl?$AAa?$AAs?$AAt?$AA_?$AAs?$AAe?$AAq?$AAu?$AAe?$AAn?$AAc?$AAe?$AA_?$AA?$AA@ 10059180     leveldb:db_impl.obj
 0002:000081a8       ??_C@_0BC@JALOIKCP@Ignoring?5error?5?$CFs?$AA@ 100591a8     leveldb:db_impl.obj
 0002:000081bc       ??_C@_0BG@JFOLEODH@Delete?5type?$DN?$CFd?5?$CD?$CFlld?6?$AA@ 100591bc     leveldb:db_impl.obj
 0002:000081d4       ??_C@_01KMDKNFGN@?1?$AA@   100591d4     leveldb:db_impl.obj
 0002:000081d8       ??_C@_1DK@PFAOANLP@?$AAl?$AAe?$AAv?$AAe?$AAl?$AAd?$AAb?$AA?9?$AA1?$AA?4?$AA1?$AA8?$AA?4?$AA0?$AA?2?$AAd?$AAb?$AA?2?$AAd?$AAb?$AA_?$AAi?$AAm?$AAp?$AAl?$AA?4?$AAc?$AAc?$AA?$AA@ 100591d8     leveldb:db_impl.obj
 0002:00008214       ??_C@_1CC@ILLOLGKN@?$AAd?$AAb?$AA_?$AAl?$AAo?$AAc?$AAk?$AA_?$AA?5?$AA?$DN?$AA?$DN?$AA?5?$AAN?$AAU?$AAL?$AAL?$AA?$AA@ 10059214     leveldb:db_impl.obj
 0002:00008238       ??_C@_0CM@NJBPDBKJ@does?5not?5exist?5?$CIcreate_if_missin@ 10059238     leveldb:db_impl.obj
 0002:00008264       ??_C@_0CB@JKAIOEMM@exists?5?$CIerror_if_exists?5is?5true?$CJ@ 10059264     leveldb:db_impl.obj
 0002:00008288       ??_C@_0BH@FNAANBPD@?$CFd?5missing?5files?$DL?5e?4g?4?$AA@ 10059288     leveldb:db_impl.obj
 0002:000082a0       ??_C@_0BC@HAHNELHF@?$CIignoring?5error?$CJ?5?$AA@ 100592a0     leveldb:db_impl.obj
 0002:000082b4       ??_C@_0BM@IEECBMAN@?$CFs?$CFs?3?5dropping?5?$CFd?5bytes?$DL?5?$CFs?$AA@ 100592b4     leveldb:db_impl.obj
 0002:000082d0       ??_C@_0BF@KNKOMAKO@Recovering?5log?5?$CD?$CFllu?$AA@ 100592d0     leveldb:db_impl.obj
 0002:000082e8       ??_C@_0BF@JFEJNHOC@log?5record?5too?5small?$AA@ 100592e8     leveldb:db_impl.obj
 0002:00008300       ??_C@_0BN@COCEKI@Level?90?5table?5?$CD?$CFllu?3?5started?$AA@ 10059300     leveldb:db_impl.obj
 0002:00008320       ??_C@_0CD@DPCIKGHP@Level?90?5table?5?$CD?$CFllu?3?5?$CFlld?5bytes?5@ 10059320     leveldb:db_impl.obj
 0002:00008344       ??_C@_1BK@IGFHJPED@?$AAi?$AAm?$AAm?$AA_?$AA?5?$AA?$CB?$AA?$DN?$AA?5?$AAN?$AAU?$AAL?$AAL?$AA?$AA@ 10059344     leveldb:db_impl.obj
 0002:00008360       ??_C@_0CH@IOLOKLFC@Deleting?5DB?5during?5memtable?5comp@ 10059360     leveldb:db_impl.obj
 0002:00008388       ??_C@_1BG@FBALNOAJ@?$AAl?$AAe?$AAv?$AAe?$AAl?$AA?5?$AA?$DO?$AA?$DN?$AA?5?$AA0?$AA?$AA@ 10059388     leveldb:db_impl.obj
 0002:000083a0       ??_C@_1DO@HOBCOBHH@?$AAl?$AAe?$AAv?$AAe?$AAl?$AA?5?$AA?$CL?$AA?5?$AA1?$AA?5?$AA?$DM?$AA?5?$AAc?$AAo?$AAn?$AAf?$AAi?$AAg?$AA?3?$AA?3?$AAk?$AAN?$AAu?$AAm?$AAL?$AAe?$AAv?$AAe?$AAl?$AAs?$AA?$AA@ 100593a0     leveldb:db_impl.obj
 0002:000083e0       ??_C@_1DC@OJMHCMCP@?$AAb?$AAg?$AA_?$AAc?$AAo?$AAm?$AAp?$AAa?$AAc?$AAt?$AAi?$AAo?$AAn?$AA_?$AAs?$AAc?$AAh?$AAe?$AAd?$AAu?$AAl?$AAe?$AAd?$AA_?$AA?$AA@ 100593e0     leveldb:db_impl.obj
 0002:00008414       ??_C@_05CEHBFNBN@?$CIend?$CJ?$AA@ 10059414     leveldb:db_impl.obj
 0002:0000841c       ??_C@_07JPGNPAEF@?$CIbegin?$CJ?$AA@ 1005941c     leveldb:db_impl.obj
 0002:00008424       ??_C@_0DO@LGGFBPLI@Manual?5compaction?5at?5level?9?$CFd?5fr@ 10059424     leveldb:db_impl.obj
 0002:00008464       ??_C@_1DG@BKJODJLI@?$AAc?$AA?9?$AA?$DO?$AAn?$AAu?$AAm?$AA_?$AAi?$AAn?$AAp?$AAu?$AAt?$AA_?$AAf?$AAi?$AAl?$AAe?$AAs?$AA?$CI?$AA0?$AA?$CJ?$AA?5?$AA?$DN?$AA?$DN?$AA?5?$AA1?$AA?$AA@ 10059464     leveldb:db_impl.obj
 0002:0000849c       ??_C@_0CL@LBPMNBCM@Moved?5?$CD?$CFlld?5to?5level?9?$CFd?5?$CFlld?5byt@ 1005949c     leveldb:db_impl.obj
 0002:000084c8       ??_C@_0BF@JOIADNEO@Compaction?5error?3?5?$CFs?$AA@ 100594c8     leveldb:db_impl.obj
 0002:000084e0       ??_C@_1DC@KCAEGKPC@?$AAc?$AAo?$AAm?$AAp?$AAa?$AAc?$AAt?$AA?9?$AA?$DO?$AAo?$AAu?$AAt?$AAf?$AAi?$AAl?$AAe?$AA?5?$AA?$DN?$AA?$DN?$AA?5?$AAN?$AAU?$AAL?$AAL?$AA?$AA@ 100594e0     leveldb:db_impl.obj
 0002:00008514       ??_C@_1CA@NDGIODEB@?$AAc?$AAo?$AAm?$AAp?$AAa?$AAc?$AAt?$AA?5?$AA?$CB?$AA?$DN?$AA?5?$AAN?$AAU?$AAL?$AAL?$AA?$AA@ 10059514     leveldb:db_impl.obj
 0002:00008534       ??_C@_1DC@FHGJPBE@?$AAc?$AAo?$AAm?$AAp?$AAa?$AAc?$AAt?$AA?9?$AA?$DO?$AAb?$AAu?$AAi?$AAl?$AAd?$AAe?$AAr?$AA?5?$AA?$DN?$AA?$DN?$AA?5?$AAN?$AAU?$AAL?$AAL?$AA?$AA@ 10059534     leveldb:db_impl.obj
 0002:00008568       ??_C@_1DC@ODABIHKE@?$AAc?$AAo?$AAm?$AAp?$AAa?$AAc?$AAt?$AA?9?$AA?$DO?$AAo?$AAu?$AAt?$AAf?$AAi?$AAl?$AAe?$AA?5?$AA?$CB?$AA?$DN?$AA?5?$AAN?$AAU?$AAL?$AAL?$AA?$AA@ 10059568     leveldb:db_impl.obj
 0002:0000859c       ??_C@_1DC@EEHDHCEC@?$AAc?$AAo?$AAm?$AAp?$AAa?$AAc?$AAt?$AA?9?$AA?$DO?$AAb?$AAu?$AAi?$AAl?$AAd?$AAe?$AAr?$AA?5?$AA?$CB?$AA?$DN?$AA?5?$AAN?$AAU?$AAL?$AAL?$AA?$AA@ 1005959c     leveldb:db_impl.obj
 0002:000085d0       ??_C@_1CG@KJIIHBA@?$AAo?$AAu?$AAt?$AAp?$AAu?$AAt?$AA_?$AAn?$AAu?$AAm?$AAb?$AAe?$AAr?$AA?5?$AA?$CB?$AA?$DN?$AA?5?$AA0?$AA?$AA@ 100595d0     leveldb:db_impl.obj
 0002:000085f8       ??_C@_0CN@OLFAHAMO@Generated?5table?5?$CD?$CFllu?3?5?$CFlld?5keys@ 100595f8     leveldb:db_impl.obj
 0002:00008628       ??_C@_0CM@JOHCMPNB@Compacted?5?$CFd?$EA?$CFd?5?$CL?5?$CFd?$EA?$CFd?5files?5?$DN?$DO@ 10059628     leveldb:db_impl.obj
 0002:00008654       ??_C@_0BP@GPNCHHBE@Compacting?5?$CFd?$EA?$CFd?5?$CL?5?$CFd?$EA?$CFd?5files?$AA@ 10059654     leveldb:db_impl.obj
 0002:00008678       ??_C@_1HG@ECCOJIDM@?$AAv?$AAe?$AAr?$AAs?$AAi?$AAo?$AAn?$AAs?$AA_?$AA?9?$AA?$DO?$AAN?$AAu?$AAm?$AAL?$AAe?$AAv?$AAe?$AAl?$AAF?$AAi?$AAl?$AAe?$AAs?$AA?$CI?$AAc?$AAo?$AAm?$AAp?$AAa?$AAc?$AAt@ 10059678     leveldb:db_impl.obj
 0002:000086f0       ??_C@_0BO@HDOHHFLN@Deleting?5DB?5during?5compaction?$AA@ 100596f0     leveldb:db_impl.obj
 0002:00008710       ??_C@_0BB@GIEMGFNH@compacted?5to?3?5?$CFs?$AA@ 10059710     leveldb:db_impl.obj
 0002:00008724       ??_C@_1CE@COAOCGAO@?$AA?$CB?$AAw?$AAr?$AAi?$AAt?$AAe?$AAr?$AAs?$AA_?$AA?4?$AAe?$AAm?$AAp?$AAt?$AAy?$AA?$CI?$AA?$CJ?$AA?$AA@ 10059724     leveldb:db_impl.obj
 0002:00008748       ??_C@_1BO@PMNIFHIJ@?$AAr?$AAe?$AAs?$AAu?$AAl?$AAt?$AA?5?$AA?$CB?$AA?$DN?$AA?5?$AAN?$AAU?$AAL?$AAL?$AA?$AA@ 10059748     leveldb:db_impl.obj
 0002:00008768       ??_C@_1EO@NFIJBALM@?$AAW?$AAr?$AAi?$AAt?$AAe?$AAB?$AAa?$AAt?$AAc?$AAh?$AAI?$AAn?$AAt?$AAe?$AAr?$AAn?$AAa?$AAl?$AA?3?$AA?3?$AAC?$AAo?$AAu?$AAn?$AAt?$AA?$CI?$AAr?$AAe?$AAs?$AAu?$AAl?$AAt@ 10059768     leveldb:db_impl.obj
 0002:000087b8       ??_C@_0CD@OHHDGDOO@Current?5memtable?5full?$DL?5waiting?4?4@ 100597b8     leveldb:db_impl.obj
 0002:000087dc       ??_C@_0BP@GEAHKBIC@Too?5many?5L0?5files?$DL?5waiting?4?4?4?6?$AA@ 100597dc     leveldb:db_impl.obj
 0002:00008800       ??_C@_1EA@HKFFNOJN@?$AAv?$AAe?$AAr?$AAs?$AAi?$AAo?$AAn?$AAs?$AA_?$AA?9?$AA?$DO?$AAP?$AAr?$AAe?$AAv?$AAL?$AAo?$AAg?$AAN?$AAu?$AAm?$AAb?$AAe?$AAr?$AA?$CI?$AA?$CJ?$AA?5?$AA?$DN?$AA?$DN?$AA?5?$AA0?$AA?$AA@ 10059800     leveldb:db_impl.obj
 0002:00008840       ??_C@_0BD@BJKCBABH@num?9files?9at?9level?$AA@ 10059840     leveldb:db_impl.obj
 0002:00008854       ??_C@_02DPKJAMEF@?$CFd?$AA@ 10059854     leveldb:db_impl.obj
 0002:00008858       ??_C@_05BLKJBNOD@stats?$AA@ 10059858     leveldb:db_impl.obj
 0002:00008860       ??_C@_0JC@FBIEFEEE@?5?5?5?5?5?5?5?5?5?5?5?5?5?5?5?5?5?5?5?5?5?5?5?5?5?5?5?5?5?5?5C@ 10059860     leveldb:db_impl.obj
 0002:000088f4       ??_C@_0CB@CPHKKDC@?$CF3d?5?$CF8d?5?$CF8?40f?5?$CF9?40f?5?$CF8?40f?5?$CF9?40f?6@ 100598f4     leveldb:db_impl.obj
 0002:00008918       ??_C@_08PBIEOFJN@sstables?$AA@ 10059918     leveldb:db_impl.obj
 0002:00008924       ??_C@_0BC@KBDMBKEH@deque?$DMT?$DO?5too?5long?$AA@ 10059924     leveldb:db_impl.obj
 0002:00008938       ??_7DBImpl@leveldb@@6B@    10059938     leveldb:db_impl.obj
 0002:00008964       ??_7InternalKeyComparator@leveldb@@6B@ 10059964     leveldb:db_impl.obj
 0002:00008978       ??_7DB@leveldb@@6B@        10059978     leveldb:db_impl.obj
 0002:000089a4       ??_7FileLock@leveldb@@6B@  100599a4     leveldb:env.obj
 0002:000089a4       ??_7Snapshot@leveldb@@6B@  100599a4     leveldb:db_impl.obj
 0002:000089a8       ??_7InternalFilterPolicy@leveldb@@6B@ 100599a8     leveldb:db_impl.obj
 0002:000089b8       ??_7SnapshotImpl@leveldb@@6B@ 100599b8     leveldb:db_impl.obj
 0002:000089bc       ??_7LogReporter@?1??RecoverLogFile@DBImpl@leveldb@@AAE?AVStatus@3@_KPAVVersionEdit@3@PA_K@Z@6B@ 100599bc     leveldb:db_impl.obj
 0002:000089c4       ??_C@_1DK@GIOCKMOI@?$AAl?$AAe?$AAv?$AAe?$AAl?$AAd?$AAb?$AA?9?$AA1?$AA?4?$AA1?$AA8?$AA?4?$AA0?$AA?2?$AAu?$AAt?$AAi?$AAl?$AA?2?$AAc?$AAa?$AAc?$AAh?$AAe?$AA?4?$AAc?$AAc?$AA?$AA@ 100599c4     leveldb:cache.obj
 0002:00008a00       ??_C@_1CA@DEHIGIIA@?$AAe?$AAl?$AAe?$AAm?$AAs?$AA_?$AA?5?$AA?$DN?$AA?$DN?$AA?5?$AAc?$AAo?$AAu?$AAn?$AAt?$AA?$AA@ 10059a00     leveldb:cache.obj
 0002:00008a20       ??_C@_1BK@NGJLMDHI@?$AAe?$AA?9?$AA?$DO?$AAr?$AAe?$AAf?$AAs?$AA?5?$AA?$DN?$AA?$DN?$AA?5?$AA1?$AA?$AA@ 10059a20     leveldb:cache.obj
 0002:00008a3c       ??_C@_1BI@HFHCLOOL@?$AAe?$AA?9?$AA?$DO?$AAr?$AAe?$AAf?$AAs?$AA?5?$AA?$DO?$AA?5?$AA0?$AA?$AA@ 10059a3c     leveldb:cache.obj
 0002:00008a54       ??_7ShardedLRUCache@?A0xb96669bd@leveldb@@6B@ 10059a54     leveldb:cache.obj
 0002:00008a70       ??_7Cache@leveldb@@6B@     10059a70     leveldb:cache.obj
 0002:00008a90       ??_C@_0FN@FKGADHBF@?$CK?$CK?$CK?$CK?5Repaired?5leveldb?5?$CFs?$DL?5recove@ 10059a90     leveldb:repair.obj
 0002:00008af0       ??_C@_0BG@OHLKFIFI@repair?5found?5no?5files?$AA@ 10059af0     leveldb:repair.obj
 0002:00008b08       ??_C@_0CJ@EOKELPDO@Log?5?$CD?$CFllu?3?5ignoring?5conversion?5e@ 10059b08     leveldb:repair.obj
 0002:00008b34       ??_C@_0CB@ONPMNLMB@Log?5?$CD?$CFllu?3?5dropping?5?$CFd?5bytes?$DL?5?$CFs@ 10059b34     leveldb:repair.obj
 0002:00008b58       ??_C@_0BH@EOEMDKLP@Log?5?$CD?$CFllu?3?5ignoring?5?$CFs?$AA@ 10059b58     leveldb:repair.obj
 0002:00008b70       ??_C@_0CK@CMDCKOFJ@Log?5?$CD?$CFllu?3?5?$CFd?5ops?5saved?5to?5Table@ 10059b70     leveldb:repair.obj
 0002:00008b9c       ??_C@_0BJ@JPIJNMOF@Table?5?$CD?$CFllu?3?5dropped?3?5?$CFs?$AA@ 10059b9c     leveldb:repair.obj
 0002:00008bb8       ??_C@_0BP@CLHNPLFM@Table?5?$CD?$CFllu?3?5unparsable?5key?5?$CFs?$AA@ 10059bb8     leveldb:repair.obj
 0002:00008bd8       ??_C@_0BL@NILBKKHO@Table?5?$CD?$CFllu?3?5?$CFd?5entries?5?$CFs?$AA@ 10059bd8     leveldb:repair.obj
 0002:00008bf4       ??_C@_0CB@LEFFGEHF@Table?5?$CD?$CFllu?3?5?$CFd?5entries?5repaired@ 10059bf4     leveldb:repair.obj
 0002:00008c18       ??_C@_05JKKEPOFN@?1lost?$AA@ 10059c18     leveldb:repair.obj
 0002:00008c20       ??_C@_0BC@ONAGHBGP@Archiving?5?$CFs?3?5?$CFs?6?$AA@ 10059c20     leveldb:repair.obj
 0002:00008c34       ??_7LogReporter@?1??ConvertLogToTable@Repairer@?A0xf1d2c879@leveldb@@AAE?AVStatus@4@_K@Z@6B@ 10059c34     leveldb:repair.obj
 0002:00008c40       ??_C@_1MA@ONGHFFIG@?$AAC?$AA?3?$AA?2?$AAc?$AAo?$AAd?$AAe?$AA?5?$AAd?$AAe?$AAv?$AAe?$AAl?$AAo?$AAp?$AAm?$AAe?$AAn?$AAt?$AA?2?$AAe?$AAH?$AAe?$AAa?$AAl?$AAt?$AAh?$AAT?$AAe?$AAs?$AAt?$AA?2@ 10059c40     leveldb:memtable.obj
 0002:00008d00       ??_C@_1BE@FMOLJMJA@?$AAb?$AAy?$AAt?$AAe?$AAs?$AA?5?$AA?$DO?$AA?5?$AA0?$AA?$AA@ 10059d00     leveldb:memtable.obj
 0002:00008d14       ??_C@_1DM@BLEOBKMD@?$AAl?$AAe?$AAv?$AAe?$AAl?$AAd?$AAb?$AA?9?$AA1?$AA?4?$AA1?$AA8?$AA?4?$AA0?$AA?2?$AAd?$AAb?$AA?2?$AAm?$AAe?$AAm?$AAt?$AAa?$AAb?$AAl?$AAe?$AA?4?$AAc?$AAc?$AA?$AA@ 10059d14     leveldb:memtable.obj
 0002:00008d50       ??_C@_1BG@JENLDJMG@?$AAr?$AAe?$AAf?$AAs?$AA_?$AA?5?$AA?$DN?$AA?$DN?$AA?5?$AA0?$AA?$AA@ 10059d50     leveldb:memtable.obj
 0002:00008d68       ??_C@_1EI@EDGMFDOF@?$AA?$CI?$AAp?$AA?5?$AA?$CL?$AA?5?$AAv?$AAa?$AAl?$AA_?$AAs?$AAi?$AAz?$AAe?$AA?$CJ?$AA?5?$AA?9?$AA?5?$AAb?$AAu?$AAf?$AA?5?$AA?$DN?$AA?$DN?$AA?5?$AAe?$AAn?$AAc?$AAo?$AAd?$AAe?$AAd?$AA_@ 10059d68     leveldb:memtable.obj
 0002:00008db0       ??_C@_1MC@OLDGHJJI@?$AAC?$AA?3?$AA?2?$AAc?$AAo?$AAd?$AAe?$AA?5?$AAd?$AAe?$AAv?$AAe?$AAl?$AAo?$AAp?$AAm?$AAe?$AAn?$AAt?$AA?2?$AAe?$AAH?$AAe?$AAa?$AAl?$AAt?$AAh?$AAT?$AAe?$AAs?$AAt?$AA?2@ 10059db0     leveldb:memtable.obj
 0002:00008e78       ??_C@_1EC@PIHPBHJD@?$AAx?$AA?5?$AA?$DN?$AA?$DN?$AA?5?$AAN?$AAU?$AAL?$AAL?$AA?5?$AA?$HM?$AA?$HM?$AA?5?$AA?$CB?$AAE?$AAq?$AAu?$AAa?$AAl?$AA?$CI?$AAk?$AAe?$AAy?$AA?0?$AA?5?$AAx?$AA?9?$AA?$DO?$AAk?$AAe?$AAy?$AA?$CJ@ 10059e78     leveldb:memtable.obj
 0002:00008ebc       ??_C@_1BA@PLJALMOI@?$AAV?$AAa?$AAl?$AAi?$AAd?$AA?$CI?$AA?$CJ?$AA?$AA@ 10059ebc     leveldb:memtable.obj
 0002:00008ecc       ??_C@_1O@OOEGIONJ@?$AAn?$AA?5?$AA?$DO?$AA?$DN?$AA?5?$AA0?$AA?$AA@ 10059ecc     leveldb:memtable.obj
 0002:00008edc       ??_C@_1BG@MDOPMIMK@?$AAh?$AAe?$AAi?$AAg?$AAh?$AAt?$AA?5?$AA?$DO?$AA?5?$AA0?$AA?$AA@ 10059edc     leveldb:memtable.obj
 0002:00008ef4       ??_C@_1CK@ECEBNFHB@?$AAh?$AAe?$AAi?$AAg?$AAh?$AAt?$AA?5?$AA?$DM?$AA?$DN?$AA?5?$AAk?$AAM?$AAa?$AAx?$AAH?$AAe?$AAi?$AAg?$AAh?$AAt?$AA?$AA@ 10059ef4     leveldb:memtable.obj
 0002:00008f20       ??_C@_1FA@EOIGNBHK@?$AAx?$AA?5?$AA?$DN?$AA?$DN?$AA?5?$AAh?$AAe?$AAa?$AAd?$AA_?$AA?5?$AA?$HM?$AA?$HM?$AA?5?$AAc?$AAo?$AAm?$AAp?$AAa?$AAr?$AAe?$AA_?$AA?$CI?$AAx?$AA?9?$AA?$DO?$AAk?$AAe?$AAy?$AA?0?$AA?5?$AAk@ 10059f20     leveldb:memtable.obj
 0002:00008f70       ??_7MemTableIterator@leveldb@@6B@ 10059f70     leveldb:memtable.obj
 0002:00008f98       ??_C@_1DM@DABBMLG@?$AAl?$AAe?$AAv?$AAe?$AAl?$AAd?$AAb?$AA?9?$AA1?$AA?4?$AA1?$AA8?$AA?4?$AA0?$AA?2?$AAd?$AAb?$AA?2?$AAd?$AAb?$AAf?$AAo?$AAr?$AAm?$AAa?$AAt?$AA?4?$AAc?$AAc?$AA?$AA@ 10059f98     leveldb:dbformat.obj
 0002:00008fd4       ??_C@_1DE@LFLGLKMI@?$AAs?$AAe?$AAq?$AA?5?$AA?$DM?$AA?$DN?$AA?5?$AAk?$AAM?$AAa?$AAx?$AAS?$AAe?$AAq?$AAu?$AAe?$AAn?$AAc?$AAe?$AAN?$AAu?$AAm?$AAb?$AAe?$AAr?$AA?$AA@ 10059fd4     leveldb:dbformat.obj
 0002:00009008       ??_C@_1CO@MKPIOOCL@?$AAt?$AA?5?$AA?$DM?$AA?$DN?$AA?5?$AAk?$AAV?$AAa?$AAl?$AAu?$AAe?$AAT?$AAy?$AAp?$AAe?$AAF?$AAo?$AAr?$AAS?$AAe?$AAe?$AAk?$AA?$AA@ 1005a008     leveldb:dbformat.obj
 0002:00009038       ??_C@_0O@NKEDPHCJ@?8?5?$EA?5?$CFllu?5?3?5?$CFd?$AA@ 1005a038     leveldb:dbformat.obj
 0002:00009048       ??_C@_01GEODFPGF@?8?$AA@   1005a048     leveldb:dbformat.obj
 0002:0000904c       ??_C@_05MODCJBFL@?$CIbad?$CJ?$AA@ 1005a04c     leveldb:dbformat.obj
 0002:00009054       ??_C@_0BO@PEHHCKBL@leveldb?4InternalKeyComparator?$AA@ 1005a054     leveldb:dbformat.obj
 0002:00009074       ??_C@_1DO@GBOLJMAG@?$AAt?$AAh?$AAi?$AAs?$AA?9?$AA?$DO?$AAC?$AAo?$AAm?$AAp?$AAa?$AAr?$AAe?$AA?$CI?$AA?$CK?$AAs?$AAt?$AAa?$AAr?$AAt?$AA?0?$AA?5?$AAt?$AAm?$AAp?$AA?$CJ?$AA?5?$AA?$DM?$AA?5?$AA0?$AA?$AA@ 1005a074     leveldb:dbformat.obj
 0002:000090b4       ??_C@_1DM@DCNNJMDC@?$AAt?$AAh?$AAi?$AAs?$AA?9?$AA?$DO?$AAC?$AAo?$AAm?$AAp?$AAa?$AAr?$AAe?$AA?$CI?$AAt?$AAm?$AAp?$AA?0?$AA?5?$AAl?$AAi?$AAm?$AAi?$AAt?$AA?$CJ?$AA?5?$AA?$DM?$AA?5?$AA0?$AA?$AA@ 1005a0b4     leveldb:dbformat.obj
 0002:000090f0       ??_C@_1DK@GCDCDFNA@?$AAt?$AAh?$AAi?$AAs?$AA?9?$AA?$DO?$AAC?$AAo?$AAm?$AAp?$AAa?$AAr?$AAe?$AA?$CI?$AA?$CK?$AAk?$AAe?$AAy?$AA?0?$AA?5?$AAt?$AAm?$AAp?$AA?$CJ?$AA?5?$AA?$DM?$AA?5?$AA0?$AA?$AA@ 1005a0f0     leveldb:dbformat.obj
 0002:0000912c       ??_C@_1DK@ICDHALMF@?$AAl?$AAe?$AAv?$AAe?$AAl?$AAd?$AAb?$AA?9?$AA1?$AA?4?$AA1?$AA8?$AA?4?$AA0?$AA?2?$AAd?$AAb?$AA?2?$AAb?$AAu?$AAi?$AAl?$AAd?$AAe?$AAr?$AA?4?$AAc?$AAc?$AA?$AA@ 1005a12c     leveldb:builder.obj
 0002:00009168       ??_C@_1CI@OJIKACPE@?$AAm?$AAe?$AAt?$AAa?$AA?9?$AA?$DO?$AAf?$AAi?$AAl?$AAe?$AA_?$AAs?$AAi?$AAz?$AAe?$AA?5?$AA?$DO?$AA?5?$AA0?$AA?$AA@ 1005a168     leveldb:builder.obj
 0002:00009190       ??_C@_0L@DNJAJHIC@?1?$CF06llu?4?$CFs?$AA@ 1005a190     leveldb:filename.obj
 0002:0000919c       ??_C@_1DM@LJAHOFGE@?$AAl?$AAe?$AAv?$AAe?$AAl?$AAd?$AAb?$AA?9?$AA1?$AA?4?$AA1?$AA8?$AA?4?$AA0?$AA?2?$AAd?$AAb?$AA?2?$AAf?$AAi?$AAl?$AAe?$AAn?$AAa?$AAm?$AAe?$AA?4?$AAc?$AAc?$AA?$AA@ 1005a19c     leveldb:filename.obj
 0002:000091d8       ??_C@_1BG@HIOOOGME@?$AAn?$AAu?$AAm?$AAb?$AAe?$AAr?$AA?5?$AA?$DO?$AA?5?$AA0?$AA?$AA@ 1005a1d8     leveldb:filename.obj
 0002:000091f0       ??_C@_03MGHMBJCF@log?$AA@  1005a1f0     leveldb:filename.obj
 0002:000091f4       ??_C@_03LHFOACIB@ldb?$AA@  1005a1f4     leveldb:filename.obj
 0002:000091f8       ??_C@_03LKNFEFGK@sst?$AA@  1005a1f8     leveldb:filename.obj
 0002:000091fc       ??_C@_0BB@IIHLHEJO@?1MANIFEST?9?$CF06llu?$AA@ 1005a1fc     leveldb:filename.obj
 0002:00009210       ??_C@_08JJMNAAPP@?1CURRENT?$AA@ 1005a210     leveldb:filename.obj
 0002:0000921c       ??_C@_05IHOCLBML@?1LOCK?$AA@ 1005a21c     leveldb:filename.obj
 0002:00009224       ??_C@_05LFMHCBHD@dbtmp?$AA@ 1005a224     leveldb:filename.obj
 0002:0000922c       ??_C@_04GPHAEEIN@?1LOG?$AA@ 1005a22c     leveldb:filename.obj
 0002:00009234       ??_C@_08MHHKKEBC@?1LOG?4old?$AA@ 1005a234     leveldb:filename.obj
 0002:00009240       ??_C@_04GPIFAJG@LOCK?$AA@  1005a240     leveldb:filename.obj
 0002:00009248       ??_C@_03MLIHNEFJ@LOG?$AA@  1005a248     leveldb:filename.obj
 0002:0000924c       ??_C@_07BJBJCCKH@LOG?4old?$AA@ 1005a24c     leveldb:filename.obj
 0002:00009254       ??_C@_09IIGJKOCP@MANIFEST?9?$AA@ 1005a254     leveldb:filename.obj
 0002:00009260       ??_C@_04FPOLKAEB@?4log?$AA@ 1005a260     leveldb:filename.obj
 0002:00009268       ??_C@_04CDECPMAO@?4sst?$AA@ 1005a268     leveldb:filename.obj
 0002:00009270       ??_C@_04COMJLLOF@?4ldb?$AA@ 1005a270     leveldb:filename.obj
 0002:00009278       ??_C@_06GOLBNGP@?4dbtmp?$AA@ 1005a278     leveldb:filename.obj
 0002:00009280       ??_C@_1EG@OBCHJDD@?$AAc?$AAo?$AAn?$AAt?$AAe?$AAn?$AAt?$AAs?$AA?4?$AAs?$AAt?$AAa?$AAr?$AAt?$AAs?$AA_?$AAw?$AAi?$AAt?$AAh?$AA?$CI?$AAd?$AAb?$AAn?$AAa?$AAm?$AAe?$AA?5?$AA?$CL?$AA?5?$AA?$CC?$AA?1@ 1005a280     leveldb:filename.obj
 0002:000092c8       ??_C@_01EEMJAFIK@?6?$AA@   1005a2c8     leveldb:filename.obj
 0002:000092cc       ??_7Comparator@leveldb@@6B@ 1005a2cc     leveldb:db_impl.obj
 0002:000092cc       ??_7WritableFile@leveldb@@6B@ 1005a2cc     leveldb:env.obj
 0002:000092e0       ??_7Logger@leveldb@@6B@    1005a2e0     leveldb:env.obj
 0002:000092e0       ??_7RandomAccessFile@leveldb@@6B@ 1005a2e0     leveldb:env.obj
 0002:000092e0       ??_7Reporter@Reader@log@leveldb@@6B@ 1005a2e0     leveldb:db_impl.obj
 0002:000092e8       ??_7Env@leveldb@@6B@       1005a2e8     leveldb:env.obj
 0002:00009338       ??_C@_1NI@JOBFKBDI@?$AAC?$AA?3?$AA?2?$AAc?$AAo?$AAd?$AAe?$AA?5?$AAd?$AAe?$AAv?$AAe?$AAl?$AAo?$AAp?$AAm?$AAe?$AAn?$AAt?$AA?2?$AAe?$AAH?$AAe?$AAa?$AAl?$AAt?$AAh?$AAT?$AAe?$AAs?$AAt?$AA?2@ 1005a338     leveldb:merger.obj
 0002:00009410       ??_C@_1M@IDPMFHAK@?$AAi?$AAt?$AAe?$AAr?$AA_?$AA?$AA@ 1005a410     leveldb:merger.obj
 0002:0000941c       ??_C@_1DO@DCANNOPI@?$AAl?$AAe?$AAv?$AAe?$AAl?$AAd?$AAb?$AA?9?$AA1?$AA?4?$AA1?$AA8?$AA?4?$AA0?$AA?2?$AAt?$AAa?$AAb?$AAl?$AAe?$AA?2?$AAm?$AAe?$AAr?$AAg?$AAe?$AAr?$AA?4?$AAc?$AAc?$AA?$AA@ 1005a41c     leveldb:merger.obj
 0002:0000945c       ??_7MergingIterator@?A0x8740a436@leveldb@@6B@ 1005a45c     leveldb:merger.obj
 0002:00009484       ??_7LogReporter@?1??Recover@VersionSet@leveldb@@QAE?AVStatus@3@XZ@6B@ 1005a484     leveldb:version_set.obj
 0002:0000948c       ??_C@_1BM@KMFKCCNG@?$AA?$CB?$AAr?$AAe?$AAp?$AA_?$AA?4?$AAe?$AAm?$AAp?$AAt?$AAy?$AA?$CI?$AA?$CJ?$AA?$AA@ 1005a48c     leveldb:version_set.obj
 0002:000094a8       ??_C@_1EC@DCNDNIAD@?$AAl?$AAe?$AAv?$AAe?$AAl?$AAd?$AAb?$AA?9?$AA1?$AA?4?$AA1?$AA8?$AA?4?$AA0?$AA?2?$AAd?$AAb?$AA?2?$AAv?$AAe?$AAr?$AAs?$AAi?$AAo?$AAn?$AA_?$AAs?$AAe?$AAt?$AA?4?$AAc?$AAc@ 1005a4a8     leveldb:version_set.obj
 0002:000094ec       ??_C@_1BI@CNGMBHMD@?$AAf?$AA?9?$AA?$DO?$AAr?$AAe?$AAf?$AAs?$AA?5?$AA?$DO?$AA?5?$AA0?$AA?$AA@ 1005a4ec     leveldb:version_set.obj
 0002:00009504       ??_C@_0CJ@IEJCNHMD@FileReader?5invoked?5with?5unexpect@ 1005a504     leveldb:version_set.obj
 0002:00009530       ??_C@_0BD@CBCIGOLN@corrupted?5key?5for?5?$AA@ 1005a530     leveldb:version_set.obj
 0002:00009548       ??_C@_1EA@FLNPCEIK@?$AAt?$AAh?$AAi?$AAs?$AA?5?$AA?$CB?$AA?$DN?$AA?5?$AA?$CG?$AAv?$AAs?$AAe?$AAt?$AA_?$AA?9?$AA?$DO?$AAd?$AAu?$AAm?$AAm?$AAy?$AA_?$AAv?$AAe?$AAr?$AAs?$AAi?$AAo?$AAn?$AAs?$AA_?$AA?$AA@ 1005a548     leveldb:version_set.obj
 0002:00009588       ??_C@_1BG@MHFAOFKA@?$AAr?$AAe?$AAf?$AAs?$AA_?$AA?5?$AA?$DO?$AA?$DN?$AA?5?$AA1?$AA?$AA@ 1005a588     leveldb:version_set.obj
 0002:000095a0       ??_C@_1DG@MMMOKGNK@?$AAl?$AAe?$AAv?$AAe?$AAl?$AA?5?$AA?$DM?$AA?5?$AAc?$AAo?$AAn?$AAf?$AAi?$AAg?$AA?3?$AA?3?$AAk?$AAN?$AAu?$AAm?$AAL?$AAe?$AAv?$AAe?$AAl?$AAs?$AA?$AA@ 1005a5a0     leveldb:version_set.obj
 0002:000095d8       ??_C@_0L@FDBHLPMB@?9?9?9?5level?5?$AA@ 1005a5d8     leveldb:version_set.obj
 0002:000095e4       ??_C@_05OIOCPKAF@?5?9?9?9?6?$AA@ 1005a5e4     leveldb:version_set.obj
 0002:000095ec       ??_C@_01OHGJGJJP@?$FL?$AA@ 1005a5ec     leveldb:version_set.obj
 0002:000095f0       ??_C@_04BPKGLAKD@?5?4?4?5?$AA@ 1005a5f0     leveldb:version_set.obj
 0002:000095f8       ??_C@_02JODFHDIE@?$FN?6?$AA@ 1005a5f8     leveldb:version_set.obj
 0002:000095fc       ??_C@_0CM@FHNAJAEB@overlapping?5ranges?5in?5same?5level@ 1005a5fc     leveldb:version_set.obj
 0002:00009628       ??_C@_1JE@HCNLKCGH@?$AAv?$AAs?$AAe?$AAt?$AA_?$AA?9?$AA?$DO?$AAi?$AAc?$AAm?$AAp?$AA_?$AA?4?$AAC?$AAo?$AAm?$AAp?$AAa?$AAr?$AAe?$AA?$CI?$AA?$CI?$AA?$CK?$AAf?$AAi?$AAl?$AAe?$AAs?$AA?$CJ?$AA?$FL?$AAf?$AAi@ 1005a628     leveldb:version_set.obj
 0002:000096c0       ??_C@_1FE@GBNPOGE@?$AAd?$AAu?$AAm?$AAm?$AAy?$AA_?$AAv?$AAe?$AAr?$AAs?$AAi?$AAo?$AAn?$AAs?$AA_?$AA?4?$AAn?$AAe?$AAx?$AAt?$AA_?$AA?5?$AA?$DN?$AA?$DN?$AA?5?$AA?$CG?$AAd?$AAu?$AAm?$AAm?$AAy?$AA_@ 1005a6c0     leveldb:version_set.obj
 0002:00009714       ??_C@_1BM@NFJIGFM@?$AAv?$AA?9?$AA?$DO?$AAr?$AAe?$AAf?$AAs?$AA_?$AA?5?$AA?$DN?$AA?$DN?$AA?5?$AA0?$AA?$AA@ 1005a714     leveldb:version_set.obj
 0002:00009730       ??_C@_1BM@JJKEPPON@?$AAv?$AA?5?$AA?$CB?$AA?$DN?$AA?5?$AAc?$AAu?$AAr?$AAr?$AAe?$AAn?$AAt?$AA_?$AA?$AA@ 1005a730     leveldb:version_set.obj
 0002:00009750       ??_C@_1EC@IADDIGKK@?$AAe?$AAd?$AAi?$AAt?$AA?9?$AA?$DO?$AAl?$AAo?$AAg?$AA_?$AAn?$AAu?$AAm?$AAb?$AAe?$AAr?$AA_?$AA?5?$AA?$DO?$AA?$DN?$AA?5?$AAl?$AAo?$AAg?$AA_?$AAn?$AAu?$AAm?$AAb?$AAe?$AAr?$AA_@ 1005a750     leveldb:version_set.obj
 0002:00009798       ??_C@_1EM@MPOGPGGG@?$AAe?$AAd?$AAi?$AAt?$AA?9?$AA?$DO?$AAl?$AAo?$AAg?$AA_?$AAn?$AAu?$AAm?$AAb?$AAe?$AAr?$AA_?$AA?5?$AA?$DM?$AA?5?$AAn?$AAe?$AAx?$AAt?$AA_?$AAf?$AAi?$AAl?$AAe?$AA_?$AAn?$AAu@ 1005a798     leveldb:version_set.obj
 0002:000097e4       ??_C@_1DC@PINEBDGE@?$AAd?$AAe?$AAs?$AAc?$AAr?$AAi?$AAp?$AAt?$AAo?$AAr?$AA_?$AAf?$AAi?$AAl?$AAe?$AA_?$AA?5?$AA?$DN?$AA?$DN?$AA?5?$AAN?$AAU?$AAL?$AAL?$AA?$AA@ 1005a7e4     leveldb:version_set.obj
 0002:00009818       ??_C@_0BE@DKHKMIK@MANIFEST?5write?3?5?$CFs?6?$AA@ 1005a818     leveldb:version_set.obj
 0002:0000982c       ??_C@_0CH@CCOOCHFI@CURRENT?5file?5does?5not?5end?5with?5n@ 1005a82c     leveldb:version_set.obj
 0002:00009854       ??_C@_0CF@KGCIEFG@?5does?5not?5match?5existing?5compara@ 1005a854     leveldb:version_set.obj
 0002:0000987c       ??_C@_0CF@COGGNJLO@no?5meta?9nextfile?5entry?5in?5descri@ 1005a87c     leveldb:version_set.obj
 0002:000098a4       ??_C@_0CG@IGKKJHJ@no?5meta?9lognumber?5entry?5in?5descr@ 1005a8a4     leveldb:version_set.obj
 0002:000098cc       ??_C@_0CM@EPLOMKKC@no?5last?9sequence?9number?5entry?5in@ 1005a8cc     leveldb:version_set.obj
 0002:000098f8       ??_C@_0BO@IEHPFKHC@files?$FL?5?$CFd?5?$CFd?5?$CFd?5?$CFd?5?$CFd?5?$CFd?5?$CFd?5?$FN?$AA@ 1005a8f8     leveldb:version_set.obj
 0002:00009918       ??_C@_1CA@JINEDNOH@?$AA?$CB?$AAi?$AAn?$AAp?$AAu?$AAt?$AAs?$AA?4?$AAe?$AAm?$AAp?$AAt?$AAy?$AA?$CI?$AA?$CJ?$AA?$AA@ 1005a918     leveldb:version_set.obj
 0002:00009938       ??_C@_1BK@PFCADICL@?$AAn?$AAu?$AAm?$AA?5?$AA?$DM?$AA?$DN?$AA?5?$AAs?$AAp?$AAa?$AAc?$AAe?$AA?$AA@ 1005a938     leveldb:version_set.obj
 0002:00009954       ??_C@_1DK@BFAOJEHK@?$AAl?$AAe?$AAv?$AAe?$AAl?$AA?$CL?$AA1?$AA?5?$AA?$DM?$AA?5?$AAc?$AAo?$AAn?$AAf?$AAi?$AAg?$AA?3?$AA?3?$AAk?$AAN?$AAu?$AAm?$AAL?$AAe?$AAv?$AAe?$AAl?$AAs?$AA?$AA@ 1005a954     leveldb:version_set.obj
 0002:00009990       ??_C@_1CO@OHHPEOEH@?$AA?$CB?$AAc?$AA?9?$AA?$DO?$AAi?$AAn?$AAp?$AAu?$AAt?$AAs?$AA_?$AA?$FL?$AA0?$AA?$FN?$AA?4?$AAe?$AAm?$AAp?$AAt?$AAy?$AA?$CI?$AA?$CJ?$AA?$AA@ 1005a990     leveldb:version_set.obj
 0002:000099c0       ??_C@_0DN@MPCOPHAH@Expanding?$EA?$CFd?5?$CFd?$CL?$CFd?5?$CI?$CFld?$CL?$CFld?5byte@ 1005a9c0     leveldb:version_set.obj
 0002:00009a00       ??_7LevelFileNumIterator@Version@leveldb@@6B@ 1005aa00     leveldb:version_set.obj
 0002:00009a28       ??_C@_1EC@HHHBCADC@?$AAl?$AAe?$AAv?$AAe?$AAl?$AAd?$AAb?$AA?9?$AA1?$AA?4?$AA1?$AA8?$AA?4?$AA0?$AA?2?$AAd?$AAb?$AA?2?$AAt?$AAa?$AAb?$AAl?$AAe?$AA_?$AAc?$AAa?$AAc?$AAh?$AAe?$AA?4?$AAc?$AAc@ 1005aa28     leveldb:table_cache.obj
 0002:00009a6c       ??_C@_1BM@KCLNGDCP@?$AAt?$AAa?$AAb?$AAl?$AAe?$AA?5?$AA?$DN?$AA?$DN?$AA?5?$AAN?$AAU?$AAL?$AAL?$AA?$AA@ 1005aa6c     leveldb:table_cache.obj
 0002:00009a88       ??_C@_0BA@JKPGFGGN@comparator?5name?$AA@ 1005aa88     leveldb:version_edit.obj
 0002:00009a98       ??_C@_0L@MNAKOCL@log?5number?$AA@ 1005aa98     leveldb:version_edit.obj
 0002:00009aa4       ??_C@_0BE@OIMELLME@previous?5log?5number?$AA@ 1005aaa4     leveldb:version_edit.obj
 0002:00009ab8       ??_C@_0BB@CFPAIGNM@next?5file?5number?$AA@ 1005aab8     leveldb:version_edit.obj
 0002:00009acc       ??_C@_0BF@IEBCCJCO@last?5sequence?5number?$AA@ 1005aacc     leveldb:version_edit.obj
 0002:00009ae4       ??_C@_0BD@GHIHLOIC@compaction?5pointer?$AA@ 1005aae4     leveldb:version_edit.obj
 0002:00009af8       ??_C@_0N@KHDKBPGC@deleted?5file?$AA@ 1005aaf8     leveldb:version_edit.obj
 0002:00009b08       ??_C@_0P@IFJKGILN@new?9file?5entry?$AA@ 1005ab08     leveldb:version_edit.obj
 0002:00009b18       ??_C@_0M@NDAIKBNL@unknown?5tag?$AA@ 1005ab18     leveldb:version_edit.obj
 0002:00009b24       ??_C@_0M@MPAGAHDJ@invalid?5tag?$AA@ 1005ab24     leveldb:version_edit.obj
 0002:00009b30       ??_C@_0M@OFNLEEDF@VersionEdit?$AA@ 1005ab30     leveldb:version_edit.obj
 0002:00009b3c       ??_C@_01CLKCMJKC@?5?$AA@   1005ab3c     leveldb:version_edit.obj
 0002:00009b40       ??_C@_0BO@FGDDGPEJ@partial?5record?5without?5end?$CI1?$CJ?$AA@ 1005ab40     leveldb:log_reader.obj
 0002:00009b60       ??_C@_0BO@FEHFNBBA@partial?5record?5without?5end?$CI2?$CJ?$AA@ 1005ab60     leveldb:log_reader.obj
 0002:00009b80       ??_C@_0CG@BJOOPHDE@missing?5start?5of?5fragmented?5reco@ 1005ab80     leveldb:log_reader.obj
 0002:00009ba8       ??_C@_0CG@BLKIEJGN@missing?5start?5of?5fragmented?5reco@ 1005aba8     leveldb:log_reader.obj
 0002:00009bd0       ??_C@_0BK@HJELPHBF@error?5in?5middle?5of?5record?$AA@ 1005abd0     leveldb:log_reader.obj
 0002:00009bec       ??_C@_0BH@MDNCILIC@unknown?5record?5type?5?$CFu?$AA@ 1005abec     leveldb:log_reader.obj
 0002:00009c04       ??_C@_0BC@PHFEKIH@bad?5record?5length?$AA@ 1005ac04     leveldb:log_reader.obj
 0002:00009c18       ??_C@_0BC@BAPADOCP@checksum?5mismatch?$AA@ 1005ac18     leveldb:log_reader.obj
 0002:00009c30       ??_C@_1EA@IEMGNPDM@?$AAl?$AAe?$AAv?$AAe?$AAl?$AAd?$AAb?$AA?9?$AA1?$AA?4?$AA1?$AA8?$AA?4?$AA0?$AA?2?$AAd?$AAb?$AA?2?$AAl?$AAo?$AAg?$AA_?$AAw?$AAr?$AAi?$AAt?$AAe?$AAr?$AA?4?$AAc?$AAc?$AA?$AA@ 1005ac30     leveldb:log_writer.obj
 0002:00009c70       ??_C@_1BM@CNNDPEKL@?$AAl?$AAe?$AAf?$AAt?$AAo?$AAv?$AAe?$AAr?$AA?5?$AA?$DO?$AA?$DN?$AA?5?$AA0?$AA?$AA@ 1005ac70     leveldb:log_writer.obj
 0002:00009c8c       ??_C@_06GCJDCAIB@?$AA?$AA?$AA?$AA?$AA?$AA?$AA@ 1005ac8c     leveldb:log_writer.obj
 0002:00009c98       ??_C@_1FM@IPGLDLLO@?$AAk?$AAB?$AAl?$AAo?$AAc?$AAk?$AAS?$AAi?$AAz?$AAe?$AA?5?$AA?9?$AA?5?$AAb?$AAl?$AAo?$AAc?$AAk?$AA_?$AAo?$AAf?$AAf?$AAs?$AAe?$AAt?$AA_?$AA?5?$AA?9?$AA?5?$AAk?$AAH?$AAe@ 1005ac98     leveldb:log_writer.obj
 0002:00009cf4       ??_C@_1BI@FDOLHBGL@?$AAn?$AA?5?$AA?$DM?$AA?$DN?$AA?5?$AA0?$AAx?$AAf?$AAf?$AAf?$AAf?$AA?$AA@ 1005acf4     leveldb:log_writer.obj
 0002:00009d10       ??_C@_1FM@DLHCNMNA@?$AAb?$AAl?$AAo?$AAc?$AAk?$AA_?$AAo?$AAf?$AAf?$AAs?$AAe?$AAt?$AA_?$AA?5?$AA?$CL?$AA?5?$AAk?$AAH?$AAe?$AAa?$AAd?$AAe?$AAr?$AAS?$AAi?$AAz?$AAe?$AA?5?$AA?$CL?$AA?5?$AAn?$AA?5@ 1005ad10     leveldb:log_writer.obj
 0002:00009d70       ??_C@_1EC@PPIMGNHF@?$AAl?$AAe?$AAv?$AAe?$AAl?$AAd?$AAb?$AA?9?$AA1?$AA?4?$AA1?$AA8?$AA?4?$AA0?$AA?2?$AAt?$AAa?$AAb?$AAl?$AAe?$AA?2?$AAi?$AAt?$AAe?$AAr?$AAa?$AAt?$AAo?$AAr?$AA?4?$AAc?$AAc@ 1005ad70     leveldb:iterator.obj
 0002:00009db4       ??_C@_1M@HLGKFCJM@?$AAf?$AAa?$AAl?$AAs?$AAe?$AA?$AA@ 1005adb4     leveldb:iterator.obj
 0002:00009dc0       ??_7Iterator@leveldb@@6B@  1005adc0     leveldb:iterator.obj
 0002:00009de8       ??_7EmptyIterator@?A0x04dd5dd9@leveldb@@6B@ 1005ade8     leveldb:iterator.obj
 0002:00009e10       ??_C@_1DK@JADGOFCE@?$AAl?$AAe?$AAv?$AAe?$AAl?$AAd?$AAb?$AA?9?$AA1?$AA?4?$AA1?$AA8?$AA?4?$AA0?$AA?2?$AAd?$AAb?$AA?2?$AAd?$AAb?$AA_?$AAi?$AAt?$AAe?$AAr?$AA?4?$AAc?$AAc?$AA?$AA@ 1005ae10     leveldb:db_iter.obj
 0002:00009e4c       ??_C@_1O@ILGKFDHK@?$AAv?$AAa?$AAl?$AAi?$AAd?$AA_?$AA?$AA@ 1005ae4c     leveldb:db_iter.obj
 0002:00009e5c       ??_C@_0CB@GFNBEPN@corrupted?5internal?5key?5in?5DBIter@ 1005ae5c     leveldb:db_iter.obj
 0002:00009e80       ??_C@_1BO@CNPCPKOP@?$AAi?$AAt?$AAe?$AAr?$AA_?$AA?9?$AA?$DO?$AAV?$AAa?$AAl?$AAi?$AAd?$AA?$CI?$AA?$CJ?$AA?$AA@ 1005ae80     leveldb:db_iter.obj
 0002:00009ea0       ??_C@_1CO@EMDFNHEA@?$AAd?$AAi?$AAr?$AAe?$AAc?$AAt?$AAi?$AAo?$AAn?$AA_?$AA?5?$AA?$DN?$AA?$DN?$AA?5?$AAk?$AAF?$AAo?$AAr?$AAw?$AAa?$AAr?$AAd?$AA?$AA@ 1005aea0     leveldb:db_iter.obj
 0002:00009ed0       ??_C@_1CO@NJNJHGA@?$AAd?$AAi?$AAr?$AAe?$AAc?$AAt?$AAi?$AAo?$AAn?$AA_?$AA?5?$AA?$DN?$AA?$DN?$AA?5?$AAk?$AAR?$AAe?$AAv?$AAe?$AAr?$AAs?$AAe?$AA?$AA@ 1005aed0     leveldb:db_iter.obj
 0002:00009f00       ??_7DBIter@?A0xc18d0d05@leveldb@@6B@ 1005af00     leveldb:db_iter.obj
 0002:00009f28       ??_C@_1EM@IIMOLIEO@?$AAl?$AAe?$AAv?$AAe?$AAl?$AAd?$AAb?$AA?9?$AA1?$AA?4?$AA1?$AA8?$AA?4?$AA0?$AA?2?$AAt?$AAa?$AAb?$AAl?$AAe?$AA?2?$AAt?$AAa?$AAb?$AAl?$AAe?$AA_?$AAb?$AAu?$AAi?$AAl?$AAd@ 1005af28     leveldb:table_builder.obj
 0002:00009f74       ??_C@_1BK@JKHHIBHD@?$AAr?$AAe?$AAp?$AA_?$AA?9?$AA?$DO?$AAc?$AAl?$AAo?$AAs?$AAe?$AAd?$AA?$AA@ 1005af74     leveldb:table_builder.obj
 0002:00009f90       ??_C@_1BG@IBLAONHD@?$AA?$CB?$AAr?$AA?9?$AA?$DO?$AAc?$AAl?$AAo?$AAs?$AAe?$AAd?$AA?$AA@ 1005af90     leveldb:table_builder.obj
 0002:00009fa8       ??_C@_1HI@DFHNJDEL@?$AAr?$AA?9?$AA?$DO?$AAo?$AAp?$AAt?$AAi?$AAo?$AAn?$AAs?$AA?4?$AAc?$AAo?$AAm?$AAp?$AAa?$AAr?$AAa?$AAt?$AAo?$AAr?$AA?9?$AA?$DO?$AAC?$AAo?$AAm?$AAp?$AAa?$AAr?$AAe?$AA?$CI?$AAk@ 1005afa8     leveldb:table_builder.obj
 0002:0000a020       ??_C@_1CM@CLNKMFCM@?$AAr?$AA?9?$AA?$DO?$AAd?$AAa?$AAt?$AAa?$AA_?$AAb?$AAl?$AAo?$AAc?$AAk?$AA?4?$AAe?$AAm?$AAp?$AAt?$AAy?$AA?$CI?$AA?$CJ?$AA?$AA@ 1005b020     leveldb:table_builder.obj
 0002:0000a04c       ??_C@_1DA@OEOPKHIF@?$AA?$CB?$AAr?$AA?9?$AA?$DO?$AAp?$AAe?$AAn?$AAd?$AAi?$AAn?$AAg?$AA_?$AAi?$AAn?$AAd?$AAe?$AAx?$AA_?$AAe?$AAn?$AAt?$AAr?$AAy?$AA?$AA@ 1005b04c     leveldb:table_builder.obj
 0002:0000a07c       ??_C@_19IHNNBDHG@?$AAo?$AAk?$AA?$CI?$AA?$CJ?$AA?$AA@ 1005b07c     leveldb:table_builder.obj
 0002:0000a088       ??_C@_07LBJJLLJB@filter?4?$AA@ 1005b088     leveldb:table_builder.obj
 0002:0000a090       ??_C@_04FCIJFPNK@?$CFllu?$AA@ 1005b090     leveldb:logging.obj
 0002:0000a098       ??_C@_06FIJELGDL@?2x?$CF02x?$AA@ 1005b098     leveldb:logging.obj
 0002:0000a0a0       ??_C@_0BL@EMJHPPE@leveldb?4BytewiseComparator?$AA@ 1005b0a0     leveldb:comparator.obj
 0002:0000a0c0       ??_C@_1EE@OGOKBAAE@?$AAl?$AAe?$AAv?$AAe?$AAl?$AAd?$AAb?$AA?9?$AA1?$AA?4?$AA1?$AA8?$AA?4?$AA0?$AA?2?$AAu?$AAt?$AAi?$AAl?$AA?2?$AAc?$AAo?$AAm?$AAp?$AAa?$AAr?$AAa?$AAt?$AAo?$AAr?$AA?4?$AAc@ 1005b0c0     leveldb:comparator.obj
 0002:0000a104       ??_C@_1DG@FGMFBCBA@?$AAC?$AAo?$AAm?$AAp?$AAa?$AAr?$AAe?$AA?$CI?$AA?$CK?$AAs?$AAt?$AAa?$AAr?$AAt?$AA?0?$AA?5?$AAl?$AAi?$AAm?$AAi?$AAt?$AA?$CJ?$AA?5?$AA?$DM?$AA?5?$AA0?$AA?$AA@ 1005b104     leveldb:comparator.obj
 0002:0000a13c       ??_7BytewiseComparatorImpl@?A0x930b007a@leveldb@@6B@ 1005b13c     leveldb:comparator.obj
 0002:0000a150       ??_C@_0BF@OJNGPDJN@Append?3?5cannot?5write?$AA@ 1005b150     leveldb:env_win.obj
 0002:0000a168       ??_C@_13FPGAJAPJ@?$AA?2?$AA?$AA@ 1005b168     leveldb:env_win.obj
 0002:0000a16c       ??_C@_0BL@MCEMBBLK@Destroying?5Env?3?3Default?$CI?$CJ?6?$AA@ 1005b16c     leveldb:env_win.obj
 0002:0000a188       ??_C@_0BC@JFFNKLNA@Invalid?5file?5name?$AA@ 1005b188     leveldb:env_win.obj
 0002:0000a19c       ??_C@_13BBDEGPLJ@?$AA?$CK?$AA?$AA@ 1005b19c     leveldb:env_win.obj
 0002:0000a1a0       ??_C@_0M@FNDMMKMH@DeleteFile?5?$AA@ 1005b1a0     leveldb:env_win.obj
 0002:0000a1ac       ??_C@_0N@DCPDIALN@GetFileSize?5?$AA@ 1005b1ac     leveldb:env_win.obj
 0002:0000a1bc       ??_C@_0M@IEPECJOK@RenameFile?5?$AA@ 1005b1bc     leveldb:env_win.obj
 0002:0000a1c8       ??_C@_09CLLHBIAK@LockFile?5?$AA@ 1005b1c8     leveldb:env_win.obj
 0002:0000a1d4       ??_C@_0BL@OKNINABO@Could?5not?5close?5lock?5file?4?$AA@ 1005b1d4     leveldb:env_win.obj
 0002:0000a1f0       ??_C@_0BJ@LBHFIONJ@Can?8t?5get?5test?5directory?$AA@ 1005b1f0     leveldb:env_win.obj
 0002:0000a20c       ??_C@_02BKFDOEMK@wt?$AA@   1005b20c     leveldb:env_win.obj
 0002:0000a210       ??_7WinFileLock@?A0xea59645f@leveldb@@6B@ 1005b210     leveldb:env_win.obj
 0002:0000a214       ??_7WinEnv@?A0xea59645f@leveldb@@6B@ 1005b214     leveldb:env_win.obj
 0002:0000a260       ??_7WinSequentialFile@leveldb@@6B@ 1005b260     leveldb:env_win.obj
 0002:0000a26c       ??_7WinWritableFile@leveldb@@6B@ 1005b26c     leveldb:env_win.obj
 0002:0000a280       ??_7WinLogger@leveldb@@6B@ 1005b280     leveldb:env_win.obj
 0002:0000a288       ??_7WinRandomAccessFile@leveldb@@6B@ 1005b288     leveldb:env_win.obj
 0002:0000a290       ??_C@_1DK@LMMNADCL@?$AAl?$AAe?$AAv?$AAe?$AAl?$AAd?$AAb?$AA?9?$AA1?$AA?4?$AA1?$AA8?$AA?4?$AA0?$AA?2?$AAu?$AAt?$AAi?$AAl?$AA?2?$AAa?$AAr?$AAe?$AAn?$AAa?$AA?4?$AAc?$AAc?$AA?$AA@ 1005b290     leveldb:arena.obj
 0002:0000a2d0       ??_C@_1GO@HAPHDGIH@?$AA?$CI?$AAr?$AAe?$AAi?$AAn?$AAt?$AAe?$AAr?$AAp?$AAr?$AAe?$AAt?$AA_?$AAc?$AAa?$AAs?$AAt?$AA?$DM?$AAu?$AAi?$AAn?$AAt?$AAp?$AAt?$AAr?$AA_?$AAt?$AA?$DO?$AA?$CI?$AAr?$AAe?$AAs@ 1005b2d0     leveldb:arena.obj
 0002:0000a340       ??_C@_0CD@MFPEIJCL@file?5is?5too?5short?5to?5be?5an?5sstab@ 1005b340     leveldb:table.obj
 0002:0000a368       ??_C@_1FG@BCENEMMP@?$AAl?$AAe?$AAv?$AAe?$AAl?$AAd?$AAb?$AA?9?$AA1?$AA?4?$AA1?$AA8?$AA?4?$AA0?$AA?2?$AAt?$AAa?$AAb?$AAl?$AAe?$AA?2?$AAt?$AAw?$AAo?$AA_?$AAl?$AAe?$AAv?$AAe?$AAl?$AA_?$AAi@ 1005b368     leveldb:two_level_iterator.obj
 0002:0000a3c0       ??_7TwoLevelIterator@?A0xe28d6219@leveldb@@6B@ 1005b3c0     leveldb:two_level_iterator.obj
 0002:0000a3e8       ??_C@_1DO@MONFBBKM@?$AAl?$AAe?$AAv?$AAe?$AAl?$AAd?$AAb?$AA?9?$AA1?$AA?4?$AA1?$AA8?$AA?4?$AA0?$AA?2?$AAt?$AAa?$AAb?$AAl?$AAe?$AA?2?$AAf?$AAo?$AAr?$AAm?$AAa?$AAt?$AA?4?$AAc?$AAc?$AA?$AA@ 1005b3e8     leveldb:format.obj
 0002:0000a428       ??_C@_1EK@NLBLPNKC@?$AAo?$AAf?$AAf?$AAs?$AAe?$AAt?$AA_?$AA?5?$AA?$CB?$AA?$DN?$AA?5?$AA?$HO?$AAs?$AAt?$AAa?$AAt?$AAi?$AAc?$AA_?$AAc?$AAa?$AAs?$AAt?$AA?$DM?$AAu?$AAi?$AAn?$AAt?$AA6?$AA4?$AA_?$AAt@ 1005b428     leveldb:format.obj
 0002:0000a478       ??_C@_1EG@ILPAOCBE@?$AAs?$AAi?$AAz?$AAe?$AA_?$AA?5?$AA?$CB?$AA?$DN?$AA?5?$AA?$HO?$AAs?$AAt?$AAa?$AAt?$AAi?$AAc?$AA_?$AAc?$AAa?$AAs?$AAt?$AA?$DM?$AAu?$AAi?$AAn?$AAt?$AA6?$AA4?$AA_?$AAt?$AA?$DO?$AA?$CI@ 1005b478     leveldb:format.obj
 0002:0000a4c0       ??_C@_0BB@COHNLJFI@bad?5block?5handle?$AA@ 1005b4c0     leveldb:format.obj
 0002:0000a4d8       ??_C@_1FM@OOADEKPA@?$AAd?$AAs?$AAt?$AA?9?$AA?$DO?$AAs?$AAi?$AAz?$AAe?$AA?$CI?$AA?$CJ?$AA?5?$AA?$DN?$AA?$DN?$AA?5?$AAo?$AAr?$AAi?$AAg?$AAi?$AAn?$AAa?$AAl?$AA_?$AAs?$AAi?$AAz?$AAe?$AA?5?$AA?$CL?$AA?5?$AAk@ 1005b4d8     leveldb:format.obj
 0002:0000a534       ??_C@_0CC@LKCDIABI@not?5an?5sstable?5?$CIbad?5magic?5number@ 1005b534     leveldb:format.obj
 0002:0000a558       ??_C@_0BF@ILLMDOOF@truncated?5block?5read?$AA@ 1005b558     leveldb:format.obj
 0002:0000a570       ??_C@_0BI@GPFPFKGA@block?5checksum?5mismatch?$AA@ 1005b570     leveldb:format.obj
 0002:0000a588       ??_C@_0CE@CAOEIAMG@corrupted?5compressed?5block?5conte@ 1005b588     leveldb:format.obj
 0002:0000a5ac       ??_C@_0P@MDODGMKN@bad?5block?5type?$AA@ 1005b5ac     leveldb:format.obj
 0002:0000a5c0       ??_C@_1EM@IDPFPGBC@?$AAl?$AAe?$AAv?$AAe?$AAl?$AAd?$AAb?$AA?9?$AA1?$AA?4?$AA1?$AA8?$AA?4?$AA0?$AA?2?$AAt?$AAa?$AAb?$AAl?$AAe?$AA?2?$AAb?$AAl?$AAo?$AAc?$AAk?$AA_?$AAb?$AAu?$AAi?$AAl?$AAd@ 1005b5c0     leveldb:block_builder.obj
 0002:0000a610       ??_C@_1EK@CDMOINIK@?$AAo?$AAp?$AAt?$AAi?$AAo?$AAn?$AAs?$AA?9?$AA?$DO?$AAb?$AAl?$AAo?$AAc?$AAk?$AA_?$AAr?$AAe?$AAs?$AAt?$AAa?$AAr?$AAt?$AA_?$AAi?$AAn?$AAt?$AAe?$AAr?$AAv?$AAa?$AAl?$AA?5@ 1005b610     leveldb:block_builder.obj
 0002:0000a65c       ??_C@_1BG@EOCCOFML@?$AA?$CB?$AAf?$AAi?$AAn?$AAi?$AAs?$AAh?$AAe?$AAd?$AA_?$AA?$AA@ 1005b65c     leveldb:block_builder.obj
 0002:0000a678       ??_C@_1FK@EBPNECBO@?$AAc?$AAo?$AAu?$AAn?$AAt?$AAe?$AAr?$AA_?$AA?5?$AA?$DM?$AA?$DN?$AA?5?$AAo?$AAp?$AAt?$AAi?$AAo?$AAn?$AAs?$AA_?$AA?9?$AA?$DO?$AAb?$AAl?$AAo?$AAc?$AAk?$AA_?$AAr?$AAe?$AAs?$AAt@ 1005b678     leveldb:block_builder.obj
 0002:0000a6d8       ??_C@_1JE@IDLNCLOC@?$AAb?$AAu?$AAf?$AAf?$AAe?$AAr?$AA_?$AA?4?$AAe?$AAm?$AAp?$AAt?$AAy?$AA?$CI?$AA?$CJ?$AA?5?$AA?$HM?$AA?$HM?$AA?5?$AAo?$AAp?$AAt?$AAi?$AAo?$AAn?$AAs?$AA_?$AA?9?$AA?$DO?$AAc?$AAo?$AAm@ 1005b6d8     leveldb:block_builder.obj
 0002:0000a76c       ??_C@_1DA@HKBPACGM@?$AAS?$AAl?$AAi?$AAc?$AAe?$AA?$CI?$AAl?$AAa?$AAs?$AAt?$AA_?$AAk?$AAe?$AAy?$AA_?$AA?$CJ?$AA?5?$AA?$DN?$AA?$DN?$AA?5?$AAk?$AAe?$AAy?$AA?$AA@ 1005b76c     leveldb:block_builder.obj
 0002:0000a7a0       ??_C@_1EK@GOLGIJPH@?$AAl?$AAe?$AAv?$AAe?$AAl?$AAd?$AAb?$AA?9?$AA1?$AA?4?$AA1?$AA8?$AA?4?$AA0?$AA?2?$AAt?$AAa?$AAb?$AAl?$AAe?$AA?2?$AAf?$AAi?$AAl?$AAt?$AAe?$AAr?$AA_?$AAb?$AAl?$AAo?$AAc@ 1005b7a0     leveldb:filter_block.obj
 0002:0000a7f0       ??_C@_1EO@PGEBFJEE@?$AAf?$AAi?$AAl?$AAt?$AAe?$AAr?$AA_?$AAi?$AAn?$AAd?$AAe?$AAx?$AA?5?$AA?$DO?$AA?$DN?$AA?5?$AAf?$AAi?$AAl?$AAt?$AAe?$AAr?$AA_?$AAo?$AAf?$AAf?$AAs?$AAe?$AAt?$AAs?$AA_?$AA?4@ 1005b7f0     leveldb:filter_block.obj
 0002:0000a840       ??_C@_0CJ@PLBDDMCE@?$CF04d?1?$CF02d?1?$CF02d?9?$CF02d?3?$CF02d?3?$CF02d?4?$CF0@ 1005b840     leveldb:win_logger.obj
 0002:0000a86c       ??_C@_1DC@PJGPOLEE@?$AAp?$AAo?$AAr?$AAt?$AA?9?$AAl?$AAi?$AAb?$AAu?$AAv?$AA?2?$AAw?$AAi?$AAn?$AA_?$AAl?$AAo?$AAg?$AAg?$AAe?$AAr?$AA?4?$AAc?$AAc?$AA?$AA@ 1005b86c     leveldb:win_logger.obj
 0002:0000a8a0       ??_C@_1BG@HMMENFBB@?$AAp?$AA?5?$AA?$DM?$AA?$DN?$AA?5?$AAl?$AAi?$AAm?$AAi?$AAt?$AA?$AA@ 1005b8a0     leveldb:win_logger.obj
 0002:0000a8b8       ??_C@_1DM@MKEGOCDA@?$AAl?$AAe?$AAv?$AAe?$AAl?$AAd?$AAb?$AA?9?$AA1?$AA?4?$AA1?$AA8?$AA?4?$AA0?$AA?2?$AAt?$AAa?$AAb?$AAl?$AAe?$AA?2?$AAb?$AAl?$AAo?$AAc?$AAk?$AA?4?$AAc?$AAc?$AA?$AA@ 1005b8b8     leveldb:block.obj
 0002:0000a8f4       ??_C@_1CM@KILDAMOA@?$AAi?$AAn?$AAd?$AAe?$AAx?$AA?5?$AA?$DM?$AA?5?$AAn?$AAu?$AAm?$AA_?$AAr?$AAe?$AAs?$AAt?$AAa?$AAr?$AAt?$AAs?$AA_?$AA?$AA@ 1005b8f4     leveldb:block.obj
 0002:0000a920       ??_C@_1CE@HBCAJAAP@?$AAn?$AAu?$AAm?$AA_?$AAr?$AAe?$AAs?$AAt?$AAa?$AAr?$AAt?$AAs?$AA_?$AA?5?$AA?$DO?$AA?5?$AA0?$AA?$AA@ 1005b920     leveldb:block.obj
 0002:0000a944       ??_C@_0BD@CHEKDAPJ@bad?5entry?5in?5block?$AA@ 1005b944     leveldb:block.obj
 0002:0000a958       ??_C@_0BD@NJCNHDLE@bad?5block?5contents?$AA@ 1005b958     leveldb:block.obj
 0002:0000a96c       ??_7Iter@Block@leveldb@@6B@ 1005b96c     leveldb:block.obj
 0002:0000a998       ??_C@_1NA@BBAAIOFB@?$AAc?$AA?3?$AA?2?$AAc?$AAo?$AAd?$AAe?$AA?5?$AAd?$AAe?$AAv?$AAe?$AAl?$AAo?$AAp?$AAm?$AAe?$AAn?$AAt?$AA?2?$AAe?$AAh?$AAe?$AAa?$AAl?$AAt?$AAh?$AAt?$AAe?$AAs?$AAt?$AA?2@ 1005b998     snappy:snappy.obj
 0002:0000aa68       ??_C@_1BG@GNOBELO@?$AAv?$AAa?$AAl?$AAu?$AAe?$AA?5?$AA?$DN?$AA?$DN?$AA?5?$AA1?$AA?$AA@ 1005ba68     snappy:snappy.obj
 0002:0000aa80       ??_C@_1ME@OLBBEBHK@?$AAc?$AA?3?$AA?2?$AAc?$AAo?$AAd?$AAe?$AA?5?$AAd?$AAe?$AAv?$AAe?$AAl?$AAo?$AAp?$AAm?$AAe?$AAn?$AAt?$AA?2?$AAe?$AAh?$AAe?$AAa?$AAl?$AAt?$AAh?$AAt?$AAe?$AAs?$AAt?$AA?2@ 1005ba80     snappy:snappy.obj
 0002:0000ab44       ??_C@_1BO@HOKEIBLG@?$AAs?$AA2?$AA_?$AAl?$AAi?$AAm?$AAi?$AAt?$AA?5?$AA?$DO?$AA?$DN?$AA?5?$AAs?$AA2?$AA?$AA@ 1005bb44     snappy:snappy.obj
 0002:0000ab64       ??_C@_1CO@DAHGPIIM@?$AAs?$AAn?$AAa?$AAp?$AAp?$AAy?$AA?9?$AA1?$AA?4?$AA1?$AA?4?$AA1?$AA?2?$AAs?$AAn?$AAa?$AAp?$AAp?$AAy?$AA?4?$AAc?$AAc?$AA?$AA@ 1005bb64     snappy:snappy.obj
 0002:0000ab94       ??_C@_1BA@GMKHALLP@?$AAl?$AAe?$AAn?$AA?5?$AA?$DO?$AA?5?$AA0?$AA?$AA@ 1005bb94     snappy:snappy.obj
 0002:0000aba4       ??_C@_1BG@IHIONFJH@?$AAc?$AAo?$AAu?$AAn?$AAt?$AA?5?$AA?$DO?$AA?$DN?$AA?5?$AA1?$AA?$AA@ 1005bba4     snappy:snappy.obj
 0002:0000abbc       ??_C@_1BG@LEKFPFJI@?$AAc?$AAo?$AAu?$AAn?$AAt?$AA?5?$AA?$DM?$AA?$DN?$AA?5?$AA4?$AA?$AA@ 1005bbbc     snappy:snappy.obj
 0002:0000abd4       ??_C@_1BE@DLMJINK@?$AAl?$AAe?$AAn?$AA?5?$AA?$DM?$AA?$DN?$AA?5?$AA6?$AA4?$AA?$AA@ 1005bbd4     snappy:snappy.obj
 0002:0000abe8       ??_C@_1BC@GPKOEOMP@?$AAl?$AAe?$AAn?$AA?5?$AA?$DO?$AA?$DN?$AA?5?$AA4?$AA?$AA@ 1005bbe8     snappy:snappy.obj
 0002:0000abfc       ??_C@_1BO@PPEGDPPA@?$AAo?$AAf?$AAf?$AAs?$AAe?$AAt?$AA?5?$AA?$DM?$AA?5?$AA6?$AA5?$AA5?$AA3?$AA6?$AA?$AA@ 1005bbfc     snappy:snappy.obj
 0002:0000ac1c       ??_C@_1CA@JFBFPAMB@?$AAl?$AAe?$AAn?$AA_?$AAm?$AAi?$AAn?$AAu?$AAs?$AA_?$AA4?$AA?5?$AA?$DM?$AA?5?$AA8?$AA?$AA@ 1005bc1c     snappy:snappy.obj
 0002:0000ac3c       ??_C@_1DC@OPGIIANN@?$AAi?$AAn?$AAp?$AAu?$AAt?$AA_?$AAs?$AAi?$AAz?$AAe?$AA?5?$AA?$DM?$AA?$DN?$AA?5?$AAk?$AAB?$AAl?$AAo?$AAc?$AAk?$AAS?$AAi?$AAz?$AAe?$AA?$AA@ 1005bc3c     snappy:snappy.obj
 0002:0000ac70       ??_C@_1EK@FEBNOKCP@?$AA?$CI?$AAt?$AAa?$AAb?$AAl?$AAe?$AA_?$AAs?$AAi?$AAz?$AAe?$AA?5?$AA?$CG?$AA?5?$AA?$CI?$AAt?$AAa?$AAb?$AAl?$AAe?$AA_?$AAs?$AAi?$AAz?$AAe?$AA?5?$AA?9?$AA?5?$AA1?$AA?$CJ?$AA?$CJ?$AA?5@ 1005bc70     snappy:snappy.obj
 0002:0000acc0       ??_C@_1HA@CGBFNEOD@?$AAs?$AAt?$AAa?$AAt?$AAi?$AAc?$AA_?$AAc?$AAa?$AAs?$AAt?$AA?$DM?$AAi?$AAn?$AAt?$AA?$DO?$AA?$CI?$AAk?$AAu?$AAi?$AAn?$AAt?$AA3?$AA2?$AAm?$AAa?$AAx?$AA?5?$AA?$DO?$AA?$DO?$AA?5?$AAs@ 1005bcc0     snappy:snappy.obj
 0002:0000ad30       ??_C@_1BO@POBPHOCK@?$AAn?$AAe?$AAx?$AAt?$AA_?$AAe?$AAm?$AAi?$AAt?$AA?5?$AA?$DM?$AA?5?$AAi?$AAp?$AA?$AA@ 1005bd30     snappy:snappy.obj
 0002:0000ad50       ??_C@_1DA@JPFPEEHF@?$AAh?$AAa?$AAs?$AAh?$AA?5?$AA?$DN?$AA?$DN?$AA?5?$AAH?$AAa?$AAs?$AAh?$AA?$CI?$AAi?$AAp?$AA?0?$AA?5?$AAs?$AAh?$AAi?$AAf?$AAt?$AA?$CJ?$AA?$AA@ 1005bd50     snappy:snappy.obj
 0002:0000ad80       ??_C@_1CK@LPFHJPBE@?$AAc?$AAa?$AAn?$AAd?$AAi?$AAd?$AAa?$AAt?$AAe?$AA?5?$AA?$DO?$AA?$DN?$AA?5?$AAb?$AAa?$AAs?$AAe?$AA_?$AAi?$AAp?$AA?$AA@ 1005bd80     snappy:snappy.obj
 0002:0000adac       ??_C@_1BO@NJGNGDBA@?$AAc?$AAa?$AAn?$AAd?$AAi?$AAd?$AAa?$AAt?$AAe?$AA?5?$AA?$DM?$AA?5?$AAi?$AAp?$AA?$AA@ 1005bdac     snappy:snappy.obj
 0002:0000adcc       ??_C@_1DC@OIJJOGJB@?$AAn?$AAe?$AAx?$AAt?$AA_?$AAe?$AAm?$AAi?$AAt?$AA?5?$AA?$CL?$AA?5?$AA1?$AA6?$AA?5?$AA?$DM?$AA?$DN?$AA?5?$AAi?$AAp?$AA_?$AAe?$AAn?$AAd?$AA?$AA@ 1005bdcc     snappy:snappy.obj
 0002:0000ae00       ??_C@_1EM@HJJPEPBA@?$AA0?$AA?5?$AA?$DN?$AA?$DN?$AA?5?$AAm?$AAe?$AAm?$AAc?$AAm?$AAp?$AA?$CI?$AAb?$AAa?$AAs?$AAe?$AA?0?$AA?5?$AAc?$AAa?$AAn?$AAd?$AAi?$AAd?$AAa?$AAt?$AAe?$AA?0?$AA?5?$AAm?$AAa?$AAt@ 1005be00     snappy:snappy.obj
 0002:0000ae4c       ??_C@_1BI@HPFPGA@?$AAi?$AAp?$AA_?$AA?5?$AA?$DN?$AA?$DN?$AA?5?$AAN?$AAU?$AAL?$AAL?$AA?$AA@ 1005be4c     snappy:snappy.obj
 0002:0000ae64       ??_C@_1BO@NMEHIMPL@?$AAi?$AAp?$AA?5?$AA?$DM?$AA?5?$AAi?$AAp?$AA_?$AAl?$AAi?$AAm?$AAi?$AAt?$AA_?$AA?$AA@ 1005be64     snappy:snappy.obj
 0002:0000ae84       ??_C@_1DG@CJMIIFFC@?$AAn?$AAe?$AAe?$AAd?$AAe?$AAd?$AA?5?$AA?$DM?$AA?$DN?$AA?5?$AAs?$AAi?$AAz?$AAe?$AAo?$AAf?$AA?$CI?$AAs?$AAc?$AAr?$AAa?$AAt?$AAc?$AAh?$AA_?$AA?$CJ?$AA?$AA@ 1005be84     snappy:snappy.obj
 0002:0000aebc       ??_C@_1BO@IALOIOFH@?$AAn?$AAb?$AAu?$AAf?$AA?5?$AA?$DN?$AA?$DN?$AA?5?$AAn?$AAe?$AAe?$AAd?$AAe?$AAd?$AA?$AA@ 1005bebc     snappy:snappy.obj
 0002:0000aedc       ??_C@_1CG@MOFADOEH@?$AAf?$AAr?$AAa?$AAg?$AAm?$AAe?$AAn?$AAt?$AA_?$AAs?$AAi?$AAz?$AAe?$AA?5?$AA?$CB?$AA?$DN?$AA?5?$AA0?$AA?$AA@ 1005bedc     snappy:snappy.obj
 0002:0000af04       ??_C@_1DE@GIPLEENC@?$AAb?$AAy?$AAt?$AAe?$AAs?$AA_?$AAr?$AAe?$AAa?$AAd?$AA?5?$AA?$DN?$AA?$DN?$AA?5?$AAn?$AAu?$AAm?$AA_?$AAt?$AAo?$AA_?$AAr?$AAe?$AAa?$AAd?$AA?$AA@ 1005bf04     snappy:snappy.obj
 0002:0000af38       ??_C@_1BI@NKMBJCOD@?$AAo?$AAp?$AA?5?$AA?$DO?$AA?$DN?$AA?5?$AAb?$AAa?$AAs?$AAe?$AA_?$AA?$AA@ 1005bf38     snappy:snappy.obj
 0002:0000af50       ??_C@_1CI@LJPILCOO@?$AAl?$AAi?$AAt?$AAe?$AAr?$AAa?$AAl?$AA_?$AAl?$AAe?$AAn?$AAg?$AAt?$AAh?$AA?5?$AA?$DM?$AA?5?$AA6?$AA1?$AA?$AA@ 1005bf50     snappy:snappy.obj
 0002:0000af78       ??_7UncheckedByteArraySink@snappy@@6B@ 1005bf78     snappy:snappy.obj
 0002:0000af84       ??_7Sink@snappy@@6B@       1005bf84     snappy:snappy.obj
 0002:0000af90       ??_7ByteArraySource@snappy@@6B@ 1005bf90     snappy:snappy.obj
 0002:0000afa0       __real@3eb0000000000000    1005bfa0     leveldb:db_impl.obj
 0002:0000afa8       __real@3fd0000000000000    1005bfa8     leveldb:version_set.obj
 0002:0000afb0       __real@3ff0000000000000    1005bfb0     leveldb:db_impl.obj
 0002:0000afb8       __real@4024000000000000    1005bfb8     leveldb:version_set.obj
 0002:0000afc0       __real@412e848000000000    1005bfc0     leveldb:db_impl.obj
 0002:0000afc8       __real@4164000000000000    1005bfc8     leveldb:version_set.obj
 0002:0000afd0       __real@bff0000000000000    1005bfd0     leveldb:version_set.obj
 0002:0000afe0       __xmm@41f00000000000000000000000000000 1005bfe0     database.obj
 0002:0000b074       __pDestructExceptionObject 1005c074     libvcruntime:frame.obj
 0002:0000b07c       ??_7bad_exception@std@@6B@ 1005c07c     libvcruntime:frame.obj
 0002:0000b084       ??_C@_0O@DPKOEFFH@bad?5exception?$AA@ 1005c084     libvcruntime:frame.obj
 0002:0000b0f4       ??_R4exception@std@@6B@    1005c0f4     libcpmt:xthrow.obj
 0002:0000b108       ??_R3exception@std@@8      1005c108     libcpmt:xthrow.obj
 0002:0000b118       ??_R2exception@std@@8      1005c118     libcpmt:xthrow.obj
 0002:0000b120       ??_R1A@?0A@EA@exception@std@@8 1005c120     libcpmt:xthrow.obj
 0002:0000b13c       ??_R4bad_alloc@std@@6B@    1005c13c     libcpmt:xthrow.obj
 0002:0000b150       ??_R3bad_alloc@std@@8      1005c150     libcpmt:xthrow.obj
 0002:0000b160       ??_R2bad_alloc@std@@8      1005c160     libcpmt:xthrow.obj
 0002:0000b16c       ??_R1A@?0A@EA@bad_alloc@std@@8 1005c16c     libcpmt:xthrow.obj
 0002:0000b188       ??_R4logic_error@std@@6B@  1005c188     libcpmt:xthrow.obj
 0002:0000b19c       ??_R3logic_error@std@@8    1005c19c     libcpmt:xthrow.obj
 0002:0000b1ac       ??_R2logic_error@std@@8    1005c1ac     libcpmt:xthrow.obj
 0002:0000b1b8       ??_R1A@?0A@EA@logic_error@std@@8 1005c1b8     libcpmt:xthrow.obj
 0002:0000b1d4       ??_R4length_error@std@@6B@ 1005c1d4     libcpmt:xthrow.obj
 0002:0000b1e8       ??_R3length_error@std@@8   1005c1e8     libcpmt:xthrow.obj
 0002:0000b1f8       ??_R2length_error@std@@8   1005c1f8     libcpmt:xthrow.obj
 0002:0000b208       ??_R1A@?0A@EA@length_error@std@@8 1005c208     libcpmt:xthrow.obj
 0002:0000b224       ??_R4out_of_range@std@@6B@ 1005c224     libcpmt:xthrow.obj
 0002:0000b238       ??_R3out_of_range@std@@8   1005c238     libcpmt:xthrow.obj
 0002:0000b248       ??_R2out_of_range@std@@8   1005c248     libcpmt:xthrow.obj
 0002:0000b258       ??_R1A@?0A@EA@out_of_range@std@@8 1005c258     libcpmt:xthrow.obj
 0002:0000b274       ??_R4type_info@@6B@        1005c274     LIBCMT:std_type_info_static.obj
 0002:0000b288       ??_R3type_info@@8          1005c288     LIBCMT:std_type_info_static.obj
 0002:0000b298       ??_R2type_info@@8          1005c298     LIBCMT:std_type_info_static.obj
 0002:0000b2a0       ??_R1A@?0A@EA@type_info@@8 1005c2a0     LIBCMT:std_type_info_static.obj
 0002:0000b2bc       ??_R4bad_array_new_length@std@@6B@ 1005c2bc     LIBCMT:throw_bad_alloc.obj
 0002:0000b2d0       ??_R3bad_array_new_length@std@@8 1005c2d0     LIBCMT:throw_bad_alloc.obj
 0002:0000b2e0       ??_R2bad_array_new_length@std@@8 1005c2e0     LIBCMT:throw_bad_alloc.obj
 0002:0000b2f0       ??_R1A@?0A@EA@bad_array_new_length@std@@8 1005c2f0     LIBCMT:throw_bad_alloc.obj
 0002:0000b30c       ??_R4bad_exception@std@@6B@ 1005c30c     libvcruntime:frame.obj
 0002:0000b320       ??_R3bad_exception@std@@8  1005c320     libvcruntime:frame.obj
 0002:0000b330       ??_R2bad_exception@std@@8  1005c330     libvcruntime:frame.obj
 0002:0000b33c       ??_R1A@?0A@EA@bad_exception@std@@8 1005c33c     libvcruntime:frame.obj
 0002:0000b360       ___safe_se_handler_table   1005c360     <linker-defined>
 0002:0000bc98       ___rtc_iaa                 1005cc98     LIBCMT:_initsect_.obj
 0002:0000bc9c       ___rtc_izz                 1005cc9c     LIBCMT:_initsect_.obj
 0002:0000bca0       ___rtc_taa                 1005cca0     LIBCMT:_initsect_.obj
 0002:0000bca4       ___rtc_tzz                 1005cca4     LIBCMT:_initsect_.obj
 0002:00011188       __TI2?AVbad_alloc@std@@    10062188     libcpmt:xthrow.obj
 0002:00011198       __CTA2?AVbad_alloc@std@@   10062198     libcpmt:xthrow.obj
 0002:000111a4       __CT??_R0?AVbad_alloc@std@@@8??0bad_alloc@std@@QAE@ABV01@@Z12 100621a4     libcpmt:xthrow.obj
 0002:000111c0       __CT??_R0?AVexception@std@@@8??0exception@std@@QAE@ABV01@@Z12 100621c0     libcpmt:xthrow.obj
 0002:000111dc       __CT??_R0?AVlogic_error@std@@@8??0logic_error@std@@QAE@ABV01@@Z12 100621dc     libcpmt:xthrow.obj
 0002:000111f8       __TI3?AVlength_error@std@@ 100621f8     libcpmt:xthrow.obj
 0002:00011208       __CTA3?AVlength_error@std@@ 10062208     libcpmt:xthrow.obj
 0002:00011218       __CT??_R0?AVlength_error@std@@@8??0length_error@std@@QAE@ABV01@@Z12 10062218     libcpmt:xthrow.obj
 0002:00011234       __TI3?AVout_of_range@std@@ 10062234     libcpmt:xthrow.obj
 0002:00011244       __CTA3?AVout_of_range@std@@ 10062244     libcpmt:xthrow.obj
 0002:00011254       __CT??_R0?AVout_of_range@std@@@8??0out_of_range@std@@QAE@ABV01@@Z12 10062254     libcpmt:xthrow.obj
 0002:0001134c       __TI3?AVbad_array_new_length@std@@ 1006234c     LIBCMT:throw_bad_alloc.obj
 0002:0001135c       __CTA3?AVbad_array_new_length@std@@ 1006235c     LIBCMT:throw_bad_alloc.obj
 0002:0001136c       __CT??_R0?AVbad_array_new_length@std@@@8??0bad_array_new_length@std@@QAE@ABV01@@Z12 1006236c     LIBCMT:throw_bad_alloc.obj
 0002:000118fc       __TI2?AVbad_exception@std@@ 100628fc     libvcruntime:frame.obj
 0002:0001190c       __CTA2?AVbad_exception@std@@ 1006290c     libvcruntime:frame.obj
 0002:00011918       __CT??_R0?AVbad_exception@std@@@8??0bad_exception@std@@QAE@ABV01@@Z12 10062918     libvcruntime:frame.obj
 0002:00011934       __DELAY_IMPORT_DESCRIPTOR_node_exe 10062934     node:node.exe
 0002:00011954       __NULL_DELAY_IMPORT_DESCRIPTOR 10062954     node:node.exe
 0002:00011ac0       \177node_NULL_THUNK_DATA_DLN 10062ac0     node:node.exe
 0002:00012c34       \177node_NULL_THUNK_DATA_DLB 10063c34     node:node.exe
 0002:00012dd8       __IMPORT_DESCRIPTOR_KERNEL32 10063dd8     kernel32:KERNEL32.dll
 0002:00012dec       __NULL_IMPORT_DESCRIPTOR   10063dec     kernel32:KERNEL32.dll
 0003:00000000       ___scrt_native_dllmain_reason 10065000     LIBCMT:utility.obj
 0003:00000004       ___security_cookie_complement 10065004     LIBCMT:gs_cookie.obj
 0003:00000008       ___security_cookie         10065008     LIBCMT:gs_cookie.obj
 0003:0000000c       ___isa_enabled             1006500c     LIBCMT:_cpu_disp_.obj
 0003:00000020       __NLG_Destination          10065020     libvcruntime:_exsup_.obj
 0003:00000030       ___abort_behavior          10065030     libucrt:abort.obj
 0003:00000038       __iob                      10065038     libucrt:_file.obj
 0003:000000f0       ___acrt_initial_locale_data 100650f0     libucrt:nlsdata.obj
 0003:000001a8       ___acrt_initial_locale_pointers 100651a8     libucrt:nlsdata.obj
 0003:000001b0       ___acrt_wide_c_locale_string 100651b0     libucrt:nlsdata.obj
 0003:000001b8       ___badioinfo               100651b8     libucrt:ioinit.obj
 0003:000002e0       __mbctype                  100652e0     libucrt:mbctype.obj
 0003:000003e8       __mbcasemap                100653e8     libucrt:mbctype.obj
 0003:000004e8       ___acrt_initial_multibyte_data 100654e8     libucrt:mbctype.obj
 0003:00000708       ___acrt_current_multibyte_data 10065708     libucrt:mbctype.obj
 0003:0000070c       __pwctype                  1006570c     libucrt:ctype.obj
 0003:00000710       ___globallocalestatus      10065710     libucrt:glstatus.obj
 0003:00000714       ___acrt_lconv_static_decimal 10065714     libucrt:localeconv.obj
 0003:00000718       ___acrt_lconv_static_W_decimal 10065718     libucrt:localeconv.obj
 0003:00000720       ___acrt_lconv_c            10065720     libucrt:localeconv.obj
 0003:00000770       __lookuptrailbytes         10065770     libucrt:read.obj
 0003:00000870       ___dcrt_lowio_console_output_handle 10065870     libucrt:initcon.obj
 0003:00000880       __fltused                  10065880     LIBCMT:fltused.obj
 0003:000008c0       ??_R0?AVbad_alloc@std@@@8  100658c0     libcpmt:xthrow.obj
 0003:000008dc       ??_R0?AVexception@std@@@8  100658dc     libcpmt:xthrow.obj
 0003:000008f8       ??_R0?AVlogic_error@std@@@8 100658f8     libcpmt:xthrow.obj
 0003:00000918       ??_R0?AVlength_error@std@@@8 10065918     libcpmt:xthrow.obj
 0003:00000938       ??_R0?AVout_of_range@std@@@8 10065938     libcpmt:xthrow.obj
 0003:00000958       ??_R0?AVtype_info@@@8      10065958     LIBCMT:std_type_info_static.obj
 0003:00000970       ??_R0?AVbad_array_new_length@std@@@8 10065970     LIBCMT:throw_bad_alloc.obj
 0003:00000998       ??_R0?AVbad_exception@std@@@8 10065998     libvcruntime:frame.obj
 0003:000009b8       __imp__uv_queue_work       100659b8     node:node.exe
 0003:000009bc       __imp_?Global@Context@v8@@QAE?AV?$Local@VObject@v8@@@2@XZ 100659bc     node:node.exe
 0003:000009c0       __imp_?Value@External@v8@@QBEPAXXZ 100659c0     node:node.exe
 0003:000009c4       __imp_?New@External@v8@@SA?AV?$Local@VExternal@v8@@@2@PAVIsolate@2@PAX@Z 100659c4     node:node.exe
 0003:000009c8       __imp_?New@Signature@v8@@SA?AV?$Local@VSignature@v8@@@2@PAVIsolate@2@V?$Local@VFunctionTemplate@v8@@@2@@Z 100659c8     node:node.exe
 0003:000009cc       __imp_?GetCurrentContext@Isolate@v8@@QAE?AV?$Local@VContext@v8@@@2@XZ 100659cc     node:node.exe
 0003:000009d0       __imp_?GetCurrent@Isolate@v8@@SAPAV12@XZ 100659d0     node:node.exe
 0003:000009d4       __imp_?CreateHandle@HandleScope@v8@@KAPAPAVObject@internal@2@PAVIsolate@42@PAV342@@Z 100659d4     node:node.exe
 0003:000009d8       __imp_?CreateHandle@HandleScope@v8@@CAPAPAVObject@internal@2@PAVHeapObject@42@PAV342@@Z 100659d8     node:node.exe
 0003:000009dc       __imp_??1HandleScope@v8@@QAE@XZ 100659dc     node:node.exe
 0003:000009e0       __imp_??0HandleScope@v8@@QAE@PAVIsolate@1@@Z 100659e0     node:node.exe
 0003:000009e4       __imp_?Set@Template@v8@@QAEXV?$Local@VName@v8@@@2@V?$Local@VData@v8@@@2@W4PropertyAttribute@2@@Z 100659e4     node:node.exe
 0003:000009e8       __imp_?SetClassName@FunctionTemplate@v8@@QAEXV?$Local@VString@v8@@@2@@Z 100659e8     node:node.exe
 0003:000009ec       __imp_?PrototypeTemplate@FunctionTemplate@v8@@QAE?AV?$Local@VObjectTemplate@v8@@@2@XZ 100659ec     node:node.exe
 0003:000009f0       __imp_?InstanceTemplate@FunctionTemplate@v8@@QAE?AV?$Local@VObjectTemplate@v8@@@2@XZ 100659f0     node:node.exe
 0003:000009f4       __imp_?GetFunction@FunctionTemplate@v8@@QAE?AV?$Local@VFunction@v8@@@2@XZ 100659f4     node:node.exe
 0003:000009f8       __imp_?New@FunctionTemplate@v8@@SA?AV?$Local@VFunctionTemplate@v8@@@2@PAVIsolate@2@P6AXABV?$FunctionCallbackInfo@VValue@v8@@@2@@ZV?$Local@VValue@v8@@@2@V?$Local@VSignature@v8@@@2@H@Z 100659f8     node:node.exe
 0003:000009fc       __imp_?ToLocalEmpty@V8@v8@@CAXXZ 100659fc     node:node.exe
 0003:00000a00       __imp_?ClearWeak@V8@v8@@CAPAXPAPAVObject@internal@2@@Z 10065a00     node:node.exe
 0003:00000a04       __imp_?MakeWeak@V8@v8@@CAXPAPAVObject@internal@2@PAXP6AXABV?$WeakCallbackInfo@X@2@@ZW4WeakCallbackType@2@@Z 10065a04     node:node.exe
 0003:00000a08       __imp_?DisposeGlobal@V8@v8@@CAXPAPAVObject@internal@2@@Z 10065a08     node:node.exe
 0003:00000a0c       __imp_?GlobalizeReference@V8@v8@@CAPAPAVObject@internal@2@PAVIsolate@42@PAPAV342@@Z 10065a0c     node:node.exe
 0003:00000a10       __imp_?BooleanValue@Value@v8@@QBE_NXZ 10065a10     node:node.exe
 0003:00000a14       __imp_?IsObject@Value@v8@@QBE_NXZ 10065a14     node:node.exe
 0003:00000a18       __imp_?Escape@EscapableHandleScope@v8@@AAEPAPAVObject@internal@2@PAPAV342@@Z 10065a18     node:node.exe
 0003:00000a1c       __imp_??0EscapableHandleScope@v8@@QAE@PAVIsolate@1@@Z 10065a1c     node:node.exe
 0003:00000a20       __imp_?NewFromUtf8@String@v8@@SA?AV?$MaybeLocal@VString@v8@@@2@PAVIsolate@2@PBDW4NewStringType@2@H@Z 10065a20     node:node.exe
 0003:00000a24       __imp_?WriteUtf8@String@v8@@QBEHPADHPAHH@Z 10065a24     node:node.exe
 0003:00000a28       __imp_?Utf8Length@String@v8@@QBEHXZ 10065a28     node:node.exe
 0003:00000a2c       __imp_?SlowGetAlignedPointerFromInternalField@Object@v8@@AAEPAXH@Z 10065a2c     node:node.exe
 0003:00000a30       __imp_?SlowGetInternalField@Object@v8@@AAE?AV?$Local@VValue@v8@@@2@H@Z 10065a30     node:node.exe
 0003:00000a34       __imp_?New@Object@v8@@SA?AV?$Local@VObject@v8@@@2@PAVIsolate@2@@Z 10065a34     node:node.exe
 0003:00000a38       __imp_?SetAlignedPointerInInternalField@Object@v8@@QAEXHPAX@Z 10065a38     node:node.exe
 0003:00000a3c       __imp_?SetInternalField@Object@v8@@QAEXHV?$Local@VValue@v8@@@2@@Z 10065a3c     node:node.exe
 0003:00000a40       __imp_?InternalFieldCount@Object@v8@@QAEHXZ 10065a40     node:node.exe
 0003:00000a44       __imp_?Has@Object@v8@@QAE_NV?$Local@VValue@v8@@@2@@Z 10065a44     node:node.exe
 0003:00000a48       __imp_?Get@Object@v8@@QAE?AV?$Local@VValue@v8@@@2@V32@@Z 10065a48     node:node.exe
 0003:00000a4c       __imp_?Set@Object@v8@@QAE_NV?$Local@VValue@v8@@@2@0@Z 10065a4c     node:node.exe
 0003:00000a50       __imp_?Set@Object@v8@@QAE?AV?$Maybe@_N@2@V?$Local@VContext@v8@@@2@IV?$Local@VValue@v8@@@2@@Z 10065a50     node:node.exe
 0003:00000a54       __imp_?NewInstance@Function@v8@@QBE?AV?$Local@VObject@v8@@@2@HQAV?$Local@VValue@v8@@@2@@Z 10065a54     node:node.exe
 0003:00000a58       __imp_?SetInternalFieldCount@ObjectTemplate@v8@@QAEXH@Z 10065a58     node:node.exe
 0003:00000a5c       __imp_?NewInstance@ObjectTemplate@v8@@QAE?AV?$MaybeLocal@VObject@v8@@@2@V?$Local@VContext@v8@@@2@@Z 10065a5c     node:node.exe
 0003:00000a60       __imp_?New@ObjectTemplate@v8@@SA?AV?$Local@VObjectTemplate@v8@@@2@PAVIsolate@2@V?$Local@VFunctionTemplate@v8@@@2@@Z 10065a60     node:node.exe
 0003:00000a64       __imp_?HasInstance@Buffer@node@@YA_NV?$Local@VValue@v8@@@v8@@@Z 10065a64     node:node.exe
 0003:00000a68       __imp_?HasInstance@Buffer@node@@YA_NV?$Local@VObject@v8@@@v8@@@Z 10065a68     node:node.exe
 0003:00000a6c       __imp_?Data@Buffer@node@@YAPADV?$Local@VObject@v8@@@v8@@@Z 10065a6c     node:node.exe
 0003:00000a70       __imp_?Length@Buffer@node@@YAIV?$Local@VObject@v8@@@v8@@@Z 10065a70     node:node.exe
 0003:00000a74       __imp_?MakeCallback@node@@YA?AV?$Local@VValue@v8@@@v8@@PAVIsolate@3@V?$Local@VObject@v8@@@3@V?$Local@VFunction@v8@@@3@HPAV23@@Z 10065a74     node:node.exe
 0003:00000a78       __imp__uv_default_loop     10065a78     node:node.exe
 0003:00000a7c       __imp_?ToObject@Value@v8@@QBE?AV?$Local@VObject@v8@@@2@XZ 10065a7c     node:node.exe
 0003:00000a80       __imp_?ToString@Value@v8@@QBE?AV?$Local@VString@v8@@@2@XZ 10065a80     node:node.exe
 0003:00000a84       __imp_??1EscapableHandleScope@v8@@QAE@XZ 10065a84     node:node.exe
 0003:00000a88       __imp_?Error@Exception@v8@@SA?AV?$Local@VValue@v8@@@2@V?$Local@VString@v8@@@2@@Z 10065a88     node:node.exe
 0003:00000a8c       __imp_?Get@Object@v8@@QAE?AV?$Local@VValue@v8@@@2@I@Z 10065a8c     node:node.exe
 0003:00000a90       __imp_?ThrowException@Isolate@v8@@QAE?AV?$Local@VValue@v8@@@2@V32@@Z 10065a90     node:node.exe
 0003:00000a94       __imp_?Length@Array@v8@@QBEIXZ 10065a94     node:node.exe
 0003:00000a98       __imp_?StrictEquals@Value@v8@@QBE_NV?$Local@VValue@v8@@@2@@Z 10065a98     node:node.exe
 0003:00000a9c       __imp_?Uint32Value@Value@v8@@QBEIXZ 10065a9c     node:node.exe
 0003:00000aa0       __imp_?IsNumber@Value@v8@@QBE_NXZ 10065aa0     node:node.exe
 0003:00000aa4       __imp_?IsArray@Value@v8@@QBE_NXZ 10065aa4     node:node.exe
 0003:00000aa8       __imp_?IsFunction@Value@v8@@QBE_NXZ 10065aa8     node:node.exe
 0003:00000aac       __imp_?HasCaught@TryCatch@v8@@QBE_NXZ 10065aac     node:node.exe
 0003:00000ab0       __imp_??1TryCatch@v8@@QAE@XZ 10065ab0     node:node.exe
 0003:00000ab4       __imp_??0TryCatch@v8@@QAE@XZ 10065ab4     node:node.exe
 0003:00000ab8       __imp_?Length@String@v8@@QBEHXZ 10065ab8     node:node.exe
 0003:00000abc       __imp_?New@Number@v8@@SA?AV?$Local@VNumber@v8@@@2@PAVIsolate@2@N@Z 10065abc     node:node.exe
 0003:00000ac0       __imp_?Copy@Buffer@node@@YA?AV?$MaybeLocal@VObject@v8@@@v8@@PAVIsolate@4@PBDI@Z 10065ac0     node:node.exe
 0003:00000ac4       __imp_?Value@Integer@v8@@QBE_JXZ 10065ac4     node:node.exe
 0003:00000ac8       __imp_?Int32Value@Value@v8@@QBEHXZ 10065ac8     node:node.exe
 0003:00000acc       __imp_?New@Integer@v8@@SA?AV?$Local@VInteger@v8@@@2@PAVIsolate@2@H@Z 10065acc     node:node.exe
 0003:00000ad0       __imp_?New@Array@v8@@SA?AV?$Local@VArray@v8@@@2@PAVIsolate@2@H@Z 10065ad0     node:node.exe
 0003:00000ad4       __imp_?ToInteger@Value@v8@@QBE?AV?$MaybeLocal@VInteger@v8@@@2@V?$Local@VContext@v8@@@2@@Z 10065ad4     node:node.exe
 0003:00000ad8       __imp__node_module_register 10065ad8     node:node.exe
 0003:00000adc       __imp__uv_cond_signal      10065adc     node:node.exe
 0003:00000ae0       __imp__uv_cond_destroy     10065ae0     node:node.exe
 0003:00000ae4       __imp__uv_mutex_unlock     10065ae4     node:node.exe
 0003:00000ae8       __imp__uv_cond_init        10065ae8     node:node.exe
 0003:00000aec       __imp__uv_once             10065aec     node:node.exe
 0003:00000af0       __imp__uv_mutex_lock       10065af0     node:node.exe
 0003:00000af4       __imp__uv_cond_wait        10065af4     node:node.exe
 0003:00000af8       __imp__uv_mutex_destroy    10065af8     node:node.exe
 0003:00000afc       __imp__uv_cond_broadcast   10065afc     node:node.exe
 0003:00000b00       __imp__uv_mutex_init       10065b00     node:node.exe
 0003:00000b04       \177node_NULL_THUNK_DATA_DLA 10065b04     node:node.exe
 0003:00000b08       __hmod__node_exe           10065b08     node:node.exe
 0003:00000b0c       ___scrt_current_native_startup_state 10065b0c     LIBCMT:utility.obj
 0003:00000b10       ___scrt_native_startup_lock 10065b10     LIBCMT:utility.obj
 0003:00000e54       ___isa_available           10065e54     LIBCMT:_cpu_disp_.obj
 0003:00000e58       ___favor                   10065e58     LIBCMT:_cpu_disp_.obj
 0003:00000e5c       ___scrt_debugger_hook_flag 10065e5c     LIBCMT:utility_desktop.obj
 0003:00000e60       ?__type_info_root_node@@3U__type_info_node@@A 10065e60     LIBCMT:tncleanup.obj
 0003:00000e68       ?_OptionsStorage@?1??__local_stdio_scanf_options@@9@4_KA 10065e68     LIBCMT:default_local_stdio_options.obj
 0003:00000e70       ___pPurecall               10065e70     libvcruntime:purevirt_data.obj
 0003:00000eec       ?pArgList@UnDecorator@@0PAVReplicator@@A 10065eec     libvcruntime:undname.obj
 0003:00000ef0       ?pZNameList@UnDecorator@@0PAVReplicator@@A 10065ef0     libvcruntime:undname.obj
 0003:00000ef4       ?pTemplateArgList@UnDecorator@@0PAVReplicator@@A 10065ef4     libvcruntime:undname.obj
 0003:00000ef8       ?gName@UnDecorator@@0PBDB  10065ef8     libvcruntime:undname.obj
 0003:00000efc       ?name@UnDecorator@@0PBDB   10065efc     libvcruntime:undname.obj
 0003:00000f00       ?outputString@UnDecorator@@0PADA 10065f00     libvcruntime:undname.obj
 0003:00000f04       ?maxStringLength@UnDecorator@@0HA 10065f04     libvcruntime:undname.obj
 0003:00000f08       ?disableFlags@UnDecorator@@0KA 10065f08     libvcruntime:undname.obj
 0003:00000f0c       ?fExplicitTemplateParams@UnDecorator@@0_NA 10065f0c     libvcruntime:undname.obj
 0003:00000f0d       ?fGetTemplateArgumentList@UnDecorator@@0_NA 10065f0d     libvcruntime:undname.obj
 0003:00000f10       ?m_pGetParameter@UnDecorator@@0P6APADJ@ZA 10065f10     libvcruntime:undname.obj
 0003:00000f2c       __nstream                  10065f2c     libucrt:_file.obj
 0003:00000f30       ___piob                    10065f30     libucrt:_file.obj
 0003:00000f34       __cflush                   10065f34     libucrt:_file.obj
 0003:00001050       __environ_table            10066050     libucrt:environment_initialization.obj
 0003:00001054       __wenviron_table           10066054     libucrt:environment_initialization.obj
 0003:00001058       ___dcrt_initial_wide_environment 10066058     libucrt:environment_initialization.obj
 0003:0000105c       ___dcrt_initial_narrow_environment 1006605c     libucrt:environment_initialization.obj
 0003:00001060       ___acrt_atexit_table       10066060     libucrt:onexit.obj
 0003:0000106c       ___acrt_at_quick_exit_table 1006606c     libucrt:onexit.obj
 0003:00001090       ___acrt_locale_changed_data 10066090     libucrt:wsetlocale.obj
 0003:00001094       ___acrt_current_locale_data 10066094     libucrt:nlsdata.obj
 0003:0000109c       ___acrt_stdout_buffer      1006609c     libucrt:_sftbuf.obj
 0003:000010a0       ___acrt_stderr_buffer      100660a0     libucrt:_sftbuf.obj
 0003:000010a8       ___pioinfo                 100660a8     libucrt:ioinit.obj
 0003:000012a8       __nhandle                  100662a8     libucrt:ioinit.obj
 0003:000014c4       ___mblocalename            100664c4     libucrt:mbctype.obj
 0003:000014c8       ___mbcodepage              100664c8     libucrt:mbctype.obj
 0003:000014cc       ___ismbcodepage            100664cc     libucrt:mbctype.obj
 0003:000014d0       ___mbulinfo                100664d0     libucrt:mbctype.obj
 0003:000014e4       ___argc                    100664e4     libucrt:argv_data.obj
 0003:000014e8       ___argv                    100664e8     libucrt:argv_data.obj
 0003:000014ec       ___wargv                   100664ec     libucrt:argv_data.obj
 0003:000014f0       __acmdln                   100664f0     libucrt:argv_data.obj
 0003:000014f4       __wcmdln                   100664f4     libucrt:argv_data.obj
 0003:000014f8       __pgmptr                   100664f8     libucrt:argv_data.obj
 0003:000014fc       ___acrt_heap               100664fc     libucrt:heap_handle.obj
 0003:00001508       ___acrt_lconv_static_null  10066508     libucrt:localeconv.obj
 0003:0000150c       ___acrt_lconv_static_W_null 1006650c     libucrt:localeconv.obj
 0003:00001510       __commode                  10066510     libucrt:ncommode.obj
 0003:00001514       __umaskval                 10066514     libucrt:umask.obj
 0003:00001518       ___fastflag                10066518     libucrt:fp_flags.obj
 0003:00001520       __fmode                    10066520     libucrt:txtmode.obj
 0003:00001524       ?DloadKernel32@@3PAUHINSTANCE__@@A 10066524     DelayImp:delayhlp.obj
 0003:00001528       ?DloadAcquireSRWLockExclusive@@3P6GXPAK@ZA 10066528     DelayImp:delayhlp.obj
 0003:0000152c       ?DloadReleaseSRWLockExclusive@@3P6GXPAK@ZA 1006652c     DelayImp:delayhlp.obj
 0003:00001530       ?DloadSrwLock@@3KA         10066530     DelayImp:delayhlp.obj
 0003:00001534       ?DloadSectionLockCount@@3KA 10066534     DelayImp:delayhlp.obj
 0003:00001538       ?DloadSectionOldProtection@@3KA 10066538     DelayImp:delayhlp.obj
 0003:0000153c       ?DloadSectionCommitPermanent@@3KA 1006653c     DelayImp:delayhlp.obj
 0003:00001540       ?_OptionsStorage@?1??__local_stdio_printf_options@@9@4_KA 10066540     leveldb:status.obj
 0003:0000157c       ?g_OutOfMemoryExceptionCallback@@3P6GPAXXZA 1006657c     libvcruntime:frame.obj
 0003:00001580       ___dyn_tls_init_callback   10066580     <common>
 0003:00001584       ___scrt_ucrt_dll_is_in_use 10066584     <common>
 0003:00001588       __pmatherr                 10066588     <common>
 0003:0000158c       ___use_sse2_mathfcns       1006658c     <common>

 entry point at        0001:00032d82

 Static symbols

 0000:fff92000       .debug$S                   10000000     node:node.exe
 0000:fff92000       .debug$S                   10000000     node:node.exe
 0000:fff92000       .debug$S                   10000000     node:node.exe
 0000:fff92000       .debug$S                   10000000     node:node.exe
 0000:fff92000       .debug$S                   10000000     node:node.exe
 0000:fff92000       .debug$S                   10000000     node:node.exe
 0000:fff92000       .debug$S                   10000000     node:node.exe
 0000:fff92000       .debug$S                   10000000     node:node.exe
 0000:fff92000       .debug$S                   10000000     node:node.exe
 0000:fff92000       .debug$S                   10000000     node:node.exe
 0000:fff92000       .debug$S                   10000000     node:node.exe
 0000:fff92000       .debug$S                   10000000     node:node.exe
 0000:fff92000       .debug$S                   10000000     node:node.exe
 0000:fff92000       .debug$S                   10000000     node:node.exe
 0000:fff92000       .debug$S                   10000000     node:node.exe
 0000:fff92000       .debug$S                   10000000     node:node.exe
 0000:fff92000       .debug$S                   10000000     node:node.exe
 0000:fff92000       .debug$S                   10000000     node:node.exe
 0000:fff92000       .debug$S                   10000000     node:node.exe
 0000:fff92000       .debug$S                   10000000     node:node.exe
 0000:fff92000       .debug$S                   10000000     node:node.exe
 0000:fff92000       .debug$S                   10000000     node:node.exe
 0000:fff92000       .debug$S                   10000000     node:node.exe
 0000:fff92000       .debug$S                   10000000     node:node.exe
 0000:fff92000       .debug$S                   10000000     node:node.exe
 0000:fff92000       .debug$S                   10000000     node:node.exe
 0000:fff92000       .debug$S                   10000000     node:node.exe
 0000:fff92000       .debug$S                   10000000     node:node.exe
 0000:fff92000       .debug$S                   10000000     node:node.exe
 0000:fff92000       .debug$S                   10000000     node:node.exe
 0000:fff92000       .debug$S                   10000000     node:node.exe
 0000:fff92000       .debug$S                   10000000     node:node.exe
 0000:fff92000       .debug$S                   10000000     node:node.exe
 0000:fff92000       .debug$S                   10000000     node:node.exe
 0000:fff92000       .debug$S                   10000000     node:node.exe
 0000:fff92000       .debug$S                   10000000     node:node.exe
 0000:fff92000       .debug$S                   10000000     kernel32:KERNEL32.dll
 0000:fff92000       .debug$S                   10000000     kernel32:KERNEL32.dll
 0000:fff92000       .debug$S                   10000000     kernel32:KERNEL32.dll
 0000:fff92000       .debug$S                   10000000     kernel32:KERNEL32.dll
 0000:fff92000       .debug$S                   10000000     kernel32:KERNEL32.dll
 0000:fff92000       .debug$S                   10000000     kernel32:KERNEL32.dll
 0000:fff92000       .debug$S                   10000000     kernel32:KERNEL32.dll
 0000:fff92000       .debug$S                   10000000     kernel32:KERNEL32.dll
 0000:fff92000       .debug$S                   10000000     kernel32:KERNEL32.dll
 0000:fff92000       .debug$S                   10000000     kernel32:KERNEL32.dll
 0000:fff92000       .debug$S                   10000000     kernel32:KERNEL32.dll
 0000:fff92000       .debug$S                   10000000     kernel32:KERNEL32.dll
 0000:fff92000       .debug$S                   10000000     kernel32:KERNEL32.dll
 0000:fff92000       .debug$S                   10000000     node:node.exe
 0000:fff92000       .debug$S                   10000000     node:node.exe
 0000:fff92000       .debug$S                   10000000     node:node.exe
 0000:fff92000       .debug$S                   10000000     node:node.exe
 0000:fff92000       .debug$S                   10000000     node:node.exe
 0000:fff92000       .debug$S                   10000000     node:node.exe
 0000:fff92000       .debug$S                   10000000     node:node.exe
 0000:fff92000       .debug$S                   10000000     node:node.exe
 0000:fff92000       .debug$S                   10000000     node:node.exe
 0000:fff92000       .debug$S                   10000000     node:node.exe
 0000:fff92000       .debug$S                   10000000     node:node.exe
 0000:fff92000       .debug$S                   10000000     node:node.exe
 0000:fff92000       .debug$S                   10000000     node:node.exe
 0000:fff92000       .debug$S                   10000000     node:node.exe
 0000:fff92000       .debug$S                   10000000     node:node.exe
 0000:fff92000       .debug$S                   10000000     node:node.exe
 0000:fff92000       .debug$S                   10000000     node:node.exe
 0000:fff92000       .debug$S                   10000000     node:node.exe
 0000:fff92000       .debug$S                   10000000     node:node.exe
 0000:fff92000       .debug$S                   10000000     node:node.exe
 0000:fff92000       .debug$S                   10000000     node:node.exe
 0000:fff92000       .debug$S                   10000000     node:node.exe
 0000:fff92000       .debug$S                   10000000     node:node.exe
 0000:fff92000       .debug$S                   10000000     leveldown.exp
 0000:fff92000       .debug$S                   10000000     kernel32:KERNEL32.dll
 0000:fff92000       .debug$S                   10000000     kernel32:KERNEL32.dll
 0000:fff92000       .debug$S                   10000000     kernel32:KERNEL32.dll
 0000:fff92000       .debug$S                   10000000     kernel32:KERNEL32.dll
 0000:fff92000       .debug$S                   10000000     kernel32:KERNEL32.dll
 0000:fff92000       .debug$S                   10000000     node:node.exe
 0000:fff92000       .debug$S                   10000000     node:node.exe
 0000:fff92000       .debug$S                   10000000     kernel32:KERNEL32.dll
 0000:fff92000       .debug$S                   10000000     node:node.exe
 0000:fff92000       .debug$S                   10000000     node:node.exe
 0000:fff92000       .debug$S                   10000000     node:node.exe
 0000:fff92000       .debug$S                   10000000     node:node.exe
 0000:fff92000       .debug$S                   10000000     node:node.exe
 0000:fff92000       .debug$S                   10000000     node:node.exe
 0000:fff92000       .debug$S                   10000000     node:node.exe
 0000:fff92000       .debug$S                   10000000     node:node.exe
 0000:fff92000       .debug$S                   10000000     node:node.exe
 0000:fff92000       .debug$S                   10000000     node:node.exe
 0000:fff92000       .debug$S                   10000000     node:node.exe
 0000:fff92000       .debug$S                   10000000     node:node.exe
 0000:fff92000       .debug$S                   10000000     node:node.exe
 0000:fff92000       .debug$S                   10000000     node:node.exe
 0000:fff92000       .debug$S                   10000000     kernel32:KERNEL32.dll
 0000:fff92000       .debug$S                   10000000     node:node.exe
 0000:fff92000       .debug$S                   10000000     node:node.exe
 0000:fff92000       .debug$S                   10000000     node:node.exe
 0000:fff92000       .debug$S                   10000000     node:node.exe
 0000:fff92000       .debug$S                   10000000     kernel32:KERNEL32.dll
 0000:fff92000       .debug$S                   10000000     kernel32:KERNEL32.dll
 0000:fff92000       .debug$S                   10000000     kernel32:KERNEL32.dll
 0000:fff92000       .debug$S                   10000000     node:node.exe
 0000:fff92000       .debug$S                   10000000     node:node.exe
 0000:fff92000       .debug$S                   10000000     kernel32:KERNEL32.dll
 0000:fff92000       .debug$S                   10000000     kernel32:KERNEL32.dll
 0000:fff92000       .debug$S                   10000000     kernel32:KERNEL32.dll
 0000:fff92000       .debug$S                   10000000     kernel32:KERNEL32.dll
 0000:fff92000       .debug$S                   10000000     kernel32:KERNEL32.dll
 0000:fff92000       .debug$S                   10000000     kernel32:KERNEL32.dll
 0000:fff92000       .debug$S                   10000000     kernel32:KERNEL32.dll
 0000:fff92000       .debug$S                   10000000     kernel32:KERNEL32.dll
 0000:fff92000       .debug$S                   10000000     kernel32:KERNEL32.dll
 0000:fff92000       .debug$S                   10000000     kernel32:KERNEL32.dll
 0000:fff92000       .debug$S                   10000000     kernel32:KERNEL32.dll
 0000:fff92000       .debug$S                   10000000     kernel32:KERNEL32.dll
 0000:fff92000       .debug$S                   10000000     node:node.exe
 0000:fff92000       .debug$S                   10000000     kernel32:KERNEL32.dll
 0000:fff92000       .debug$S                   10000000     kernel32:KERNEL32.dll
 0000:fff92000       .debug$S                   10000000     kernel32:KERNEL32.dll
 0000:fff92000       .debug$S                   10000000     kernel32:KERNEL32.dll
 0000:fff92000       .debug$S                   10000000     kernel32:KERNEL32.dll
 0000:fff92000       .debug$S                   10000000     kernel32:KERNEL32.dll
 0000:fff92000       .debug$S                   10000000     kernel32:KERNEL32.dll
 0000:fff92000       .debug$S                   10000000     kernel32:KERNEL32.dll
 0000:fff92000       .debug$S                   10000000     kernel32:KERNEL32.dll
 0000:fff92000       .debug$S                   10000000     kernel32:KERNEL32.dll
 0000:fff92000       .debug$S                   10000000     kernel32:KERNEL32.dll
 0000:fff92000       .debug$S                   10000000     kernel32:KERNEL32.dll
 0000:fff92000       .debug$S                   10000000     kernel32:KERNEL32.dll
 0000:fff92000       .debug$S                   10000000     kernel32:KERNEL32.dll
 0000:fff92000       .debug$S                   10000000     kernel32:KERNEL32.dll
 0000:fff92000       .debug$S                   10000000     kernel32:KERNEL32.dll
 0000:fff92000       .debug$S                   10000000     kernel32:KERNEL32.dll
 0000:fff92000       .debug$S                   10000000     kernel32:KERNEL32.dll
 0000:fff92000       .debug$S                   10000000     kernel32:KERNEL32.dll
 0000:fff92000       .debug$S                   10000000     kernel32:KERNEL32.dll
 0000:fff92000       .debug$S                   10000000     kernel32:KERNEL32.dll
 0000:fff92000       .debug$S                   10000000     kernel32:KERNEL32.dll
 0000:fff92000       .debug$S                   10000000     kernel32:KERNEL32.dll
 0000:fff92000       .debug$S                   10000000     kernel32:KERNEL32.dll
 0000:fff92000       .debug$S                   10000000     kernel32:KERNEL32.dll
 0000:fff92000       .debug$S                   10000000     kernel32:KERNEL32.dll
 0000:fff92000       .debug$S                   10000000     kernel32:KERNEL32.dll
 0000:fff92000       .debug$S                   10000000     kernel32:KERNEL32.dll
 0000:fff92000       .debug$S                   10000000     kernel32:KERNEL32.dll
 0000:fff92000       .debug$S                   10000000     kernel32:KERNEL32.dll
 0000:fff92000       .debug$S                   10000000     kernel32:KERNEL32.dll
 0000:fff92000       .debug$S                   10000000     kernel32:KERNEL32.dll
 0000:fff92000       .debug$S                   10000000     kernel32:KERNEL32.dll
 0000:fff92000       .debug$S                   10000000     kernel32:KERNEL32.dll
 0000:fff92000       .debug$S                   10000000     kernel32:KERNEL32.dll
 0000:fff92000       .debug$S                   10000000     kernel32:KERNEL32.dll
 0000:fff92000       .debug$S                   10000000     kernel32:KERNEL32.dll
 0000:fff92000       .debug$S                   10000000     kernel32:KERNEL32.dll
 0000:fff92000       .debug$S                   10000000     kernel32:KERNEL32.dll
 0000:fff92000       .debug$S                   10000000     kernel32:KERNEL32.dll
 0000:fff92000       .debug$S                   10000000     kernel32:KERNEL32.dll
 0000:fff92000       .debug$S                   10000000     kernel32:KERNEL32.dll
 0000:fff92000       .debug$S                   10000000     kernel32:KERNEL32.dll
 0000:fff92000       .debug$S                   10000000     kernel32:KERNEL32.dll
 0000:fff92000       .debug$S                   10000000     node:node.exe
 0000:fff92000       .debug$S                   10000000     node:node.exe
 0000:fff92000       .debug$S                   10000000     node:node.exe
 0000:fff92000       .debug$S                   10000000     node:node.exe
 0000:fff92000       .debug$S                   10000000     node:node.exe
 0000:fff92000       .debug$S                   10000000     kernel32:KERNEL32.dll
 0000:fff92000       .debug$S                   10000000     kernel32:KERNEL32.dll
 0000:fff92000       .debug$S                   10000000     kernel32:KERNEL32.dll
 0000:fff92000       .debug$S                   10000000     kernel32:KERNEL32.dll
 0000:fff92000       .debug$S                   10000000     node:node.exe
 0000:fff92000       .debug$S                   10000000     kernel32:KERNEL32.dll
 0000:fff92000       .debug$S                   10000000     node:node.exe
 0000:fff92000       .debug$S                   10000000     node:node.exe
 0000:fff92000       .debug$S                   10000000     node:node.exe
 0000:fff92000       .debug$S                   10000000     node:node.exe
 0000:fff92000       .debug$S                   10000000     node:node.exe
 0000:fff92000       .debug$S                   10000000     node:node.exe
 0000:fff92000       .debug$S                   10000000     node:node.exe
 0000:fff92000       .debug$S                   10000000     node:node.exe
 0000:fff92000       .debug$S                   10000000     node:node.exe
 0000:fff92000       .debug$S                   10000000     node:node.exe
 0000:fff92000       .debug$S                   10000000     kernel32:KERNEL32.dll
 0000:fff92000       .debug$S                   10000000     kernel32:KERNEL32.dll
 0000:fff92000       .debug$S                   10000000     kernel32:KERNEL32.dll
 0000:fff92000       .debug$S                   10000000     kernel32:KERNEL32.dll
 0000:fff92000       .debug$S                   10000000     kernel32:KERNEL32.dll
 0000:fff92000       .debug$S                   10000000     kernel32:KERNEL32.dll
 0000:fff92000       .debug$S                   10000000     kernel32:KERNEL32.dll
 0000:fff92000       .debug$S                   10000000     kernel32:KERNEL32.dll
 0000:fff92000       .debug$S                   10000000     kernel32:KERNEL32.dll
 0000:fff92000       .debug$S                   10000000     kernel32:KERNEL32.dll
 0000:fff92000       .debug$S                   10000000     kernel32:KERNEL32.dll
 0000:fff92000       .debug$S                   10000000     kernel32:KERNEL32.dll
 0000:fff92000       .debug$S                   10000000     kernel32:KERNEL32.dll
 0000:fff92000       .debug$S                   10000000     kernel32:KERNEL32.dll
 0000:fff92000       .debug$S                   10000000     kernel32:KERNEL32.dll
 0000:fff92000       .debug$S                   10000000     kernel32:KERNEL32.dll
 0000:fff92000       .debug$S                   10000000     kernel32:KERNEL32.dll
 0000:fff92000       .debug$S                   10000000     kernel32:KERNEL32.dll
 0000:fff92000       .debug$S                   10000000     kernel32:KERNEL32.dll
 0000:fff92000       .debug$S                   10000000     kernel32:KERNEL32.dll
 0000:fff92000       .debug$S                   10000000     kernel32:KERNEL32.dll
 0000:fff92000       .debug$S                   10000000     kernel32:KERNEL32.dll
 0000:fff92000       .debug$S                   10000000     kernel32:KERNEL32.dll
 0000:fff92000       .debug$S                   10000000     kernel32:KERNEL32.dll
 0001:00000000       ??__Ebatch_constructor@leveldown@@YAXXZ 10001000 f   batch.obj
 0001:00000050       ??__Edatabase_constructor@leveldown@@YAXXZ 10001050 f   database.obj
 0001:000000a0       ??__Eiterator_constructor@leveldown@@YAXXZ 100010a0 f   iterator.obj
 0001:000000f0       ??__Edefault_env_mutex@leveldb@@YAXXZ 100010f0 f   leveldb:env_win.obj
 0001:00000110       ?FunctionCallbackWrapper@imp@Nan@@YAXABV?$FunctionCallbackInfo@VValue@v8@@@v8@@@Z 10001110 f   batch.obj
 0001:00002030       ?SeekToLast@EmptyIterator@?A0x04dd5dd9@leveldb@@UAEXXZ 10003030 f i leveldb:iterator.obj
 0001:00002030       ?SeekToFirst@EmptyIterator@?A0x04dd5dd9@leveldb@@UAEXXZ 10003030 f i leveldb:iterator.obj
 0001:00006f50       ?StringOrBufferLength@@YAIV?$Local@VValue@v8@@@v8@@@Z 10007f50 f   iterator.obj
 0001:0000a8d0       __register_leveldown       1000b8d0 f   leveldown.obj
 0001:0000ac20       ?load_exe_hook@@YGP6GHXZIPAUDelayLoadInfo@@@Z 1000bc20 f   win_delay_load_hook.obj
 0001:0000b480       ?Put@MemTableInserter@?A0x588df0ed@leveldb@@UAEXABVSlice@3@0@Z 1000c480 f   leveldb:write_batch.obj
 0001:0000b4b0       ?Delete@MemTableInserter@?A0x588df0ed@leveldb@@UAEXABVSlice@3@@Z 1000c4b0 f   leveldb:write_batch.obj
 0001:0000b5a0       ??1MemTableInserter@?A0x588df0ed@leveldb@@UAE@XZ 1000c5a0 f   leveldb:write_batch.obj
 0001:0000bc24       $LN274                     1000cc24     leveldb:status.obj
 0001:0000bc40       ?Name@BloomFilterPolicy@?A0xdfcd7922@leveldb@@UBEPBDXZ 1000cc40 f   leveldb:bloom.obj
 0001:0000bc50       ?CreateFilter@BloomFilterPolicy@?A0xdfcd7922@leveldb@@UBEXPBVSlice@3@HPAV?$basic_string@DU?$char_traits@D@std@@V?$allocator@D@2@@std@@@Z 1000cc50 f   leveldb:bloom.obj
 0001:0000bd60       ?KeyMayMatch@BloomFilterPolicy@?A0xdfcd7922@leveldb@@UBE_NABVSlice@3@0@Z 1000cd60 f   leveldb:bloom.obj
 0001:0000dd5c       $LN764                     1000ed5c     leveldb:db_impl.obj
 0001:0000e9c0       ?Corruption@LogReporter@?1??RecoverLogFile@DBImpl@leveldb@@AAE?AVStatus@4@_KPAVVersionEdit@4@PA_K@Z@UAEXIABV54@@Z 1000f9c0 f   leveldb:db_impl.obj
 0001:000111d0       ?CleanupIteratorState@?A0xbf006ed3@leveldb@@YAXPAX0@Z 100121d0 f   leveldb:db_impl.obj
 0001:00013540       ??1LogReporter@?1??ConvertLogToTable@Repairer@?A0xf1d2c879@leveldb@@AAE?AVStatus@4@_K@Z@UAE@XZ 10014540 f   leveldb:repair.obj
 0001:00013540       ??1LogReporter@?1??Recover@VersionSet@leveldb@@QAE?AVStatus@3@XZ@UAE@XZ 10014540 f   leveldb:version_set.obj
 0001:00013540       ??1LogReporter@?1??RecoverLogFile@DBImpl@leveldb@@AAE?AVStatus@3@_KPAVVersionEdit@3@PA_K@Z@UAE@XZ 10014540 f   leveldb:db_impl.obj
 0001:00015e70       ??1HandleTable@?A0xb96669bd@leveldb@@QAE@XZ 10016e70 f   leveldb:cache.obj
 0001:00015e80       ?FindPointer@HandleTable@?A0xb96669bd@leveldb@@AAEPAPAULRUHandle@23@ABVSlice@3@I@Z 10016e80 f   leveldb:cache.obj
 0001:00015f40       ?Resize@HandleTable@?A0xb96669bd@leveldb@@AAEXXZ 10016f40 f   leveldb:cache.obj
 0001:00016040       ??0LRUCache@?A0xb96669bd@leveldb@@QAE@XZ 10017040 f   leveldb:cache.obj
 0001:000160d0       ??1LRUCache@?A0xb96669bd@leveldb@@QAE@XZ 100170d0 f   leveldb:cache.obj
 0001:000161d0       ?Unref@LRUCache@?A0xb96669bd@leveldb@@AAEXPAULRUHandle@23@@Z 100171d0 f   leveldb:cache.obj
 0001:00016250       ?Lookup@LRUCache@?A0xb96669bd@leveldb@@QAEPAUHandle@Cache@3@ABVSlice@3@I@Z 10017250 f   leveldb:cache.obj
 0001:00016300       ?Insert@LRUCache@?A0xb96669bd@leveldb@@QAEPAUHandle@Cache@3@ABVSlice@3@IPAXIP6AX01@Z@Z 10017300 f   leveldb:cache.obj
 0001:00016520       ?Erase@LRUCache@?A0xb96669bd@leveldb@@QAEXABVSlice@3@I@Z 10017520 f   leveldb:cache.obj
 0001:000165c0       ??0ShardedLRUCache@?A0xb96669bd@leveldb@@QAE@I@Z 100175c0 f   leveldb:cache.obj
 0001:00016680       ?Insert@ShardedLRUCache@?A0xb96669bd@leveldb@@UAEPAUHandle@Cache@3@ABVSlice@3@PAXIP6AX01@Z@Z 10017680 f   leveldb:cache.obj
 0001:000166c0       ?Lookup@ShardedLRUCache@?A0xb96669bd@leveldb@@UAEPAUHandle@Cache@3@ABVSlice@3@@Z 100176c0 f   leveldb:cache.obj
 0001:000166f0       ?Release@ShardedLRUCache@?A0xb96669bd@leveldb@@UAEXPAUHandle@Cache@3@@Z 100176f0 f   leveldb:cache.obj
 0001:00016770       ?Erase@ShardedLRUCache@?A0xb96669bd@leveldb@@UAEXABVSlice@3@@Z 10017770 f   leveldb:cache.obj
 0001:000167a0       ?Value@ShardedLRUCache@?A0xb96669bd@leveldb@@UAEPAXPAUHandle@Cache@3@@Z 100177a0 f   leveldb:cache.obj
 0001:000167b0       ?NewId@ShardedLRUCache@?A0xb96669bd@leveldb@@UAE_KXZ 100177b0 f   leveldb:cache.obj
 0001:000169c0       ??0Repairer@?A0xf1d2c879@leveldb@@QAE@ABV?$basic_string@DU?$char_traits@D@std@@V?$allocator@D@2@@std@@ABUOptions@2@@Z 100179c0 f   leveldb:repair.obj
 0001:00016bc0       ??1Repairer@?A0xf1d2c879@leveldb@@QAE@XZ 10017bc0 f   leveldb:repair.obj
 0001:00016db0       ?Run@Repairer@?A0xf1d2c879@leveldb@@QAE?AVStatus@3@XZ 10017db0 f   leveldb:repair.obj
 0001:00016f50       ?FindFiles@Repairer@?A0xf1d2c879@leveldb@@AAE?AVStatus@3@XZ 10017f50 f   leveldb:repair.obj
 0001:00017230       ?ConvertLogFilesToTables@Repairer@?A0xf1d2c879@leveldb@@AAEXXZ 10018230 f   leveldb:repair.obj
 0001:00017410       ?ConvertLogToTable@Repairer@?A0xf1d2c879@leveldb@@AAE?AVStatus@3@_K@Z 10018410 f   leveldb:repair.obj
 0001:00017b60       ?Corruption@LogReporter@?1??ConvertLogToTable@Repairer@?A0xf1d2c879@leveldb@@AAE?AVStatus@5@_K@Z@UAEXIABV65@@Z 10018b60 f   leveldb:repair.obj
 0001:00017c10       ?ExtractMetaData@Repairer@?A0xf1d2c879@leveldb@@AAEXXZ 10018c10 f   leveldb:repair.obj
 0001:00017c60       ?ScanTable@Repairer@?A0xf1d2c879@leveldb@@AAEX_K@Z 10018c60 f   leveldb:repair.obj
 0001:00018390       ?RepairTable@Repairer@?A0xf1d2c879@leveldb@@AAEXABV?$basic_string@DU?$char_traits@D@std@@V?$allocator@D@2@@std@@UTableInfo@123@@Z 10019390 f   leveldb:repair.obj
 0001:00018810       ?WriteDescriptor@Repairer@?A0xf1d2c879@leveldb@@AAE?AVStatus@3@XZ 10019810 f   leveldb:repair.obj
 0001:00018f70       ?ArchiveFile@Repairer@?A0xf1d2c879@leveldb@@AAEXABV?$basic_string@DU?$char_traits@D@std@@V?$allocator@D@2@@std@@@Z 10019f70 f   leveldb:repair.obj
 0001:00019210       ??1TableInfo@Repairer@?A0xf1d2c879@leveldb@@QAE@XZ 1001a210 f   leveldb:repair.obj
 0001:00019900       ??0TableInfo@Repairer@?A0xf1d2c879@leveldb@@QAE@$$QAU0123@@Z 1001a900 f   leveldb:repair.obj
 0001:00019fd0       ?EncodeKey@leveldb@@YAPBDPAV?$basic_string@DU?$char_traits@D@std@@V?$allocator@D@2@@std@@ABVSlice@1@@Z 1001afd0 f   leveldb:memtable.obj
 0001:0001bf90       ?MakeFileName@leveldb@@YA?AV?$basic_string@DU?$char_traits@D@std@@V?$allocator@D@2@@std@@ABV23@_KPBD@Z 1001cf90 f   leveldb:filename.obj
 0001:0001cc00       ?DoWriteStringToFile@leveldb@@YA?AVStatus@1@PAVEnv@1@ABVSlice@1@ABV?$basic_string@DU?$char_traits@D@std@@V?$allocator@D@2@@std@@_N@Z 1001dc00 f   leveldb:env.obj
 0001:0001d150       ??0MergingIterator@?A0x8740a436@leveldb@@QAE@PBVComparator@2@PAPAVIterator@2@H@Z 1001e150 f   leveldb:merger.obj
 0001:0001d2c0       ?Valid@MergingIterator@?A0x8740a436@leveldb@@UBE_NXZ 1001e2c0 f   leveldb:merger.obj
 0001:0001d2d0       ?SeekToFirst@MergingIterator@?A0x8740a436@leveldb@@UAEXXZ 1001e2d0 f   leveldb:merger.obj
 0001:0001d350       ?SeekToLast@MergingIterator@?A0x8740a436@leveldb@@UAEXXZ 1001e350 f   leveldb:merger.obj
 0001:0001d3d0       ?Seek@MergingIterator@?A0x8740a436@leveldb@@UAEXABVSlice@3@@Z 1001e3d0 f   leveldb:merger.obj
 0001:0001d460       ?Next@MergingIterator@?A0x8740a436@leveldb@@UAEXXZ 1001e460 f   leveldb:merger.obj
 0001:0001d5c0       ?Prev@MergingIterator@?A0x8740a436@leveldb@@UAEXXZ 1001e5c0 f   leveldb:merger.obj
 0001:0001d760       ?key@MergingIterator@?A0x8740a436@leveldb@@UBE?AVSlice@3@XZ 1001e760 f   leveldb:merger.obj
 0001:0001d7c0       ?value@MergingIterator@?A0x8740a436@leveldb@@UBE?AVSlice@3@XZ 1001e7c0 f   leveldb:merger.obj
 0001:0001d820       ?status@MergingIterator@?A0x8740a436@leveldb@@UBE?AVStatus@3@XZ 1001e820 f   leveldb:merger.obj
 0001:0001d9c0       ?FindSmallest@MergingIterator@?A0x8740a436@leveldb@@AAEXXZ 1001e9c0 f   leveldb:merger.obj
 0001:0001da80       ?FindLargest@MergingIterator@?A0x8740a436@leveldb@@AAEXXZ 1001ea80 f   leveldb:merger.obj
 0001:0001dd60       ?TotalFileSize@leveldb@@YA_JABV?$vector@PAUFileMetaData@leveldb@@V?$allocator@PAUFileMetaData@leveldb@@@std@@@std@@@Z 1001ed60 f   leveldb:version_set.obj
 0001:0001dfd0       ?BeforeFile@leveldb@@YA_NPBVComparator@1@PBVSlice@1@PBUFileMetaData@1@@Z 1001efd0 f   leveldb:version_set.obj
 0001:0001e4c0       ?GetFileIterator@leveldb@@YAPAVIterator@1@PAXABUReadOptions@1@ABVSlice@1@@Z 1001f4c0 f   leveldb:version_set.obj
 0001:0001e8f0       ?SaveValue@leveldb@@YAXPAXABVSlice@1@1@Z 1001f8f0 f   leveldb:version_set.obj
 0001:0001e9a0       ?NewestFirst@leveldb@@YA_NPAUFileMetaData@1@0@Z 1001f9a0 f   leveldb:version_set.obj
 0001:00022360       ?Corruption@LogReporter@?1??Recover@VersionSet@leveldb@@QAE?AVStatus@4@XZ@UAEXIABV54@@Z 10023360 f   leveldb:version_set.obj
 0001:00025b00       ?DeleteEntry@leveldb@@YAXABVSlice@1@PAX@Z 10026b00 f   leveldb:table_cache.obj
 0001:00025b40       ?UnrefEntry@leveldb@@YAXPAX0@Z 10026b40 f   leveldb:table_cache.obj
 0001:00025b40       ?ReleaseBlock@leveldb@@YAXPAX0@Z 10026b40 f   leveldb:table.obj
 0001:00026910       ?GetInternalKey@leveldb@@YA_NPAVSlice@1@PAVInternalKey@1@@Z 10027910 f   leveldb:version_edit.obj
 0001:00026f08       $LN639                     10027f08     leveldb:version_edit.obj
 0001:00027420       $LN233                     10028420     leveldb:log_reader.obj
 0001:00027c50       ?Valid@EmptyIterator@?A0x04dd5dd9@leveldb@@UBE_NXZ 10028c50 f   leveldb:iterator.obj
 0001:00027c60       ?Seek@EmptyIterator@?A0x04dd5dd9@leveldb@@UAEXABVSlice@3@@Z 10028c60 f   leveldb:iterator.obj
 0001:00027c70       ?Next@EmptyIterator@?A0x04dd5dd9@leveldb@@UAEXXZ 10028c70 f   leveldb:iterator.obj
 0001:00027c90       ?Prev@EmptyIterator@?A0x04dd5dd9@leveldb@@UAEXXZ 10028c90 f   leveldb:iterator.obj
 0001:00027cb0       ?key@EmptyIterator@?A0x04dd5dd9@leveldb@@UBE?AVSlice@3@XZ 10028cb0 f   leveldb:iterator.obj
 0001:00027ce0       ?value@EmptyIterator@?A0x04dd5dd9@leveldb@@UBE?AVSlice@3@XZ 10028ce0 f   leveldb:iterator.obj
 0001:00027d10       ?status@EmptyIterator@?A0x04dd5dd9@leveldb@@UBE?AVStatus@3@XZ 10028d10 f   leveldb:iterator.obj
 0001:00027f90       ??0DBIter@?A0xc18d0d05@leveldb@@QAE@PAVDBImpl@2@PBVComparator@2@PAVIterator@2@_KI@Z 10028f90 f   leveldb:db_iter.obj
 0001:000280b0       ??1DBIter@?A0xc18d0d05@leveldb@@UAE@XZ 100290b0 f   leveldb:db_iter.obj
 0001:00028190       ?Valid@DBIter@?A0xc18d0d05@leveldb@@UBE_NXZ 10029190 f   leveldb:db_iter.obj
 0001:000281a0       ?key@DBIter@?A0xc18d0d05@leveldb@@UBE?AVSlice@3@XZ 100291a0 f   leveldb:db_iter.obj
 0001:00028230       ?value@DBIter@?A0xc18d0d05@leveldb@@UBE?AVSlice@3@XZ 10029230 f   leveldb:db_iter.obj
 0001:000282b0       ?status@DBIter@?A0xc18d0d05@leveldb@@UBE?AVStatus@3@XZ 100292b0 f   leveldb:db_iter.obj
 0001:00028360       ?ClearSavedValue@DBIter@?A0xc18d0d05@leveldb@@AAEXXZ 10029360 f   leveldb:db_iter.obj
 0001:00028470       ?ParseKey@DBIter@?A0xc18d0d05@leveldb@@AAE_NPAUParsedInternalKey@3@@Z 10029470 f   leveldb:db_iter.obj
 0001:00028730       ?Next@DBIter@?A0xc18d0d05@leveldb@@UAEXXZ 10029730 f   leveldb:db_iter.obj
 0001:00028800       ?FindNextUserEntry@DBIter@?A0xc18d0d05@leveldb@@AAEX_NPAV?$basic_string@DU?$char_traits@D@std@@V?$allocator@D@2@@std@@@Z 10029800 f   leveldb:db_iter.obj
 0001:00028940       ?Prev@DBIter@?A0xc18d0d05@leveldb@@UAEXXZ 10029940 f   leveldb:db_iter.obj
 0001:00028ab0       ?FindPrevUserEntry@DBIter@?A0xc18d0d05@leveldb@@AAEXXZ 10029ab0 f   leveldb:db_iter.obj
 0001:00028cf0       ?Seek@DBIter@?A0xc18d0d05@leveldb@@UAEXABVSlice@3@@Z 10029cf0 f   leveldb:db_iter.obj
 0001:00028db0       ?SeekToFirst@DBIter@?A0xc18d0d05@leveldb@@UAEXXZ 10029db0 f   leveldb:db_iter.obj
 0001:00028e00       ?SeekToLast@DBIter@?A0xc18d0d05@leveldb@@UAEXXZ 10029e00 f   leveldb:db_iter.obj
 0001:0002a260       ?Name@BytewiseComparatorImpl@?A0x930b007a@leveldb@@UBEPBDXZ 1002b260 f   leveldb:comparator.obj
 0001:0002a270       ?Compare@BytewiseComparatorImpl@?A0x930b007a@leveldb@@UBEHABVSlice@3@0@Z 1002b270 f   leveldb:comparator.obj
 0001:0002a280       ?FindShortestSeparator@BytewiseComparatorImpl@?A0x930b007a@leveldb@@UBEXPAV?$basic_string@DU?$char_traits@D@std@@V?$allocator@D@2@@std@@ABVSlice@3@@Z 1002b280 f   leveldb:comparator.obj
 0001:0002a3d0       ?FindShortSuccessor@BytewiseComparatorImpl@?A0x930b007a@leveldb@@UBEXPAV?$basic_string@DU?$char_traits@D@std@@V?$allocator@D@2@@std@@@Z 1002b3d0 f   leveldb:comparator.obj
 0001:0002a4a0       ?InitModule@leveldb@@YAXXZ 1002b4a0 f   leveldb:comparator.obj
 0001:0002a590       ?IOError@leveldb@@YA?AVStatus@1@ABV?$basic_string@DU?$char_traits@D@std@@V?$allocator@D@2@@std@@K@Z 1002b590 f   leveldb:env_win.obj
 0001:0002b030       ?ToWcharPermissive@?A0xea59645f@leveldb@@YAPA_WPBD@Z 1002c030 f   leveldb:env_win.obj
 0001:0002b100       ?WstrJoin@?A0xea59645f@leveldb@@YAPA_WPB_W00@Z 1002c100 f   leveldb:env_win.obj
 0001:0002b200       ??0WinFileLock@?A0xea59645f@leveldb@@QAE@ABV?$basic_string@DU?$char_traits@D@std@@V?$allocator@D@2@@std@@PAX@Z 1002c200 f   leveldb:env_win.obj
 0001:0002b290       ??1WinFileLock@?A0xea59645f@leveldb@@UAE@XZ 1002c290 f   leveldb:env_win.obj
 0001:0002b350       ??1WinEnv@?A0xea59645f@leveldb@@UAE@XZ 1002c350 f   leveldb:env_win.obj
 0001:0002b410       ?NewSequentialFile@WinEnv@?A0xea59645f@leveldb@@UAE?AVStatus@3@ABV?$basic_string@DU?$char_traits@D@std@@V?$allocator@D@2@@std@@PAPAVSequentialFile@3@@Z 1002c410 f   leveldb:env_win.obj
 0001:0002b520       ?NewRandomAccessFile@WinEnv@?A0xea59645f@leveldb@@UAE?AVStatus@3@ABV?$basic_string@DU?$char_traits@D@std@@V?$allocator@D@2@@std@@PAPAVRandomAccessFile@3@@Z 1002c520 f   leveldb:env_win.obj
 0001:0002b630       ?NewWritableFile@WinEnv@?A0xea59645f@leveldb@@UAE?AVStatus@3@ABV?$basic_string@DU?$char_traits@D@std@@V?$allocator@D@2@@std@@PAPAVWritableFile@3@@Z 1002c630 f   leveldb:env_win.obj
 0001:0002b770       ?FileExists@WinEnv@?A0xea59645f@leveldb@@UAE_NABV?$basic_string@DU?$char_traits@D@std@@V?$allocator@D@2@@std@@@Z 1002c770 f   leveldb:env_win.obj
 0001:0002b7f0       ?GetChildren@WinEnv@?A0xea59645f@leveldb@@UAE?AVStatus@3@ABV?$basic_string@DU?$char_traits@D@std@@V?$allocator@D@2@@std@@PAV?$vector@V?$basic_string@DU?$char_traits@D@std@@V?$allocator@D@2@@std@@V?$allocator@V?$basic_string@DU?$char_traits@D@std@@V?$allocator@D@2@@std@@@2@@6@@Z 1002c7f0 f   leveldb:env_win.obj
 0001:0002bae0       ?DeleteFile@WinEnv@?A0xea59645f@leveldb@@UAE?AVStatus@3@ABV?$basic_string@DU?$char_traits@D@std@@V?$allocator@D@2@@std@@@Z 1002cae0 f   leveldb:env_win.obj
 0001:0002bc00       ?GetPathParent@WinEnv@?A0xea59645f@leveldb@@QAEPA_WPB_W@Z 1002cc00 f   leveldb:env_win.obj
 0001:0002bc80       ?CreateDirRecursive@WinEnv@?A0xea59645f@leveldb@@QAE_NPA_W@Z 1002cc80 f   leveldb:env_win.obj
 0001:0002bd40       ?CreateDir@WinEnv@?A0xea59645f@leveldb@@UAE?AVStatus@3@ABV?$basic_string@DU?$char_traits@D@std@@V?$allocator@D@2@@std@@@Z 1002cd40 f   leveldb:env_win.obj
 0001:0002be10       ?DeleteDir@WinEnv@?A0xea59645f@leveldb@@UAE?AVStatus@3@ABV?$basic_string@DU?$char_traits@D@std@@V?$allocator@D@2@@std@@@Z 1002ce10 f   leveldb:env_win.obj
 0001:0002bee0       ?GetFileSize@WinEnv@?A0xea59645f@leveldb@@UAE?AVStatus@3@ABV?$basic_string@DU?$char_traits@D@std@@V?$allocator@D@2@@std@@PA_K@Z 1002cee0 f   leveldb:env_win.obj
 0001:0002c060       ?RenameFile@WinEnv@?A0xea59645f@leveldb@@UAE?AVStatus@3@ABV?$basic_string@DU?$char_traits@D@std@@V?$allocator@D@2@@std@@0@Z 1002d060 f   leveldb:env_win.obj
 0001:0002c240       ?LockFile@WinEnv@?A0xea59645f@leveldb@@UAE?AVStatus@3@ABV?$basic_string@DU?$char_traits@D@std@@V?$allocator@D@2@@std@@PAPAVFileLock@3@@Z 1002d240 f   leveldb:env_win.obj
 0001:0002c3b0       ?UnlockFile@WinEnv@?A0xea59645f@leveldb@@UAE?AVStatus@3@PAVFileLock@3@@Z 1002d3b0 f   leveldb:env_win.obj
 0001:0002c4e0       ?GetTestDirectory@WinEnv@?A0xea59645f@leveldb@@UAE?AVStatus@3@PAV?$basic_string@DU?$char_traits@D@std@@V?$allocator@D@2@@std@@@Z 1002d4e0 f   leveldb:env_win.obj
 0001:0002c6e0       ?NewLogger@WinEnv@?A0xea59645f@leveldb@@UAE?AVStatus@3@ABV?$basic_string@DU?$char_traits@D@std@@V?$allocator@D@2@@std@@PAPAVLogger@3@@Z 1002d6e0 f   leveldb:env_win.obj
 0001:0002c7f0       ?NowMicros@WinEnv@?A0xea59645f@leveldb@@UAE_KXZ 1002d7f0 f   leveldb:env_win.obj
 0001:0002c830       ?SleepForMicroseconds@WinEnv@?A0xea59645f@leveldb@@UAEXH@Z 1002d830 f   leveldb:env_win.obj
 0001:0002c860       ?BGThreadWrapper@WinEnv@?A0xea59645f@leveldb@@CGIPAX@Z 1002d860 f   leveldb:env_win.obj
 0001:0002c890       ??0WinEnv@?A0xea59645f@leveldb@@QAE@XZ 1002d890 f   leveldb:env_win.obj
 0001:0002c970       ?Schedule@WinEnv@?A0xea59645f@leveldb@@UAEXP6AXPAX@Z0@Z 1002d970 f   leveldb:env_win.obj
 0001:0002ca60       ?BGThread@WinEnv@?A0xea59645f@leveldb@@AAEXXZ 1002da60 f   leveldb:env_win.obj
 0001:0002cb30       ?StartThreadWrapper@?A0xea59645f@leveldb@@YGIPAX@Z 1002db30 f   leveldb:env_win.obj
 0001:0002cb60       ?StartThread@WinEnv@?A0xea59645f@leveldb@@UAEXP6AXPAX@Z0@Z 1002db60 f   leveldb:env_win.obj
 0001:0002da10       ?DeleteBlock@leveldb@@YAXPAX0@Z 1002ea10 f   leveldb:table.obj
 0001:0002da40       ?DeleteCachedBlock@leveldb@@YAXABVSlice@1@PAX@Z 1002ea40 f   leveldb:table.obj
 0001:0002e1c0       ?Valid@TwoLevelIterator@?A0xe28d6219@leveldb@@UBE_NXZ 1002f1c0 f   leveldb:two_level_iterator.obj
 0001:0002e1d0       ?key@TwoLevelIterator@?A0xe28d6219@leveldb@@UBE?AVSlice@3@XZ 1002f1d0 f   leveldb:two_level_iterator.obj
 0001:0002e220       ?value@TwoLevelIterator@?A0xe28d6219@leveldb@@UBE?AVSlice@3@XZ 1002f220 f   leveldb:two_level_iterator.obj
 0001:0002e270       ?status@TwoLevelIterator@?A0xe28d6219@leveldb@@UBE?AVStatus@3@XZ 1002f270 f   leveldb:two_level_iterator.obj
 0001:0002e3d0       ?SaveError@TwoLevelIterator@?A0xe28d6219@leveldb@@AAEXABVStatus@3@@Z 1002f3d0 f   leveldb:two_level_iterator.obj
 0001:0002e430       ??0TwoLevelIterator@?A0xe28d6219@leveldb@@QAE@PAVIterator@2@P6APAV32@PAXABUReadOptions@2@ABVSlice@2@@Z12@Z 1002f430 f   leveldb:two_level_iterator.obj
 0001:0002e530       ??1TwoLevelIterator@?A0xe28d6219@leveldb@@UAE@XZ 1002f530 f   leveldb:two_level_iterator.obj
 0001:0002e5f0       ?Seek@TwoLevelIterator@?A0xe28d6219@leveldb@@UAEXABVSlice@3@@Z 1002f5f0 f   leveldb:two_level_iterator.obj
 0001:0002e6a0       ?SeekToFirst@TwoLevelIterator@?A0xe28d6219@leveldb@@UAEXXZ 1002f6a0 f   leveldb:two_level_iterator.obj
 0001:0002e740       ?SeekToLast@TwoLevelIterator@?A0xe28d6219@leveldb@@UAEXXZ 1002f740 f   leveldb:two_level_iterator.obj
 0001:0002e7e0       ?Next@TwoLevelIterator@?A0xe28d6219@leveldb@@UAEXXZ 1002f7e0 f   leveldb:two_level_iterator.obj
 0001:0002e860       ?Prev@TwoLevelIterator@?A0xe28d6219@leveldb@@UAEXXZ 1002f860 f   leveldb:two_level_iterator.obj
 0001:0002e8e0       ?SkipEmptyDataBlocksForward@TwoLevelIterator@?A0xe28d6219@leveldb@@AAEXXZ 1002f8e0 f   leveldb:two_level_iterator.obj
 0001:0002ea20       ?SkipEmptyDataBlocksBackward@TwoLevelIterator@?A0xe28d6219@leveldb@@AAEXXZ 1002fa20 f   leveldb:two_level_iterator.obj
 0001:0002eb60       ?SetDataIterator@TwoLevelIterator@?A0xe28d6219@leveldb@@AAEXPAVIterator@3@@Z 1002fb60 f   leveldb:two_level_iterator.obj
 0001:0002ec30       ?InitDataBlock@TwoLevelIterator@?A0xe28d6219@leveldb@@AAEXXZ 1002fc30 f   leveldb:two_level_iterator.obj
 0001:000304b0       ?DecodeEntry@leveldb@@YAPBDPBD0PAI11@Z 100314b0 f   leveldb:block.obj
 0001:00031160       ?IncrementalCopy@snappy@@YAXPBDPADJ@Z 10032160 f   snappy:snappy.obj
 0001:000311a0       ?IncrementalCopyFastPath@?A0x518e962b@snappy@@YAXPBDPADJ@Z 100321a0 f   snappy:snappy.obj
 0001:000311f0       ?EmitLiteral@snappy@@YAPADPADPBDH_N@Z 100321f0 f   snappy:snappy.obj
 0001:000312b0       ?EmitCopyLessThan64@snappy@@YAPADPADIH@Z 100322b0 f   snappy:snappy.obj
 0001:00031380       ?EmitCopy@snappy@@YAPADPADIH@Z 10032380 f   snappy:snappy.obj
 0001:00031eb0       ??$InternalUncompress@VSnappyArrayWriter@snappy@@@snappy@@YA_NPAVSource@0@PAVSnappyArrayWriter@0@@Z 10032eb0 f   snappy:snappy.obj
 0001:0003272e       ?find_pe_section@@YAPAU_IMAGE_SECTION_HEADER@@QAEI@Z 1003372e f   LIBCMT:utility.obj
 0001:00032a7a       ?dllmain_crt_dispatch@@YGHQAUHINSTANCE__@@KQAX@Z 10033a7a f   LIBCMT:dll_dllmain.obj
 0001:00032acd       ?dllmain_crt_process_attach@@YAHQAUHINSTANCE__@@QAX@Z 10033acd f   LIBCMT:dll_dllmain.obj
 0001:00032bdf       ?dllmain_crt_process_detach@@YAH_N@Z 10033bdf f   LIBCMT:dll_dllmain.obj
 0001:00032c5c       ?dllmain_dispatch@@YAHQAUHINSTANCE__@@KQAX@Z 10033c5c f   LIBCMT:dll_dllmain.obj
 0001:00032d58       ?dllmain_raw@@YGHQAUHINSTANCE__@@KQAX@Z 10033d58 f   LIBCMT:dll_dllmain.obj
 0001:00033390       $$000000                   10034390     LIBCMT:_sehprolg4_.obj
 0001:00033560       $$000000                   10034560     libvcruntime:memmove.obj
 0001:000337c4       TrailingUpVec              100347c4     libvcruntime:memmove.obj
 0001:00033870       TrailingDownVec            10034870     libvcruntime:memmove.obj
 0001:00033ae0       $$000000                   10034ae0     libvcruntime:strrchr.obj
 0001:00033d70       _ValidateLocalCookies      10034d70 f   libvcruntime:_chandler4_.obj
 0001:00033f20       $$000000                   10034f20     libvcruntime:memset.obj
 0001:000342be       ?try_get_function@@YAPAXW4function_id@?A0x89697e75@@QBDQBW4module_id@2@2@Z 100352be f   libvcruntime:winapi_downlevel.obj
 0001:0003435e       ?try_get_module@@YAPAUHINSTANCE__@@W4module_id@?A0x89697e75@@@Z 1003535e f   libvcruntime:winapi_downlevel.obj
 0001:00034580       $$000000                   10035580     libvcruntime:_exsup4_.obj
 0001:00034610       __unwind_handler4          10035610 f   libvcruntime:_exsup4_.obj
 0001:000346e0       $$000000                   100356e0     libvcruntime:_exsup_.obj
 0001:00034700       __unwind_handler           10035700 f   libvcruntime:_exsup_.obj
 0001:00034817       ??$common_assert_to_message_box@_W@@YAXQB_W0IQAX@Z 10035817 f   libucrt:assert.obj
 0001:000348b3       ??$common_assert_to_message_box_build_string@_W@@YAXQA_WIQB_W1IQAX@Z 100358b3 f   libucrt:assert.obj
 0001:00034df8       ??$common_assert_to_stderr@_W@@YAXQB_W0I@Z 10035df8 f   libucrt:assert.obj
 0001:00034ea3       ?common_assert_to_stderr_direct@@YAXQB_W0I@Z 10035ea3 f   libucrt:assert.obj
 0001:00034f54       ?get_assert_format@@YAPB_W_W@Z 10035f54 f   libucrt:assert.obj
 0001:0003552c       ??$common_vsnprintf_s@D@@YAH_KQADIIQBDQAU__crt_locale_pointers@@1@Z 1003652c f   libucrt:output.obj
 0001:00035630       ??$common_vsprintf@Vformat_validation_base@__crt_stdio_output@@D@@YAH_KQADIQBDQAU__crt_locale_pointers@@1@Z 10036630 f   libucrt:output.obj
 0001:000357ac       ??$common_vsprintf@Vstandard_base@__crt_stdio_output@@D@@YAH_KQADIQBDQAU__crt_locale_pointers@@1@Z 100367ac f   libucrt:output.obj
 0001:00035928       ??$common_vsprintf@Vstandard_base@__crt_stdio_output@@_W@@YAH_KQA_WIQB_WQAU__crt_locale_pointers@@QAD@Z 10036928 f   libucrt:output.obj
 0001:00035f62       ??R<lambda_481dd5778c961fbcd3b60b650e9b9dc4>@@QBEHXZ 10036f62 f   libucrt:output.obj
 0001:0003601f       ??R<lambda_4f2c1eaeead2a5fc776db5b62ea0fb9b>@@QBEHXZ 1003701f f   libucrt:output.obj
 0001:000363e0       $LN54                      100373e0     libucrt:output.obj
 0001:00036508       $LN52                      10037508     libucrt:output.obj
 0001:00036624       $LN54                      10037624     libucrt:output.obj
 0001:00036744       $LN54                      10037744     libucrt:output.obj
 0001:00036864       $LN54                      10037864     libucrt:output.obj
 0001:00037a7c       $LN19                      10038a7c     libucrt:output.obj
 0001:00038bdf       ??$thread_start@P6GIPAX@Z@@YGKQAX@Z 10039bdf f   libucrt:thread.obj
 0001:00038c93       ?common_end_thread@@YAXI@Z 10039c93 f   libucrt:thread.obj
 0001:00038cea       ?create_thread_parameter@@YAPAU__acrt_thread_parameter@@QAX0@Z 10039cea f   libucrt:thread.obj
 0001:00038dc6       ??$common_fsopen@D@@YAPAU_iobuf@@QBD0H@Z 10039dc6 f   libucrt:fopen.obj
 0001:00039020       ??$common_strerror@D@@YAPADH@Z 1003a020 f   libucrt:strerror.obj
 0001:00039181       _common_flush_all          1003a181 f   libucrt:fflush.obj
 0001:0003932b       ??R<lambda_b51c0495177f500e782686251704ae76>@@QBEIXZ 1003a32b f   libucrt:fwrite.obj
 0001:0003977f       ?atexit_exception_filter@@YAHK@Z 1003a77f f   libucrt:exit.obj
 0001:00039792       ?common_exit@@YAXHW4_crt_exit_cleanup_mode@@W4_crt_exit_return_mode@@@Z 1003a792 f   libucrt:exit.obj
 0001:000398ab       ?exit_or_terminate_process@@YAXI@Z 1003a8ab f   libucrt:exit.obj
 0001:000398ec       ?is_managed_app@@YA_NXZ    1003a8ec f   libucrt:exit.obj
 0001:00039930       ?try_cor_exit_process@@YAXI@Z 1003a930 f   libucrt:exit.obj
 0001:000399d4       ??$common_configure_argv@D@@YAHW4_crt_argv_mode@@@Z 1003a9d4 f   libucrt:argv_parsing.obj
 0001:00039af8       ??$parse_command_line@D@@YAXPADPAPAD0PAI2@Z 1003aaf8 f   libucrt:argv_parsing.obj
 0001:00039ccd       ??$common_initialize_environment_nolock@D@@YAHXZ 1003accd f   libucrt:environment_initialization.obj
 0001:00039d26       ??$create_environment@D@@YAQAPADQAD@Z 1003ad26 f   libucrt:environment_initialization.obj
 0001:00039df7       ??$free_environment@_W@@YAXQAPA_W@Z 1003adf7 f   libucrt:environment_initialization.obj
 0001:00039df7       ??$free_environment@D@@YAXQAPAD@Z 1003adf7 f   libucrt:environment_initialization.obj
 0001:00039e66       ??$uninitialize_environment_internal@D@@YAXAAPAPAD@Z 1003ae66 f   libucrt:environment_initialization.obj
 0001:00039e81       ??$uninitialize_environment_internal@_W@@YAXAAPAPA_W@Z 1003ae81 f   libucrt:environment_initialization.obj
 0001:00039fe9       ??R<lambda_275893d493268fdec8709772e3fcec0e>@@QBEHXZ 1003afe9 f   libucrt:onexit.obj
 0001:0003a109       ??R<lambda_4e60a939b0d047cfe11ddc22648dfba9>@@QBEHXZ 1003b109 f   libucrt:onexit.obj
 0001:0003a2de       _initialize_global_variables 1003b2de f   libucrt:initialization.obj
 0001:0003a2f0       _initialize_c              1003b2f0 f   libucrt:initialization.obj
 0001:0003a30a       _uninitialize_environment  1003b30a f   libucrt:initialization.obj
 0001:0003a312       _uninitialize_c            1003b312 f   libucrt:initialization.obj
 0001:0003a312       _report_memory_leaks       1003b312 f   libucrt:initialization.obj
 0001:0003a312       _initialize_global_state_isolation 1003b312 f   libucrt:initialization.obj
 0001:0003a312       _uninitialize_global_state_isolation 1003b312 f   libucrt:initialization.obj
 0001:0003a312       _initialize_environment    1003b312 f   libucrt:initialization.obj
 0001:0003a315       _initialize_pointers       1003b315 f   libucrt:initialization.obj
 0001:0003a352       _uninitialize_vcruntime    1003b352 f   libucrt:initialization.obj
 0001:0003a35b       _uninitialize_allocated_memory 1003b35b f   libucrt:initialization.obj
 0001:0003b049       ??$common_xtox@K_W@@YAHKQA_WII_N@Z 1003c049 f   libucrt:xtoa.obj
 0001:0003b0d7       ??$common_xtox_s@K_W@@YAHKQA_WII_N@Z 1003c0d7 f   libucrt:xtoa.obj
 0001:0003b283       ??$common_tcsncat_s@_W@@YAHQA_WIQB_WI@Z 1003c283 f   libucrt:wcsncat_s.obj
 0001:0003b377       ??$common_show_message_box@_W@@YAHQB_W0I@Z 1003c377 f   libucrt:crtmbox.obj
 0001:0003b450       ??$message_box_wait_thread@_W@@YGKQAX@Z 1003c450 f   libucrt:crtmbox.obj
 0001:0003b4f6       ??R<lambda_b721fa326cdb32351d23dfa67958c160>@@QBEHXZ 1003c4f6 f   libucrt:setvbuf.obj
 0001:0003b590       ?set_buffer@@YAHV__crt_stdio_stream@@QADIH@Z 1003c590 f   libucrt:setvbuf.obj
 0001:0003b6bb       ?get_global_action_nolock@@YAPAP6AXH@ZH@Z 1003c6bb f   libucrt:signal.obj
 0001:0003b6fd       ?siglookup@@YAPAU__crt_signal_action_t@@HQAU1@@Z 1003c6fd f   libucrt:signal.obj
 0001:0003bb6c       ?construct_ptd@@YAXQAU__acrt_ptd@@QAPAU__crt_locale_data@@@Z 1003cb6c f   libucrt:per_thread_data.obj
 0001:0003bbe5       ?destroy_fls@@YGXPAX@Z     1003cbe5 f   libucrt:per_thread_data.obj
 0001:0003bc06       ?destroy_ptd@@YAXQAU__acrt_ptd@@@Z 1003cc06 f   libucrt:per_thread_data.obj
 0001:0003bcaf       ?replace_current_thread_locale_nolock@@YAXQAU__acrt_ptd@@QAU__crt_locale_data@@@Z 1003ccaf f   libucrt:per_thread_data.obj
 0001:0003be75       ??$common_tox_l@$1?internal_isupper_l@@YA_NHQAU__crt_locale_pointers@@@Z$1?internal_map_lower@@YAHH0@Z@@YAHHKQAU__crt_locale_pointers@@@Z 1003ce75 f   libucrt:tolower_toupper.obj
 0001:0003bfbf       ?internal_isupper_l@@YA_NHQAU__crt_locale_pointers@@@Z 1003cfbf f   libucrt:tolower_toupper.obj
 0001:0003c76f       ?fp_format_a@@YAHQBNPADIQADIH_NIQAU__crt_locale_pointers@@@Z 1003d76f f   libucrt:cvt.obj
 0001:0003ca72       ?fp_format_e@@YAHQBNQADI1IH_NIQAU__crt_locale_pointers@@@Z 1003da72 f   libucrt:cvt.obj
 0001:0003cb0d       ?fp_format_e_internal@@YAHQADIH_NIQAU_strflt@@1QAU__crt_locale_pointers@@@Z 1003db0d f   libucrt:cvt.obj
 0001:0003cc58       ?fp_format_f@@YAHQBNQADI1IHQAU__crt_locale_pointers@@@Z 1003dc58 f   libucrt:cvt.obj
 0001:0003cce5       ?fp_format_f_internal@@YAHQADIHQAU_strflt@@_NQAU__crt_locale_pointers@@@Z 1003dce5 f   libucrt:cvt.obj
 0001:0003cdbc       ?fp_format_g@@YAHQBNQADI1IH_NIQAU__crt_locale_pointers@@@Z 1003ddbc f   libucrt:cvt.obj
 0001:0003ce84       ?fp_format_nan_or_infinity@@YAHW4__acrt_fp_class@@_NPADI1@Z 1003de84 f   libucrt:cvt.obj
 0001:0003cf7c       ?shift_bytes@@YAXQADI0H@Z  1003df7c f   libucrt:cvt.obj
 0001:0003d0fa       ?fputwc_binary_nolock@@YAG_WV__crt_stdio_stream@@@Z 1003e0fa f   libucrt:fputwc.obj
 0001:0003d3a4       ?initialize_inherited_file_handles_nolock@@YAXXZ 1003e3a4 f   libucrt:ioinit.obj
 0001:0003d45a       ?initialize_stdio_handles_nolock@@YAXXZ 1003e45a f   libucrt:ioinit.obj
 0001:0003d592       ?try_get_MessageBoxA@@YAP6GHPAUHWND__@@PBD1I@ZXZ 1003e592 f   libucrt:winapi_thunks.obj
 0001:0003d5ac       ?try_get_MessageBoxW@@YAP6GHPAUHWND__@@PB_W1I@ZXZ 1003e5ac f   libucrt:winapi_thunks.obj
 0001:0003d5c6       ?try_get_function@@YAPAXW4function_id@?A0x352e5c4b@@QBDQBW4module_id@2@2@Z 1003e5c6 f   libucrt:winapi_thunks.obj
 0001:0003d662       ?try_get_module@@YAPAUHINSTANCE__@@W4module_id@?A0x352e5c4b@@@Z 1003e662 f   libucrt:winapi_thunks.obj
 0001:0003de49       ?find_or_allocate_unused_stream_nolock@@YA?AV__crt_stdio_stream@@XZ 1003ee49 f   libucrt:stream.obj
 0001:0003e13e       ??$common_openfile@D@@YAPAU_iobuf@@QBD0HV__crt_stdio_stream@@@Z 1003f13e f   libucrt:openfile.obj
 0001:0003e492       ??$common_tcsncpy_s@D@@YAHQADIQBDI@Z 1003f492 f   libucrt:strncpy_s.obj
 0001:0003e71d       ?write_double_translated_ansi_nolock@@YA?AUwrite_result@?A0x47fa6670@@HQBDI@Z 1003f71d f   libucrt:write.obj
 0001:0003e8d0       ?write_double_translated_unicode_nolock@@YA?AUwrite_result@?A0x47fa6670@@QBDI@Z 1003f8d0 f   libucrt:write.obj
 0001:0003e93d       ?write_requires_double_translation_nolock@@YA_NH@Z 1003f93d f   libucrt:write.obj
 0001:0003e9b3       ?write_text_ansi_nolock@@YA?AUwrite_result@?A0x47fa6670@@HQBDI@Z 1003f9b3 f   libucrt:write.obj
 0001:0003ea92       ?write_text_utf16le_nolock@@YA?AUwrite_result@?A0x47fa6670@@HQBDI@Z 1003fa92 f   libucrt:write.obj
 0001:0003eb80       ?write_text_utf8_nolock@@YA?AUwrite_result@?A0x47fa6670@@HQBDI@Z 1003fb80 f   libucrt:write.obj
 0001:0003efa4       ??$common_flush_and_write_nolock@D@@YAHHV__crt_stdio_stream@@@Z 1003ffa4 f   libucrt:_flsbuf.obj
 0001:0003f0b5       ??$common_flush_and_write_nolock@_W@@YAHHV__crt_stdio_stream@@@Z 100400b5 f   libucrt:_flsbuf.obj
 0001:0003f1ca       ??$write_buffer_nolock@D@@YA_NDV__crt_stdio_stream@@@Z 100401ca f   libucrt:_flsbuf.obj
 0001:0003f296       ??$write_buffer_nolock@_W@@YA_N_WV__crt_stdio_stream@@@Z 10040296 f   libucrt:_flsbuf.obj
 0001:0003f380       ?<helper_func_cdecl>@<lambda_62bb7ecb46d0a77b591a051c43eb5ad1>@@CAHPBX0@Z 10040380 f   libucrt:argv_wildcards.obj
 0001:0003f398       ??$common_expand_argv_wildcards@D@@YAHQAPADQAPAPAD@Z 10040398 f   libucrt:argv_wildcards.obj
 0001:0003f528       ??$copy_and_add_argument_to_buffer@D@@YAHQBD0IAAV?$argument_list@D@?A0xb0e4b824@@@Z 10040528 f   libucrt:argv_wildcards.obj
 0001:0003f5be       ??$expand_argument_wildcards@D@@YAHQAD0AAV?$argument_list@D@?A0xb0e4b824@@@Z 100405be f   libucrt:argv_wildcards.obj
 0001:0003f899       ??R<lambda_ad1ced32f4ac17aa236e5ef05d6b3b7c>@@QBEXXZ 10040899 f   libucrt:mbctype.obj
 0001:0003f95d       ?CPtoLocaleName@@YAPB_WH@Z 1004095d f   libucrt:mbctype.obj
 0001:0003f99b       ?getSystemCP@@YAHH@Z       1004099b f   libucrt:mbctype.obj
 0001:0003fa0e       ?setSBCS@@YAXPAU__crt_multibyte_data@@@Z 10040a0e f   libucrt:mbctype.obj
 0001:0003fa73       ?setSBUpLow@@YAXPAU__crt_multibyte_data@@@Z 10040a73 f   libucrt:mbctype.obj
 0001:0003fc07       ?setmbcp_internal@@YAHH_N@Z 10040c07 f   libucrt:mbctype.obj
 0001:0003ffb9       _memcpy_s                  10040fb9 f   libucrt:cfout.obj
 0001:0003ffb9       _memcpy_s                  10040fb9 f   libucrt:assert.obj
 0001:0003ffb9       _memcpy_s                  10040fb9 f   libucrt:mbctype.obj
 0001:0004003a       ?x_ismbbtype_l@@YAHPAU__crt_locale_pointers@@IHH@Z 1004103a f   libucrt:ismbbyte.obj
 0001:000400c4       ?find_end_of_double_null_terminated_sequence@@YAPB_WQB_W@Z 100410c4 f   libucrt:get_environment_from_os.obj
 0001:0004087e       ?__acrt_LCMapStringA_stat@@YAHPAU__crt_locale_pointers@@PB_WKPBDHPADHHH@Z 1004187e f   libucrt:lcmapstringa.obj
 0001:00040c6d       ?free_crt_array_internal@@YAXQAPBXI@Z 10041c6d f   libucrt:inittime.obj
 0001:00042c5e       ?GetTableIndexFromLocaleName@@YAHPB_W@Z 10043c5e f   libucrt:lcidtoname_downlevel.obj
 0001:00042d50       $$000000                   10043d50     libucrt:strncmp.obj
 0001:00042eeb       ??$common_sopen_dispatch@D@@YAHQBDHHHQAHH@Z 10043eeb f   libucrt:open.obj
 0001:00042fb7       ?configure_text_mode@@YAHHUfile_options@?A0x704126de@@HAAW4__crt_lowio_text_mode@@@Z 10043fb7 f   libucrt:open.obj
 0001:00043204       ?create_file@@YAPAXQB_WQAU_SECURITY_ATTRIBUTES@@Ufile_options@?A0x704126de@@@Z 10044204 f   libucrt:open.obj
 0001:00043229       ?decode_open_create_flags@@YAKH@Z 10044229 f   libucrt:open.obj
 0001:00043299       ?decode_options@@YA?AUfile_options@?A0x704126de@@HHH@Z 10044299 f   libucrt:open.obj
 0001:00043415       ?truncate_ctrl_z_if_present@@YAHH@Z 10044415 f   libucrt:open.obj
 0001:0004385f       ??$common_lseek@_J@@YA_JH_JH@Z 1004485f f   libucrt:lseek.obj
 0001:00043964       ??$common_lseek_nolock@_J@@YA_JH_JH@Z 10044964 f   libucrt:lseek.obj
 0001:00043ac0       ?shortsort@@YAXPAD0IP6AHPBX1@Z@Z 10044ac0 f   libucrt:qsort.obj
 0001:00043b60       ?swap@@YAXPAD0I@Z          10044b60 f   libucrt:qsort.obj
 0001:00043f40       $$000000                   10044f40     libucrt:strpbrk.obj
 0001:00044024       ?initialize_multibyte@@YAHXZ 10045024 f   libucrt:multibyte_initializer.obj
 0001:000441a0       $$000000                   100451a0     libucrt:log10.obj
 0001:000442f0       $$000000                   100452f0     libucrt:ceil_pentium4.obj
 0001:00044410       $$000000                   10045410     libucrt:_strnicm.obj
 0001:000447c6       ??$translate_text_mode_nolock@D@@YAHHQADI@Z 100457c6 f   libucrt:read.obj
 0001:0004491d       ??$translate_text_mode_nolock@_W@@YAHHQA_WI@Z 1004591d f   libucrt:read.obj
 0001:00044add       ?translate_ansi_or_utf8_nolock@@YAHHQADIQA_WI@Z 10045add f   libucrt:read.obj
 0001:00044c2d       ?translate_utf16_from_console_nolock@@YAHHQA_WI@Z 10045c2d f   libucrt:read.obj
 0001:00045099       ___get_abstract_control_sse2 10046099 f   libucrt:_fenvutils.obj
 0001:00045116       ___get_abstract_control_x87 10046116 f   libucrt:_fenvutils.obj
 0001:00045189       ___get_machine_control     10046189 f   libucrt:_fenvutils.obj
 0001:000451fa       ___get_machine_control_sse2 100461fa f   libucrt:_fenvutils.obj
 0001:0004527a       ___get_machine_status_sse2 1004627a f   libucrt:_fenvutils.obj
 0001:000452db       ___get_machine_status_x87  100462db f   libucrt:_fenvutils.obj
 0001:00045620       $$000000                   10046620     libucrt:log10_pentium4.obj
 0001:000458b0       $$000000                   100468b0     libucrt:87tran.obj
 0001:00045ab0       $$000000                   10046ab0     libucrt:87disp.obj
 0001:00045cb0       $$000000                   10046cb0     libucrt:common.obj
 0001:00045e40       $$000000                   10046e40     libucrt:genexcep.obj
 0001:000474d0       $$000000                   100484d0     LIBCMT:ulldvrm.obj
 0001:00047570       $$000000                   10048570     LIBCMT:_sehprolg4gs_.obj
 0001:000475d0       $$000000                   100485d0     LIBCMT:llmul.obj
 0001:00047610       $$000000                   10048610     LIBCMT:lldvrm.obj
 0001:000476f0       $$000000                   100486f0     LIBCMT:ullshr.obj
 0001:00047710       $$000000                   10048710     LIBCMT:chkstk.obj
 0001:00047740       $$000000                   10048740     LIBCMT:alloca16.obj
 0001:00047770       $$000000                   10048770     LIBCMT:llshl.obj
 0001:00047790       $$000000                   10048790     LIBCMT:_ftol2_.obj
 0001:00047850       $$000000                   10048850     libvcruntime:memcpy.obj
 0001:00047ab4       TrailingUpVec              10048ab4     libvcruntime:memcpy.obj
 0001:00047b60       TrailingDownVec            10048b60     libvcruntime:memcpy.obj
 0001:00047dd0       $$000000                   10048dd0     libvcruntime:strchr.obj
 0001:00047f00       $$000000                   10048f00     LIBCMT:lldiv.obj
 0001:00047fb0       $$000000                   10048fb0     LIBCMT:_ftol3_.obj
 0001:00048700       $$000000                   10049700     libvcruntime:lowhelpr.obj
 0001:00048813       ?CallCatchBlock@@YAPAXPAUEHExceptionRecord@@PAUEHRegistrationNode@@PAU_CONTEXT@@PBU_s_FuncInfo@@PAXHK@Z 10049813 f   libvcruntime:frame.obj
 0001:000489cf       ?CallUnexpected@@YAXPBU_s_ESTypeList@@@Z 100499cf f   libvcruntime:frame.obj
 0001:000489ef       __catch$?CallUnexpected@@YAXPBU_s_ESTypeList@@@Z$0 100499ef f   libvcruntime:frame.obj
 0001:00048a09       ?CatchIt@@YAXPAUEHExceptionRecord@@PAUEHRegistrationNode@@PAU_CONTEXT@@PAXPBU_s_FuncInfo@@PBU_s_HandlerType@@PBU_s_CatchableType@@PBU_s_TryBlockMapEntry@@H1E@Z 10049a09 f   libvcruntime:frame.obj
 0001:00048a84       ?ExFilterRethrow@@YAHPAU_EXCEPTION_POINTERS@@@Z 10049a84 f   libvcruntime:frame.obj
 0001:00048ace       ?FindHandler@@YAXPAUEHExceptionRecord@@PAUEHRegistrationNode@@PAU_CONTEXT@@PAXPBU_s_FuncInfo@@EH1@Z 10049ace f   libvcruntime:frame.obj
 0001:00048e36       ?FindHandlerForForeignException@@YAXPAUEHExceptionRecord@@PAUEHRegistrationNode@@PAU_CONTEXT@@PAXPBU_s_FuncInfo@@HH1@Z 10049e36 f   libvcruntime:frame.obj
 0001:00048f51       ?IsInExceptionSpec@@YAEPAUEHExceptionRecord@@PBU_s_ESTypeList@@@Z 10049f51 f   libvcruntime:frame.obj
 0001:00048fed       ?Is_bad_exception_allowed@@YAEPBU_s_ESTypeList@@@Z 10049fed f   libvcruntime:frame.obj
 0001:00049500       __unwindfunclet$?New@?$Factory@VFunctionTemplate@v8@@@imp@Nan@@SA?AV?$Local@VFunctionTemplate@v8@@@v8@@P6AXABV?$FunctionCallbackInfo@VValue@v8@@@3@@ZV?$Local@VValue@v8@@@5@V?$Local@VSignature@v8@@@5@@Z$0 1004a500 f   batch.obj
 0001:00049509       __unwindfunclet$?New@?$Factory@VFunctionTemplate@v8@@@imp@Nan@@SA?AV?$Local@VFunctionTemplate@v8@@@v8@@P6AXABV?$FunctionCallbackInfo@VValue@v8@@@3@@ZV?$Local@VValue@v8@@@5@V?$Local@VSignature@v8@@@5@@Z$1 1004a509 f   batch.obj
 0001:00049512       __ehhandler$?New@?$Factory@VFunctionTemplate@v8@@@imp@Nan@@SA?AV?$Local@VFunctionTemplate@v8@@@v8@@P6AXABV?$FunctionCallbackInfo@VValue@v8@@@3@@ZV?$Local@VValue@v8@@@5@V?$Local@VSignature@v8@@@5@@Z 1004a512 f   batch.obj
 0001:00049530       __unwindfunclet$??1EscapableHandleScope@Nan@@QAE@XZ$0 1004a530 f   batch.obj
 0001:00049539       __unwindfunclet$??1EscapableHandleScope@Nan@@QAE@XZ$1 1004a539 f   batch.obj
 0001:00049542       __ehhandler$??1EscapableHandleScope@Nan@@QAE@XZ 1004a542 f   batch.obj
 0001:00049560       __unwindfunclet$??1HandleScope@Nan@@QAE@XZ$0 1004a560 f   batch.obj
 0001:00049569       __ehhandler$??1HandleScope@Nan@@QAE@XZ 1004a569 f   batch.obj
 0001:00049590       __unwindfunclet$??0Callback@Nan@@QAE@ABV?$Local@VFunction@v8@@@v8@@@Z$2 1004a590 f   batch.obj
 0001:00049595       __unwindfunclet$??0Callback@Nan@@QAE@ABV?$Local@VFunction@v8@@@v8@@@Z$0 1004a595 f   batch.obj
 0001:0004959a       __unwindfunclet$??0Callback@Nan@@QAE@ABV?$Local@VFunction@v8@@@v8@@@Z$3 1004a59a f   batch.obj
 0001:000495a3       __unwindfunclet$??0Callback@Nan@@QAE@ABV?$Local@VFunction@v8@@@v8@@@Z$1 1004a5a3 f   batch.obj
 0001:000495ab       __unwindfunclet$??0Callback@Nan@@QAE@ABV?$Local@VFunction@v8@@@v8@@@Z$4 1004a5ab f   batch.obj
 0001:000495b4       __ehhandler$??0Callback@Nan@@QAE@ABV?$Local@VFunction@v8@@@v8@@@Z 1004a5b4 f   batch.obj
 0001:000495d0       __unwindfunclet$?WorkComplete@WriteWorker@leveldown@@UAEXXZ$1 1004a5d0 f   database_async.obj
 0001:000495d0       __unwindfunclet$?SetFunction@Callback@Nan@@QAEXABV?$Local@VFunction@v8@@@v8@@@Z$1 1004a5d0 f   batch.obj
 0001:000495d0       __unwindfunclet$?WorkComplete@IOWorker@leveldown@@UAEXXZ$1 1004a5d0 f   database_async.obj
 0001:000495d9       __unwindfunclet$?SetFunction@Callback@Nan@@QAEXABV?$Local@VFunction@v8@@@v8@@@Z$0 1004a5d9 f   batch.obj
 0001:000495d9       __unwindfunclet$?WorkComplete@IOWorker@leveldown@@UAEXXZ$0 1004a5d9 f   database_async.obj
 0001:000495d9       __unwindfunclet$?WorkComplete@WriteWorker@leveldown@@UAEXXZ$0 1004a5d9 f   database_async.obj
 0001:000495e1       __unwindfunclet$?SetFunction@Callback@Nan@@QAEXABV?$Local@VFunction@v8@@@v8@@@Z$2 1004a5e1 f   batch.obj
 0001:000495e1       __unwindfunclet$?WorkComplete@WriteWorker@leveldown@@UAEXXZ$2 1004a5e1 f   database_async.obj
 0001:000495e1       __unwindfunclet$?WorkComplete@IOWorker@leveldown@@UAEXXZ$2 1004a5e1 f   database_async.obj
 0001:000495ea       __ehhandler$?WorkComplete@IOWorker@leveldown@@UAEXXZ 1004a5ea f   database_async.obj
 0001:000495ea       __ehhandler$?SetFunction@Callback@Nan@@QAEXABV?$Local@VFunction@v8@@@v8@@@Z 1004a5ea f   batch.obj
 0001:000495ea       __ehhandler$?WorkComplete@WriteWorker@leveldown@@UAEXXZ 1004a5ea f   database_async.obj
 0001:00049610       __unwindfunclet$??1?$Persistent@VObject@v8@@V?$NonCopyablePersistentTraits@VObject@v8@@@2@@Nan@@QAE@XZ$0 1004a610 f   batch.obj
 0001:00049615       __ehhandler$??1?$Persistent@VObject@v8@@V?$NonCopyablePersistentTraits@VObject@v8@@@2@@Nan@@QAE@XZ 1004a615 f   batch.obj
 0001:00049630       __unwindfunclet$?SaveToPersistent@AsyncWorker@Nan@@QAEXPBDABV?$Local@VValue@v8@@@v8@@@Z$1 1004a630 f   batch.obj
 0001:00049639       __unwindfunclet$?SaveToPersistent@AsyncWorker@Nan@@QAEXPBDABV?$Local@VValue@v8@@@v8@@@Z$0 1004a639 f   batch.obj
 0001:00049641       __unwindfunclet$?SaveToPersistent@AsyncWorker@Nan@@QAEXPBDABV?$Local@VValue@v8@@@v8@@@Z$2 1004a641 f   batch.obj
 0001:0004964a       __ehhandler$?SaveToPersistent@AsyncWorker@Nan@@QAEXPBDABV?$Local@VValue@v8@@@v8@@@Z 1004a64a f   batch.obj
 0001:00049670       __unwindfunclet$?SetPrototypeMethod@Nan@@YAXV?$Local@VFunctionTemplate@v8@@@v8@@PBDP6AXABV?$FunctionCallbackInfo@VValue@v8@@@1@@Z@Z$1 1004a670 f   batch.obj
 0001:00049670       __unwindfunclet$?UInt32OptionValue@leveldown@@YAIV?$Local@VObject@v8@@@v8@@PBDI@Z$1 1004a670 f   database.obj
 0001:00049679       __unwindfunclet$?UInt32OptionValue@leveldown@@YAIV?$Local@VObject@v8@@@v8@@PBDI@Z$0 1004a679 f   database.obj
 0001:00049679       __unwindfunclet$?SetPrototypeMethod@Nan@@YAXV?$Local@VFunctionTemplate@v8@@@v8@@PBDP6AXABV?$FunctionCallbackInfo@VValue@v8@@@1@@Z@Z$0 1004a679 f   batch.obj
 0001:00049681       __unwindfunclet$?SetPrototypeMethod@Nan@@YAXV?$Local@VFunctionTemplate@v8@@@v8@@PBDP6AXABV?$FunctionCallbackInfo@VValue@v8@@@1@@Z@Z$2 1004a681 f   batch.obj
 0001:00049681       __unwindfunclet$?UInt32OptionValue@leveldown@@YAIV?$Local@VObject@v8@@@v8@@PBDI@Z$2 1004a681 f   database.obj
 0001:0004968a       __ehhandler$?SetPrototypeMethod@Nan@@YAXV?$Local@VFunctionTemplate@v8@@@v8@@PBDP6AXABV?$FunctionCallbackInfo@VValue@v8@@@1@@Z@Z 1004a68a f   batch.obj
 0001:0004968a       __ehhandler$?UInt32OptionValue@leveldown@@YAIV?$Local@VObject@v8@@@v8@@PBDI@Z 1004a68a f   database.obj
 0001:000496b0       __unwindfunclet$??1ObjectWrap@Nan@@UAE@XZ$0 1004a6b0 f   batch.obj
 0001:000496b5       __unwindfunclet$??1ObjectWrap@Nan@@UAE@XZ$1 1004a6b5 f   batch.obj
 0001:000496ba       __ehhandler$??1ObjectWrap@Nan@@UAE@XZ 1004a6ba f   batch.obj
 0001:000496e0       __unwindfunclet$?BooleanOptionValue@leveldown@@YA_NV?$Local@VObject@v8@@@v8@@PBD_N@Z$1 1004a6e0 f   batch.obj
 0001:000496e9       __unwindfunclet$?BooleanOptionValue@leveldown@@YA_NV?$Local@VObject@v8@@@v8@@PBD_N@Z$0 1004a6e9 f   batch.obj
 0001:000496f1       __unwindfunclet$?BooleanOptionValue@leveldown@@YA_NV?$Local@VObject@v8@@@v8@@PBD_N@Z$2 1004a6f1 f   batch.obj
 0001:000496fa       __ehhandler$?BooleanOptionValue@leveldown@@YA_NV?$Local@VObject@v8@@@v8@@PBD_N@Z 1004a6fa f   batch.obj
 0001:00049720       __unwindfunclet$??__Fdatabase_constructor@leveldown@@YAXXZ$0 1004a720 f   database.obj
 0001:00049720       __unwindfunclet$??__Fbatch_constructor@leveldown@@YAXXZ$0 1004a720 f   batch.obj
 0001:00049720       __unwindfunclet$??__Fiterator_constructor@leveldown@@YAXXZ$0 1004a720 f   iterator.obj
 0001:00049720       __unwindfunclet$??__Edatabase_constructor@leveldown@@YAXXZ$0 1004a720 f   database.obj
 0001:00049720       __unwindfunclet$??__Eiterator_constructor@leveldown@@YAXXZ$0 1004a720 f   iterator.obj
 0001:00049720       __unwindfunclet$??__Ebatch_constructor@leveldown@@YAXXZ$0 1004a720 f   batch.obj
 0001:00049725       __ehhandler$??__Fbatch_constructor@leveldown@@YAXXZ 1004a725 f   batch.obj
 0001:00049725       __ehhandler$??__Fiterator_constructor@leveldown@@YAXXZ 1004a725 f   iterator.obj
 0001:00049725       __ehhandler$??__Edatabase_constructor@leveldown@@YAXXZ 1004a725 f   database.obj
 0001:00049725       __ehhandler$??__Fdatabase_constructor@leveldown@@YAXXZ 1004a725 f   database.obj
 0001:00049725       __ehhandler$??__Eiterator_constructor@leveldown@@YAXXZ 1004a725 f   iterator.obj
 0001:00049725       __ehhandler$??__Ebatch_constructor@leveldown@@YAXXZ 1004a725 f   batch.obj
 0001:00049740       __unwindfunclet$??0Batch@leveldown@@QAE@PAVDatabase@1@_N@Z$4 1004a740 f   batch.obj
 0001:00049745       __unwindfunclet$??0Batch@leveldown@@QAE@PAVDatabase@1@_N@Z$3 1004a745 f   batch.obj
 0001:0004974a       __unwindfunclet$??0Batch@leveldown@@QAE@PAVDatabase@1@_N@Z$0 1004a74a f   batch.obj
 0001:00049752       __unwindfunclet$??0Batch@leveldown@@QAE@PAVDatabase@1@_N@Z$1 1004a752 f   batch.obj
 0001:00049761       __unwindfunclet$??0Batch@leveldown@@QAE@PAVDatabase@1@_N@Z$2 1004a761 f   batch.obj
 0001:00049770       __ehhandler$??0Batch@leveldown@@QAE@PAVDatabase@1@_N@Z 1004a770 f   batch.obj
 0001:00049790       __unwindfunclet$??1Batch@leveldown@@UAE@XZ$0 1004a790 f   batch.obj
 0001:00049798       __unwindfunclet$??1Batch@leveldown@@UAE@XZ$1 1004a798 f   batch.obj
 0001:000497a0       __ehhandler$??1Batch@leveldown@@UAE@XZ 1004a7a0 f   batch.obj
 0001:000497c0       __unwindfunclet$?Put@DBImpl@leveldb@@UAE?AVStatus@2@ABUWriteOptions@2@ABVSlice@2@1@Z$0 1004a7c0 f   leveldb:db_impl.obj
 0001:000497c0       __unwindfunclet$?status@MemTableIterator@leveldb@@UBE?AVStatus@2@XZ$0 1004a7c0 f   leveldb:memtable.obj
 0001:000497c0       __unwindfunclet$?Write@Batch@leveldown@@QAE?AVStatus@leveldb@@XZ$0 1004a7c0 f   batch.obj
 0001:000497c0       __unwindfunclet$?Delete@DBImpl@leveldb@@UAE?AVStatus@2@ABUWriteOptions@2@ABVSlice@2@@Z$0 1004a7c0 f   leveldb:db_impl.obj
 0001:000497c0       __unwindfunclet$?IteratorStatus@Iterator@leveldown@@QAE?AVStatus@leveldb@@XZ$0 1004a7c0 f   iterator.obj
 0001:000497c0       __unwindfunclet$?status@LevelFileNumIterator@Version@leveldb@@UBE?AVStatus@3@XZ$0 1004a7c0 f   leveldb:version_set.obj
 0001:000497c0       __unwindfunclet$?PutToDatabase@Database@leveldown@@QAE?AVStatus@leveldb@@PAUWriteOptions@4@VSlice@4@1@Z$0 1004a7c0 f   database.obj
 0001:000497c0       __unwindfunclet$?DeleteFromDatabase@Database@leveldown@@QAE?AVStatus@leveldb@@PAUWriteOptions@4@VSlice@4@@Z$0 1004a7c0 f   database.obj
 0001:000497c0       __unwindfunclet$?Flush@WinWritableFile@leveldb@@UAE?AVStatus@2@XZ$0 1004a7c0 f   leveldb:env_win.obj
 0001:000497c0       __unwindfunclet$?GetFromDatabase@Database@leveldown@@QAE?AVStatus@leveldb@@PAUReadOptions@4@VSlice@4@AAV?$basic_string@DU?$char_traits@D@std@@V?$allocator@D@2@@std@@@Z$0 1004a7c0 f   database.obj
 0001:000497c0       __unwindfunclet$?WriteBatchToDatabase@Database@leveldown@@QAE?AVStatus@leveldb@@PAUWriteOptions@4@PAVWriteBatch@4@@Z$0 1004a7c0 f   database.obj
 0001:000497d9       __ehhandler$?DeleteFromDatabase@Database@leveldown@@QAE?AVStatus@leveldb@@PAUWriteOptions@4@VSlice@4@@Z 1004a7d9 f   database.obj
 0001:000497d9       __ehhandler$?GetFromDatabase@Database@leveldown@@QAE?AVStatus@leveldb@@PAUReadOptions@4@VSlice@4@AAV?$basic_string@DU?$char_traits@D@std@@V?$allocator@D@2@@std@@@Z 1004a7d9 f   database.obj
 0001:000497d9       __ehhandler$?Delete@DBImpl@leveldb@@UAE?AVStatus@2@ABUWriteOptions@2@ABVSlice@2@@Z 1004a7d9 f   leveldb:db_impl.obj
 0001:000497d9       __ehhandler$?PutToDatabase@Database@leveldown@@QAE?AVStatus@leveldb@@PAUWriteOptions@4@VSlice@4@1@Z 1004a7d9 f   database.obj
 0001:000497d9       __ehhandler$?status@LevelFileNumIterator@Version@leveldb@@UBE?AVStatus@3@XZ 1004a7d9 f   leveldb:version_set.obj
 0001:000497d9       __ehhandler$?status@MemTableIterator@leveldb@@UBE?AVStatus@2@XZ 1004a7d9 f   leveldb:memtable.obj
 0001:000497d9       __ehhandler$?Write@Batch@leveldown@@QAE?AVStatus@leveldb@@XZ 1004a7d9 f   batch.obj
 0001:000497d9       __ehhandler$?Put@DBImpl@leveldb@@UAE?AVStatus@2@ABUWriteOptions@2@ABVSlice@2@1@Z 1004a7d9 f   leveldb:db_impl.obj
 0001:000497d9       __ehhandler$?IteratorStatus@Iterator@leveldown@@QAE?AVStatus@leveldb@@XZ 1004a7d9 f   iterator.obj
 0001:000497d9       __ehhandler$?WriteBatchToDatabase@Database@leveldown@@QAE?AVStatus@leveldb@@PAUWriteOptions@4@PAVWriteBatch@4@@Z 1004a7d9 f   database.obj
 0001:000497d9       __ehhandler$?Flush@WinWritableFile@leveldb@@UAE?AVStatus@2@XZ 1004a7d9 f   leveldb:env_win.obj
 0001:00049800       __unwindfunclet$?New@Batch@leveldown@@CAXABV?$FunctionCallbackInfo@VValue@v8@@@Nan@@@Z$0 1004a800 f   batch.obj
 0001:0004980f       __ehhandler$?New@Batch@leveldown@@CAXABV?$FunctionCallbackInfo@VValue@v8@@@Nan@@@Z 1004a80f f   batch.obj
 0001:00049830       __unwindfunclet$?NewInstance@Batch@leveldown@@SA?AV?$Local@VValue@v8@@@v8@@V?$Local@VObject@v8@@@4@0@Z$1 1004a830 f   batch.obj
 0001:00049839       __unwindfunclet$?NewInstance@Batch@leveldown@@SA?AV?$Local@VValue@v8@@@v8@@V?$Local@VObject@v8@@@4@0@Z$0 1004a839 f   batch.obj
 0001:00049841       __unwindfunclet$?NewInstance@Batch@leveldown@@SA?AV?$Local@VValue@v8@@@v8@@V?$Local@VObject@v8@@@4@0@Z$2 1004a841 f   batch.obj
 0001:0004984a       __unwindfunclet$?NewInstance@Batch@leveldown@@SA?AV?$Local@VValue@v8@@@v8@@V?$Local@VObject@v8@@@4@0@Z$3 1004a84a f   batch.obj
 0001:00049853       __ehhandler$?NewInstance@Batch@leveldown@@SA?AV?$Local@VValue@v8@@@v8@@V?$Local@VObject@v8@@@4@0@Z 1004a853 f   batch.obj
 0001:00049870       __unwindfunclet$?Write@Batch@leveldown@@CAXABV?$FunctionCallbackInfo@VValue@v8@@@Nan@@@Z$0 1004a870 f   batch.obj
 0001:0004987f       __unwindfunclet$?Write@Batch@leveldown@@CAXABV?$FunctionCallbackInfo@VValue@v8@@@Nan@@@Z$1 1004a87f f   batch.obj
 0001:0004988e       __unwindfunclet$?Write@Batch@leveldown@@CAXABV?$FunctionCallbackInfo@VValue@v8@@@Nan@@@Z$3 1004a88e f   batch.obj
 0001:00049896       __unwindfunclet$?Write@Batch@leveldown@@CAXABV?$FunctionCallbackInfo@VValue@v8@@@Nan@@@Z$4 1004a896 f   batch.obj
 0001:000498a1       __unwindfunclet$?Write@Batch@leveldown@@CAXABV?$FunctionCallbackInfo@VValue@v8@@@Nan@@@Z$2 1004a8a1 f   batch.obj
 0001:000498a9       __ehhandler$?Write@Batch@leveldown@@CAXABV?$FunctionCallbackInfo@VValue@v8@@@Nan@@@Z 1004a8a9 f   batch.obj
 0001:000498d0       __ehhandler$??1?$Persistent@VFunctionTemplate@v8@@V?$NonCopyablePersistentTraits@VFunctionTemplate@v8@@@2@@v8@@QAE@XZ 1004a8d0 f   batch.obj
 0001:000498d0       __ehhandler$??1?$Persistent@VObject@v8@@V?$NonCopyablePersistentTraits@VObject@v8@@@2@@v8@@QAE@XZ 1004a8d0 f   batch.obj
 0001:000498d0       __ehhandler$??1Mutex@port@leveldb@@QAE@XZ 1004a8d0 f   leveldb:port_uv.obj
 0001:000498d0       __ehhandler$??1Utf8String@Nan@@QAE@XZ 1004a8d0 f   database.obj
 0001:000498d0       __ehhandler$??1MutexLock@leveldb@@QAE@XZ 1004a8d0 f   leveldb:db_impl.obj
 0001:000498d0       __ehhandler$??1CondVar@port@leveldb@@QAE@XZ 1004a8d0 f   leveldb:port_uv.obj
 0001:000498f0       __unwindfunclet$?Call_@Callback@Nan@@ABE?AV?$Local@VValue@v8@@@v8@@PAVIsolate@4@V?$Local@VObject@v8@@@4@HQAV34@@Z$1 1004a8f0 f   batch_async.obj
 0001:000498f9       __unwindfunclet$?Call_@Callback@Nan@@ABE?AV?$Local@VValue@v8@@@v8@@PAVIsolate@4@V?$Local@VObject@v8@@@4@HQAV34@@Z$0 1004a8f9 f   batch_async.obj
 0001:00049901       __unwindfunclet$?Call_@Callback@Nan@@ABE?AV?$Local@VValue@v8@@@v8@@PAVIsolate@4@V?$Local@VObject@v8@@@4@HQAV34@@Z$2 1004a901 f   batch_async.obj
 0001:0004990a       __unwindfunclet$?Call_@Callback@Nan@@ABE?AV?$Local@VValue@v8@@@v8@@PAVIsolate@4@V?$Local@VObject@v8@@@4@HQAV34@@Z$3 1004a90a f   batch_async.obj
 0001:00049913       __ehhandler$?Call_@Callback@Nan@@ABE?AV?$Local@VValue@v8@@@v8@@PAVIsolate@4@V?$Local@VObject@v8@@@4@HQAV34@@Z 1004a913 f   batch_async.obj
 0001:00049930       __unwindfunclet$??0AsyncWorker@Nan@@QAE@PAVCallback@1@@Z$2 1004a930 f   batch_async.obj
 0001:00049935       __unwindfunclet$??0AsyncWorker@Nan@@QAE@PAVCallback@1@@Z$0 1004a935 f   batch_async.obj
 0001:0004993a       __unwindfunclet$??0AsyncWorker@Nan@@QAE@PAVCallback@1@@Z$3 1004a93a f   batch_async.obj
 0001:00049943       __unwindfunclet$??0AsyncWorker@Nan@@QAE@PAVCallback@1@@Z$1 1004a943 f   batch_async.obj
 0001:0004994b       __unwindfunclet$??0AsyncWorker@Nan@@QAE@PAVCallback@1@@Z$4 1004a94b f   batch_async.obj
 0001:00049954       __ehhandler$??0AsyncWorker@Nan@@QAE@PAVCallback@1@@Z 1004a954 f   batch_async.obj
 0001:00049970       __unwindfunclet$??1AsyncWorker@Nan@@UAE@XZ$0 1004a970 f   batch_async.obj
 0001:00049975       __unwindfunclet$??1AsyncWorker@Nan@@UAE@XZ$2 1004a975 f   batch_async.obj
 0001:0004997e       __unwindfunclet$??1AsyncWorker@Nan@@UAE@XZ$1 1004a97e f   batch_async.obj
 0001:00049986       __unwindfunclet$??1AsyncWorker@Nan@@UAE@XZ$3 1004a986 f   batch_async.obj
 0001:0004998b       __unwindfunclet$??1AsyncWorker@Nan@@UAE@XZ$4 1004a98b f   batch_async.obj
 0001:00049990       __unwindfunclet$??1AsyncWorker@Nan@@UAE@XZ$5 1004a990 f   batch_async.obj
 0001:00049999       __unwindfunclet$??1AsyncWorker@Nan@@UAE@XZ$6 1004a999 f   batch_async.obj
 0001:0004999e       __ehhandler$??1AsyncWorker@Nan@@UAE@XZ 1004a99e f   batch_async.obj
 0001:000499c0       __unwindfunclet$?WorkComplete@AsyncWorker@Nan@@UAEXXZ$1 1004a9c0 f   batch_async.obj
 0001:000499c9       __unwindfunclet$?WorkComplete@AsyncWorker@Nan@@UAEXXZ$0 1004a9c9 f   batch_async.obj
 0001:000499d1       __unwindfunclet$?WorkComplete@AsyncWorker@Nan@@UAEXXZ$2 1004a9d1 f   batch_async.obj
 0001:000499d6       __unwindfunclet$?WorkComplete@AsyncWorker@Nan@@UAEXXZ$3 1004a9d6 f   batch_async.obj
 0001:000499db       __unwindfunclet$?WorkComplete@AsyncWorker@Nan@@UAEXXZ$4 1004a9db f   batch_async.obj
 0001:000499e4       __ehhandler$?WorkComplete@AsyncWorker@Nan@@UAEXXZ 1004a9e4 f   batch_async.obj
 0001:00049a00       __unwindfunclet$?HandleErrorCallback@AsyncWorker@Nan@@MAEXXZ$1 1004aa00 f   batch_async.obj
 0001:00049a09       __unwindfunclet$?HandleErrorCallback@AsyncWorker@Nan@@MAEXXZ$0 1004aa09 f   batch_async.obj
 0001:00049a11       __unwindfunclet$?HandleErrorCallback@AsyncWorker@Nan@@MAEXXZ$2 1004aa11 f   batch_async.obj
 0001:00049a1a       __ehhandler$?HandleErrorCallback@AsyncWorker@Nan@@MAEXXZ 1004aa1a f   batch_async.obj
 0001:00049a40       __unwindfunclet$?SetStatus@AsyncWorker@leveldown@@IAEXVStatus@leveldb@@@Z$0 1004aa40 f   batch_async.obj
 0001:00049a48       __unwindfunclet$?SetStatus@AsyncWorker@leveldown@@IAEXVStatus@leveldb@@@Z$1 1004aa48 f   batch_async.obj
 0001:00049a50       __ehhandler$?SetStatus@AsyncWorker@leveldown@@IAEXVStatus@leveldb@@@Z 1004aa50 f   batch_async.obj
 0001:00049a80       __unwindfunclet$??_GAsyncWorker@leveldown@@UAEPAXI@Z$0 1004aa80 f   batch_async.obj
 0001:00049a80       __unwindfunclet$??1AsyncWorker@leveldown@@UAE@XZ$0 1004aa80 f   batch_async.obj
 0001:00049a88       __unwindfunclet$??1AsyncWorker@leveldown@@UAE@XZ$1 1004aa88 f   batch_async.obj
 0001:00049a88       __unwindfunclet$??_GAsyncWorker@leveldown@@UAEPAXI@Z$1 1004aa88 f   batch_async.obj
 0001:00049a93       __ehhandler$??1AsyncWorker@leveldown@@UAE@XZ 1004aa93 f   batch_async.obj
 0001:00049a93       __ehhandler$??_GAsyncWorker@leveldown@@UAEPAXI@Z 1004aa93 f   batch_async.obj
 0001:00049ab0       __unwindfunclet$??_GIOWorker@leveldown@@UAEPAXI@Z$0 1004aab0 f   database_async.obj
 0001:00049ab0       __unwindfunclet$??_GEndWorker@leveldown@@UAEPAXI@Z$0 1004aab0 f   iterator_async.obj
 0001:00049ab0       __unwindfunclet$??1IOWorker@leveldown@@UAE@XZ$0 1004aab0 f   database_async.obj
 0001:00049ab0       __unwindfunclet$??_GCloseWorker@leveldown@@UAEPAXI@Z$0 1004aab0 f   database_async.obj
 0001:00049ab0       __unwindfunclet$??_GApproximateSizeWorker@leveldown@@UAEPAXI@Z$0 1004aab0 f   database_async.obj
 0001:00049ab0       __unwindfunclet$??_GOpenWorker@leveldown@@UAEPAXI@Z$0 1004aab0 f   database_async.obj
 0001:00049ab0       __unwindfunclet$??_GBatchWriteWorker@leveldown@@UAEPAXI@Z$0 1004aab0 f   batch_async.obj
 0001:00049ab8       __unwindfunclet$??_GBatchWriteWorker@leveldown@@UAEPAXI@Z$1 1004aab8 f   batch_async.obj
 0001:00049ab8       __unwindfunclet$??1IOWorker@leveldown@@UAE@XZ$1 1004aab8 f   database_async.obj
 0001:00049ab8       __unwindfunclet$??_GEndWorker@leveldown@@UAEPAXI@Z$1 1004aab8 f   iterator_async.obj
 0001:00049ab8       __unwindfunclet$??_GIOWorker@leveldown@@UAEPAXI@Z$1 1004aab8 f   database_async.obj
 0001:00049ab8       __unwindfunclet$??_GOpenWorker@leveldown@@UAEPAXI@Z$1 1004aab8 f   database_async.obj
 0001:00049ab8       __unwindfunclet$??_GApproximateSizeWorker@leveldown@@UAEPAXI@Z$1 1004aab8 f   database_async.obj
 0001:00049ab8       __unwindfunclet$??_GCloseWorker@leveldown@@UAEPAXI@Z$1 1004aab8 f   database_async.obj
 0001:00049ac0       __unwindfunclet$??_GEndWorker@leveldown@@UAEPAXI@Z$2 1004aac0 f   iterator_async.obj
 0001:00049ac0       __unwindfunclet$??_GBatchWriteWorker@leveldown@@UAEPAXI@Z$2 1004aac0 f   batch_async.obj
 0001:00049ac0       __unwindfunclet$??_GIOWorker@leveldown@@UAEPAXI@Z$2 1004aac0 f   database_async.obj
 0001:00049ac0       __unwindfunclet$??_GCloseWorker@leveldown@@UAEPAXI@Z$2 1004aac0 f   database_async.obj
 0001:00049ac0       __unwindfunclet$??_GApproximateSizeWorker@leveldown@@UAEPAXI@Z$2 1004aac0 f   database_async.obj
 0001:00049ac0       __unwindfunclet$??_GOpenWorker@leveldown@@UAEPAXI@Z$2 1004aac0 f   database_async.obj
 0001:00049ac0       __unwindfunclet$??1IOWorker@leveldown@@UAE@XZ$2 1004aac0 f   database_async.obj
 0001:00049acb       __ehhandler$??_GCloseWorker@leveldown@@UAEPAXI@Z 1004aacb f   database_async.obj
 0001:00049acb       __ehhandler$??_GBatchWriteWorker@leveldown@@UAEPAXI@Z 1004aacb f   batch_async.obj
 0001:00049acb       __ehhandler$??_GOpenWorker@leveldown@@UAEPAXI@Z 1004aacb f   database_async.obj
 0001:00049acb       __ehhandler$??1IOWorker@leveldown@@UAE@XZ 1004aacb f   database_async.obj
 0001:00049acb       __ehhandler$??_GApproximateSizeWorker@leveldown@@UAEPAXI@Z 1004aacb f   database_async.obj
 0001:00049acb       __ehhandler$??_GIOWorker@leveldown@@UAEPAXI@Z 1004aacb f   database_async.obj
 0001:00049acb       __ehhandler$??_GEndWorker@leveldown@@UAEPAXI@Z 1004aacb f   iterator_async.obj
 0001:00049af0       __unwindfunclet$?Execute@OpenWorker@leveldown@@UAEXXZ$0 1004aaf0 f   database_async.obj
 0001:00049af0       __unwindfunclet$?Execute@BatchWorker@leveldown@@UAEXXZ$0 1004aaf0 f   database_async.obj
 0001:00049af0       __unwindfunclet$?Execute@NextWorker@leveldown@@UAEXXZ$0 1004aaf0 f   iterator_async.obj
 0001:00049af0       __unwindfunclet$?Execute@BatchWriteWorker@leveldown@@UAEXXZ$0 1004aaf0 f   batch_async.obj
 0001:00049af0       __unwindfunclet$?Execute@ReadWorker@leveldown@@UAEXXZ$0 1004aaf0 f   database_async.obj
 0001:00049af0       __unwindfunclet$?Execute@DeleteWorker@leveldown@@UAEXXZ$0 1004aaf0 f   database_async.obj
 0001:00049af0       __unwindfunclet$?Execute@WriteWorker@leveldown@@UAEXXZ$0 1004aaf0 f   database_async.obj
 0001:00049af8       __ehhandler$?Execute@NextWorker@leveldown@@UAEXXZ 1004aaf8 f   iterator_async.obj
 0001:00049af8       __ehhandler$?Execute@OpenWorker@leveldown@@UAEXXZ 1004aaf8 f   database_async.obj
 0001:00049af8       __ehhandler$?Execute@BatchWorker@leveldown@@UAEXXZ 1004aaf8 f   database_async.obj
 0001:00049af8       __ehhandler$?Execute@BatchWriteWorker@leveldown@@UAEXXZ 1004aaf8 f   batch_async.obj
 0001:00049af8       __ehhandler$?Execute@DeleteWorker@leveldown@@UAEXXZ 1004aaf8 f   database_async.obj
 0001:00049af8       __ehhandler$?Execute@WriteWorker@leveldown@@UAEXXZ 1004aaf8 f   database_async.obj
 0001:00049af8       __ehhandler$?Execute@ReadWorker@leveldown@@UAEXXZ 1004aaf8 f   database_async.obj
 0001:00049b20       __unwindfunclet$?ThrowError@Nan@@YAXPBD@Z$1 1004ab20 f   database.obj
 0001:00049b29       __unwindfunclet$?ThrowError@Nan@@YAXPBD@Z$0 1004ab29 f   database.obj
 0001:00049b31       __unwindfunclet$?ThrowError@Nan@@YAXPBD@Z$2 1004ab31 f   database.obj
 0001:00049b3a       __ehhandler$?ThrowError@Nan@@YAXPBD@Z 1004ab3a f   database.obj
 0001:00049b60       __unwindfunclet$??0Database@leveldown@@QAE@ABV?$Local@VValue@v8@@@v8@@@Z$4 1004ab60 f   database.obj
 0001:00049b65       __unwindfunclet$??0Database@leveldown@@QAE@ABV?$Local@VValue@v8@@@v8@@@Z$3 1004ab65 f   database.obj
 0001:00049b6a       __unwindfunclet$??0Database@leveldown@@QAE@ABV?$Local@VValue@v8@@@v8@@@Z$0 1004ab6a f   database.obj
 0001:00049b72       __unwindfunclet$??0Database@leveldown@@QAE@ABV?$Local@VValue@v8@@@v8@@@Z$1 1004ab72 f   database.obj
 0001:00049b84       __unwindfunclet$??0Database@leveldown@@QAE@ABV?$Local@VValue@v8@@@v8@@@Z$6 1004ab84 f   database.obj
 0001:00049b8c       __unwindfunclet$??0Database@leveldown@@QAE@ABV?$Local@VValue@v8@@@v8@@@Z$5 1004ab8c f   database.obj
 0001:00049b94       __unwindfunclet$??0Database@leveldown@@QAE@ABV?$Local@VValue@v8@@@v8@@@Z$2 1004ab94 f   database.obj
 0001:00049b9f       __ehhandler$??0Database@leveldown@@QAE@ABV?$Local@VValue@v8@@@v8@@@Z 1004ab9f f   database.obj
 0001:00049bc0       __unwindfunclet$??1?$set@U?$pair@H_K@std@@U?$less@U?$pair@H_K@std@@@2@V?$allocator@U?$pair@H_K@std@@@2@@std@@QAE@XZ$0 1004abc0 f   leveldb:db_impl.obj
 0001:00049bc0       __unwindfunclet$??1?$set@_KU?$less@_K@std@@V?$allocator@_K@2@@std@@QAE@XZ$0 1004abc0 f   leveldb:db_impl.obj
 0001:00049bc0       __unwindfunclet$??1?$map@IPAVIterator@leveldown@@U?$less@I@std@@V?$allocator@U?$pair@$$CBIPAVIterator@leveldown@@@std@@@4@@std@@QAE@XZ$0 1004abc0 f   database.obj
 0001:00049bc8       __unwindfunclet$??1?$map@IPAVIterator@leveldown@@U?$less@I@std@@V?$allocator@U?$pair@$$CBIPAVIterator@leveldown@@@std@@@4@@std@@QAE@XZ$1 1004abc8 f   database.obj
 0001:00049bc8       __unwindfunclet$??1?$set@_KU?$less@_K@std@@V?$allocator@_K@2@@std@@QAE@XZ$1 1004abc8 f   leveldb:db_impl.obj
 0001:00049bc8       __unwindfunclet$??1?$set@U?$pair@H_K@std@@U?$less@U?$pair@H_K@std@@@2@V?$allocator@U?$pair@H_K@std@@@2@@std@@QAE@XZ$1 1004abc8 f   leveldb:db_impl.obj
 0001:00049bd0       __ehhandler$??1?$map@IPAVIterator@leveldown@@U?$less@I@std@@V?$allocator@U?$pair@$$CBIPAVIterator@leveldown@@@std@@@4@@std@@QAE@XZ 1004abd0 f   database.obj
 0001:00049bd0       __ehhandler$??1?$set@_KU?$less@_K@std@@V?$allocator@_K@2@@std@@QAE@XZ 1004abd0 f   leveldb:db_impl.obj
 0001:00049bd0       __ehhandler$??1?$set@U?$pair@H_K@std@@U?$less@U?$pair@H_K@std@@@2@V?$allocator@U?$pair@H_K@std@@@2@@std@@QAE@XZ 1004abd0 f   leveldb:db_impl.obj
 0001:00049bf0       __unwindfunclet$??1Database@leveldown@@UAE@XZ$0 1004abf0 f   database.obj
 0001:00049bf8       __unwindfunclet$??1Database@leveldown@@UAE@XZ$1 1004abf8 f   database.obj
 0001:00049c03       __unwindfunclet$??1Database@leveldown@@UAE@XZ$2 1004ac03 f   database.obj
 0001:00049c0b       __unwindfunclet$??1Database@leveldown@@UAE@XZ$3 1004ac0b f   database.obj
 0001:00049c13       __ehhandler$??1Database@leveldown@@UAE@XZ 1004ac13 f   database.obj
 0001:00049c30       __unwindfunclet$?OpenDatabase@Database@leveldown@@QAE?AVStatus@leveldb@@PAUOptions@4@@Z$0 1004ac30 f   database.obj
 0001:00049c38       __unwindfunclet$?OpenDatabase@Database@leveldown@@QAE?AVStatus@leveldb@@PAUOptions@4@@Z$1 1004ac38 f   database.obj
 0001:00049c51       __ehhandler$?OpenDatabase@Database@leveldown@@QAE?AVStatus@leveldb@@PAUOptions@4@@Z 1004ac51 f   database.obj
 0001:00049c80       __unwindfunclet$?New@Database@leveldown@@CAXABV?$FunctionCallbackInfo@VValue@v8@@@Nan@@@Z$0 1004ac80 f   database.obj
 0001:00049c8f       __ehhandler$?New@Database@leveldown@@CAXABV?$FunctionCallbackInfo@VValue@v8@@@Nan@@@Z 1004ac8f f   database.obj
 0001:00049cb0       __unwindfunclet$?NewInstance@Database@leveldown@@SA?AV?$Local@VValue@v8@@@v8@@AAV?$Local@VString@v8@@@4@@Z$1 1004acb0 f   database.obj
 0001:00049cb9       __unwindfunclet$?NewInstance@Database@leveldown@@SA?AV?$Local@VValue@v8@@@v8@@AAV?$Local@VString@v8@@@4@@Z$0 1004acb9 f   database.obj
 0001:00049cc1       __unwindfunclet$?NewInstance@Database@leveldown@@SA?AV?$Local@VValue@v8@@@v8@@AAV?$Local@VString@v8@@@4@@Z$2 1004acc1 f   database.obj
 0001:00049cca       __unwindfunclet$?NewInstance@Database@leveldown@@SA?AV?$Local@VValue@v8@@@v8@@AAV?$Local@VString@v8@@@4@@Z$3 1004acca f   database.obj
 0001:00049cd3       __ehhandler$?NewInstance@Database@leveldown@@SA?AV?$Local@VValue@v8@@@v8@@AAV?$Local@VString@v8@@@4@@Z 1004acd3 f   database.obj
 0001:00049cf0       __unwindfunclet$?Open@Database@leveldown@@CAXABV?$FunctionCallbackInfo@VValue@v8@@@Nan@@@Z$2 1004acf0 f   database.obj
 0001:00049d02       __unwindfunclet$?Open@Database@leveldown@@CAXABV?$FunctionCallbackInfo@VValue@v8@@@Nan@@@Z$3 1004ad02 f   database.obj
 0001:00049d11       __unwindfunclet$?Open@Database@leveldown@@CAXABV?$FunctionCallbackInfo@VValue@v8@@@Nan@@@Z$4 1004ad11 f   database.obj
 0001:00049d19       __unwindfunclet$?Open@Database@leveldown@@CAXABV?$FunctionCallbackInfo@VValue@v8@@@Nan@@@Z$0 1004ad19 f   database.obj
 0001:00049d28       __unwindfunclet$?Open@Database@leveldown@@CAXABV?$FunctionCallbackInfo@VValue@v8@@@Nan@@@Z$1 1004ad28 f   database.obj
 0001:00049d37       __ehhandler$?Open@Database@leveldown@@CAXABV?$FunctionCallbackInfo@VValue@v8@@@Nan@@@Z 1004ad37 f   database.obj
 0001:00049d60       __unwindfunclet$?Close@Database@leveldown@@CAXABV?$FunctionCallbackInfo@VValue@v8@@@Nan@@@Z$0 1004ad60 f   database.obj
 0001:00049d6f       __unwindfunclet$?Close@Database@leveldown@@CAXABV?$FunctionCallbackInfo@VValue@v8@@@Nan@@@Z$1 1004ad6f f   database.obj
 0001:00049d7e       __unwindfunclet$?Close@Database@leveldown@@CAXABV?$FunctionCallbackInfo@VValue@v8@@@Nan@@@Z$3 1004ad7e f   database.obj
 0001:00049d86       __unwindfunclet$?Close@Database@leveldown@@CAXABV?$FunctionCallbackInfo@VValue@v8@@@Nan@@@Z$4 1004ad86 f   database.obj
 0001:00049d91       __unwindfunclet$?Close@Database@leveldown@@CAXABV?$FunctionCallbackInfo@VValue@v8@@@Nan@@@Z$2 1004ad91 f   database.obj
 0001:00049d99       __ehhandler$?Close@Database@leveldown@@CAXABV?$FunctionCallbackInfo@VValue@v8@@@Nan@@@Z 1004ad99 f   database.obj
 0001:00049dc0       __unwindfunclet$?Put@Database@leveldown@@CAXABV?$FunctionCallbackInfo@VValue@v8@@@Nan@@@Z$0 1004adc0 f   database.obj
 0001:00049dd2       __unwindfunclet$?Put@Database@leveldown@@CAXABV?$FunctionCallbackInfo@VValue@v8@@@Nan@@@Z$1 1004add2 f   database.obj
 0001:00049de1       __ehhandler$?Put@Database@leveldown@@CAXABV?$FunctionCallbackInfo@VValue@v8@@@Nan@@@Z 1004ade1 f   database.obj
 0001:00049e00       __unwindfunclet$?Get@Database@leveldown@@CAXABV?$FunctionCallbackInfo@VValue@v8@@@Nan@@@Z$0 1004ae00 f   database.obj
 0001:00049e12       __unwindfunclet$?Get@Database@leveldown@@CAXABV?$FunctionCallbackInfo@VValue@v8@@@Nan@@@Z$1 1004ae12 f   database.obj
 0001:00049e21       __ehhandler$?Get@Database@leveldown@@CAXABV?$FunctionCallbackInfo@VValue@v8@@@Nan@@@Z 1004ae21 f   database.obj
 0001:00049e40       __unwindfunclet$?Delete@Database@leveldown@@CAXABV?$FunctionCallbackInfo@VValue@v8@@@Nan@@@Z$0 1004ae40 f   database.obj
 0001:00049e52       __unwindfunclet$?Delete@Database@leveldown@@CAXABV?$FunctionCallbackInfo@VValue@v8@@@Nan@@@Z$1 1004ae52 f   database.obj
 0001:00049e61       __ehhandler$?Delete@Database@leveldown@@CAXABV?$FunctionCallbackInfo@VValue@v8@@@Nan@@@Z 1004ae61 f   database.obj
 0001:00049e80       __unwindfunclet$?Batch@Database@leveldown@@CAXABV?$FunctionCallbackInfo@VValue@v8@@@Nan@@@Z$0 1004ae80 f   database.obj
 0001:00049e8f       __unwindfunclet$?Batch@Database@leveldown@@CAXABV?$FunctionCallbackInfo@VValue@v8@@@Nan@@@Z$1 1004ae8f f   database.obj
 0001:00049e9e       __unwindfunclet$?Batch@Database@leveldown@@CAXABV?$FunctionCallbackInfo@VValue@v8@@@Nan@@@Z$2 1004ae9e f   database.obj
 0001:00049ead       __ehhandler$?Batch@Database@leveldown@@CAXABV?$FunctionCallbackInfo@VValue@v8@@@Nan@@@Z 1004aead f   database.obj
 0001:00049ed0       __unwindfunclet$?ApproximateSize@Database@leveldown@@CAXABV?$FunctionCallbackInfo@VValue@v8@@@Nan@@@Z$0 1004aed0 f   database.obj
 0001:00049ee2       __unwindfunclet$?ApproximateSize@Database@leveldown@@CAXABV?$FunctionCallbackInfo@VValue@v8@@@Nan@@@Z$1 1004aee2 f   database.obj
 0001:00049ef1       __ehhandler$?ApproximateSize@Database@leveldown@@CAXABV?$FunctionCallbackInfo@VValue@v8@@@Nan@@@Z 1004aef1 f   database.obj
 0001:00049f10       __unwindfunclet$?GetProperty@Database@leveldown@@CAXABV?$FunctionCallbackInfo@VValue@v8@@@Nan@@@Z$0 1004af10 f   database.obj
 0001:00049f1f       __ehhandler$?GetProperty@Database@leveldown@@CAXABV?$FunctionCallbackInfo@VValue@v8@@@Nan@@@Z 1004af1f f   database.obj
 0001:00049f40       __unwindfunclet$?Iterator@Database@leveldown@@CAXABV?$FunctionCallbackInfo@VValue@v8@@@Nan@@@Z$0 1004af40 f   database.obj
 0001:00049f49       __ehhandler$?Iterator@Database@leveldown@@CAXABV?$FunctionCallbackInfo@VValue@v8@@@Nan@@@Z 1004af49 f   database.obj
 0001:00049f70       __unwindfunclet$??1?$_Tree@V?$_Tset_traits@U?$pair@H_K@std@@U?$less@U?$pair@H_K@std@@@2@V?$allocator@U?$pair@H_K@std@@@2@$0A@@std@@@std@@QAE@XZ$0 1004af70 f   leveldb:db_impl.obj
 0001:00049f70       __unwindfunclet$??1?$_Tree@V?$_Tmap_traits@IPAVIterator@leveldown@@U?$less@I@std@@V?$allocator@U?$pair@$$CBIPAVIterator@leveldown@@@std@@@4@$0A@@std@@@std@@QAE@XZ$0 1004af70 f   database.obj
 0001:00049f70       __unwindfunclet$??1?$_Tree@V?$_Tset_traits@_KU?$less@_K@std@@V?$allocator@_K@2@$0A@@std@@@std@@QAE@XZ$0 1004af70 f   leveldb:db_impl.obj
 0001:00049f78       __ehhandler$??1?$_Tree@V?$_Tmap_traits@IPAVIterator@leveldown@@U?$less@I@std@@V?$allocator@U?$pair@$$CBIPAVIterator@leveldown@@@std@@@4@$0A@@std@@@std@@QAE@XZ 1004af78 f   database.obj
 0001:00049f78       __ehhandler$??1?$_Tree@V?$_Tset_traits@U?$pair@H_K@std@@U?$less@U?$pair@H_K@std@@@2@V?$allocator@U?$pair@H_K@std@@@2@$0A@@std@@@std@@QAE@XZ 1004af78 f   leveldb:db_impl.obj
 0001:00049f78       __ehhandler$??1?$_Tree@V?$_Tset_traits@_KU?$less@_K@std@@V?$allocator@_K@2@$0A@@std@@@std@@QAE@XZ 1004af78 f   leveldb:db_impl.obj
 0001:00049fa0       __unwindfunclet$??$_Try_emplace@ABI$$V@?$map@IPAVIterator@leveldown@@U?$less@I@std@@V?$allocator@U?$pair@$$CBIPAVIterator@leveldown@@@std@@@4@@std@@QAE?AU?$pair@V?$_Tree_iterator@V?$_Tree_val@U?$_Tree_simple_types@U?$pair@$$CBIPAVIterator@leveldown@@@std@@@std@@@std@@@std@@_N@1@ABI@Z$0 1004afa0 f   database.obj
 0001:00049fa5       __ehhandler$??$_Try_emplace@ABI$$V@?$map@IPAVIterator@leveldown@@U?$less@I@std@@V?$allocator@U?$pair@$$CBIPAVIterator@leveldown@@@std@@@4@@std@@QAE?AU?$pair@V?$_Tree_iterator@V?$_Tree_val@U?$_Tree_simple_types@U?$pair@$$CBIPAVIterator@leveldown@@@std@@@std@@@std@@@std@@_N@1@ABI@Z 1004afa5 f   database.obj
 0001:00049fc0       __unwindfunclet$?GetFromPersistent@AsyncWorker@Nan@@QBE?AV?$Local@VValue@v8@@@v8@@PBD@Z$1 1004afc0 f   database_async.obj
 0001:00049fc9       __unwindfunclet$?GetFromPersistent@AsyncWorker@Nan@@QBE?AV?$Local@VValue@v8@@@v8@@PBD@Z$0 1004afc9 f   database_async.obj
 0001:00049fd1       __unwindfunclet$?GetFromPersistent@AsyncWorker@Nan@@QBE?AV?$Local@VValue@v8@@@v8@@PBD@Z$2 1004afd1 f   database_async.obj
 0001:00049fda       __unwindfunclet$?GetFromPersistent@AsyncWorker@Nan@@QBE?AV?$Local@VValue@v8@@@v8@@PBD@Z$3 1004afda f   database_async.obj
 0001:00049fe3       __ehhandler$?GetFromPersistent@AsyncWorker@Nan@@QBE?AV?$Local@VValue@v8@@@v8@@PBD@Z 1004afe3 f   database_async.obj
 0001:0004a000       __unwindfunclet$??0OpenWorker@leveldown@@QAE@PAVDatabase@1@PAVCallback@Nan@@PAVCache@leveldb@@PBVFilterPolicy@6@_N44IIII@Z$2 1004b000 f   database_async.obj
 0001:0004a008       __unwindfunclet$??0OpenWorker@leveldown@@QAE@PAVDatabase@1@PAVCallback@Nan@@PAVCache@leveldb@@PBVFilterPolicy@6@_N44IIII@Z$3 1004b008 f   database_async.obj
 0001:0004a013       __unwindfunclet$??0OpenWorker@leveldown@@QAE@PAVDatabase@1@PAVCallback@Nan@@PAVCache@leveldb@@PBVFilterPolicy@6@_N44IIII@Z$0 1004b013 f   database_async.obj
 0001:0004a01b       __unwindfunclet$??0OpenWorker@leveldown@@QAE@PAVDatabase@1@PAVCallback@Nan@@PAVCache@leveldb@@PBVFilterPolicy@6@_N44IIII@Z$1 1004b01b f   database_async.obj
 0001:0004a02a       __ehhandler$??0OpenWorker@leveldown@@QAE@PAVDatabase@1@PAVCallback@Nan@@PAVCache@leveldb@@PBVFilterPolicy@6@_N44IIII@Z 1004b02a f   database_async.obj
 0001:0004a050       __unwindfunclet$?WorkComplete@CloseWorker@leveldown@@UAEXXZ$1 1004b050 f   database_async.obj
 0001:0004a059       __unwindfunclet$?WorkComplete@CloseWorker@leveldown@@UAEXXZ$0 1004b059 f   database_async.obj
 0001:0004a061       __unwindfunclet$?WorkComplete@CloseWorker@leveldown@@UAEXXZ$2 1004b061 f   database_async.obj
 0001:0004a066       __unwindfunclet$?WorkComplete@CloseWorker@leveldown@@UAEXXZ$3 1004b066 f   database_async.obj
 0001:0004a06b       __unwindfunclet$?WorkComplete@CloseWorker@leveldown@@UAEXXZ$4 1004b06b f   database_async.obj
 0001:0004a074       __ehhandler$?WorkComplete@CloseWorker@leveldown@@UAEXXZ 1004b074 f   database_async.obj
 0001:0004a090       __unwindfunclet$??0ApproximateSizeWorker@leveldown@@QAE@PAVDatabase@1@PAVCallback@Nan@@VSlice@leveldb@@2AAV?$Local@VObject@v8@@@v8@@3@Z$2 1004b090 f   database_async.obj
 0001:0004a090       __unwindfunclet$??0IOWorker@leveldown@@QAE@PAVDatabase@1@PAVCallback@Nan@@VSlice@leveldb@@AAV?$Local@VObject@v8@@@v8@@@Z$2 1004b090 f   database_async.obj
 0001:0004a098       __unwindfunclet$??0IOWorker@leveldown@@QAE@PAVDatabase@1@PAVCallback@Nan@@VSlice@leveldb@@AAV?$Local@VObject@v8@@@v8@@@Z$3 1004b098 f   database_async.obj
 0001:0004a098       __unwindfunclet$??0ApproximateSizeWorker@leveldown@@QAE@PAVDatabase@1@PAVCallback@Nan@@VSlice@leveldb@@2AAV?$Local@VObject@v8@@@v8@@3@Z$3 1004b098 f   database_async.obj
 0001:0004a0a3       __unwindfunclet$??0ApproximateSizeWorker@leveldown@@QAE@PAVDatabase@1@PAVCallback@Nan@@VSlice@leveldb@@2AAV?$Local@VObject@v8@@@v8@@3@Z$0 1004b0a3 f   database_async.obj
 0001:0004a0a3       __unwindfunclet$??0IOWorker@leveldown@@QAE@PAVDatabase@1@PAVCallback@Nan@@VSlice@leveldb@@AAV?$Local@VObject@v8@@@v8@@@Z$0 1004b0a3 f   database_async.obj
 0001:0004a0ab       __unwindfunclet$??0ApproximateSizeWorker@leveldown@@QAE@PAVDatabase@1@PAVCallback@Nan@@VSlice@leveldb@@2AAV?$Local@VObject@v8@@@v8@@3@Z$4 1004b0ab f   database_async.obj
 0001:0004a0ab       __unwindfunclet$??0IOWorker@leveldown@@QAE@PAVDatabase@1@PAVCallback@Nan@@VSlice@leveldb@@AAV?$Local@VObject@v8@@@v8@@@Z$4 1004b0ab f   database_async.obj
 0001:0004a0b4       __unwindfunclet$??0ApproximateSizeWorker@leveldown@@QAE@PAVDatabase@1@PAVCallback@Nan@@VSlice@leveldb@@2AAV?$Local@VObject@v8@@@v8@@3@Z$1 1004b0b4 f   database_async.obj
 0001:0004a0b4       __unwindfunclet$??0IOWorker@leveldown@@QAE@PAVDatabase@1@PAVCallback@Nan@@VSlice@leveldb@@AAV?$Local@VObject@v8@@@v8@@@Z$1 1004b0b4 f   database_async.obj
 0001:0004a0bc       __unwindfunclet$??0ApproximateSizeWorker@leveldown@@QAE@PAVDatabase@1@PAVCallback@Nan@@VSlice@leveldb@@2AAV?$Local@VObject@v8@@@v8@@3@Z$5 1004b0bc f   database_async.obj
 0001:0004a0bc       __unwindfunclet$??0IOWorker@leveldown@@QAE@PAVDatabase@1@PAVCallback@Nan@@VSlice@leveldb@@AAV?$Local@VObject@v8@@@v8@@@Z$5 1004b0bc f   database_async.obj
 0001:0004a0c5       __ehhandler$??0IOWorker@leveldown@@QAE@PAVDatabase@1@PAVCallback@Nan@@VSlice@leveldb@@AAV?$Local@VObject@v8@@@v8@@@Z 1004b0c5 f   database_async.obj
 0001:0004a0c5       __ehhandler$??0ApproximateSizeWorker@leveldown@@QAE@PAVDatabase@1@PAVCallback@Nan@@VSlice@leveldb@@2AAV?$Local@VObject@v8@@@v8@@3@Z 1004b0c5 f   database_async.obj
 0001:0004a0e0       __unwindfunclet$??0ReadWorker@leveldown@@QAE@PAVDatabase@1@PAVCallback@Nan@@VSlice@leveldb@@_N3AAV?$Local@VObject@v8@@@v8@@@Z$0 1004b0e0 f   database_async.obj
 0001:0004a0e8       __unwindfunclet$??0ReadWorker@leveldown@@QAE@PAVDatabase@1@PAVCallback@Nan@@VSlice@leveldb@@_N3AAV?$Local@VObject@v8@@@v8@@@Z$1 1004b0e8 f   database_async.obj
 0001:0004a0f6       __unwindfunclet$??0ReadWorker@leveldown@@QAE@PAVDatabase@1@PAVCallback@Nan@@VSlice@leveldb@@_N3AAV?$Local@VObject@v8@@@v8@@@Z$4 1004b0f6 f   database_async.obj
 0001:0004a0ff       __unwindfunclet$??0ReadWorker@leveldown@@QAE@PAVDatabase@1@PAVCallback@Nan@@VSlice@leveldb@@_N3AAV?$Local@VObject@v8@@@v8@@@Z$2 1004b0ff f   database_async.obj
 0001:0004a107       __unwindfunclet$??0ReadWorker@leveldown@@QAE@PAVDatabase@1@PAVCallback@Nan@@VSlice@leveldb@@_N3AAV?$Local@VObject@v8@@@v8@@@Z$3 1004b107 f   database_async.obj
 0001:0004a116       __unwindfunclet$??0ReadWorker@leveldown@@QAE@PAVDatabase@1@PAVCallback@Nan@@VSlice@leveldb@@_N3AAV?$Local@VObject@v8@@@v8@@@Z$5 1004b116 f   database_async.obj
 0001:0004a11f       __ehhandler$??0ReadWorker@leveldown@@QAE@PAVDatabase@1@PAVCallback@Nan@@VSlice@leveldb@@_N3AAV?$Local@VObject@v8@@@v8@@@Z 1004b11f f   database_async.obj
 0001:0004a140       __unwindfunclet$??1ReadWorker@leveldown@@UAE@XZ$0 1004b140 f   database_async.obj
 0001:0004a148       __unwindfunclet$??1ReadWorker@leveldown@@UAE@XZ$1 1004b148 f   database_async.obj
 0001:0004a156       __unwindfunclet$??1ReadWorker@leveldown@@UAE@XZ$2 1004b156 f   database_async.obj
 0001:0004a15e       __unwindfunclet$??1ReadWorker@leveldown@@UAE@XZ$3 1004b15e f   database_async.obj
 0001:0004a166       __unwindfunclet$??1ReadWorker@leveldown@@UAE@XZ$4 1004b166 f   database_async.obj
 0001:0004a171       __ehhandler$??1ReadWorker@leveldown@@UAE@XZ 1004b171 f   database_async.obj
 0001:0004a190       __unwindfunclet$?HandleOKCallback@ReadWorker@leveldown@@UAEXXZ$1 1004b190 f   database_async.obj
 0001:0004a199       __unwindfunclet$?HandleOKCallback@ReadWorker@leveldown@@UAEXXZ$0 1004b199 f   database_async.obj
 0001:0004a1a1       __unwindfunclet$?HandleOKCallback@ReadWorker@leveldown@@UAEXXZ$2 1004b1a1 f   database_async.obj
 0001:0004a1aa       __ehhandler$?HandleOKCallback@ReadWorker@leveldown@@UAEXXZ 1004b1aa f   database_async.obj
 0001:0004a1d0       __unwindfunclet$??0DeleteWorker@leveldown@@QAE@PAVDatabase@1@PAVCallback@Nan@@VSlice@leveldb@@_NAAV?$Local@VObject@v8@@@v8@@@Z$0 1004b1d0 f   database_async.obj
 0001:0004a1d8       __unwindfunclet$??0DeleteWorker@leveldown@@QAE@PAVDatabase@1@PAVCallback@Nan@@VSlice@leveldb@@_NAAV?$Local@VObject@v8@@@v8@@@Z$3 1004b1d8 f   database_async.obj
 0001:0004a1e1       __unwindfunclet$??0DeleteWorker@leveldown@@QAE@PAVDatabase@1@PAVCallback@Nan@@VSlice@leveldb@@_NAAV?$Local@VObject@v8@@@v8@@@Z$1 1004b1e1 f   database_async.obj
 0001:0004a1e9       __unwindfunclet$??0DeleteWorker@leveldown@@QAE@PAVDatabase@1@PAVCallback@Nan@@VSlice@leveldb@@_NAAV?$Local@VObject@v8@@@v8@@@Z$2 1004b1e9 f   database_async.obj
 0001:0004a1f8       __unwindfunclet$??0DeleteWorker@leveldown@@QAE@PAVDatabase@1@PAVCallback@Nan@@VSlice@leveldb@@_NAAV?$Local@VObject@v8@@@v8@@@Z$4 1004b1f8 f   database_async.obj
 0001:0004a201       __ehhandler$??0DeleteWorker@leveldown@@QAE@PAVDatabase@1@PAVCallback@Nan@@VSlice@leveldb@@_NAAV?$Local@VObject@v8@@@v8@@@Z 1004b201 f   database_async.obj
 0001:0004a220       __unwindfunclet$??_GDeleteWorker@leveldown@@UAEPAXI@Z$0 1004b220 f   database_async.obj
 0001:0004a220       __unwindfunclet$??1DeleteWorker@leveldown@@UAE@XZ$0 1004b220 f   database_async.obj
 0001:0004a228       __unwindfunclet$??1DeleteWorker@leveldown@@UAE@XZ$1 1004b228 f   database_async.obj
 0001:0004a228       __unwindfunclet$??_GDeleteWorker@leveldown@@UAEPAXI@Z$1 1004b228 f   database_async.obj
 0001:0004a230       __unwindfunclet$??_GDeleteWorker@leveldown@@UAEPAXI@Z$2 1004b230 f   database_async.obj
 0001:0004a230       __unwindfunclet$??1DeleteWorker@leveldown@@UAE@XZ$2 1004b230 f   database_async.obj
 0001:0004a238       __unwindfunclet$??_GDeleteWorker@leveldown@@UAEPAXI@Z$3 1004b238 f   database_async.obj
 0001:0004a238       __unwindfunclet$??1DeleteWorker@leveldown@@UAE@XZ$3 1004b238 f   database_async.obj
 0001:0004a243       __ehhandler$??1DeleteWorker@leveldown@@UAE@XZ 1004b243 f   database_async.obj
 0001:0004a243       __ehhandler$??_GDeleteWorker@leveldown@@UAEPAXI@Z 1004b243 f   database_async.obj
 0001:0004a260       __unwindfunclet$??0WriteWorker@leveldown@@QAE@PAVDatabase@1@PAVCallback@Nan@@VSlice@leveldb@@2_NAAV?$Local@VObject@v8@@@v8@@4@Z$0 1004b260 f   database_async.obj
 0001:0004a268       __unwindfunclet$??0WriteWorker@leveldown@@QAE@PAVDatabase@1@PAVCallback@Nan@@VSlice@leveldb@@2_NAAV?$Local@VObject@v8@@@v8@@4@Z$2 1004b268 f   database_async.obj
 0001:0004a271       __unwindfunclet$??0WriteWorker@leveldown@@QAE@PAVDatabase@1@PAVCallback@Nan@@VSlice@leveldb@@2_NAAV?$Local@VObject@v8@@@v8@@4@Z$1 1004b271 f   database_async.obj
 0001:0004a279       __unwindfunclet$??0WriteWorker@leveldown@@QAE@PAVDatabase@1@PAVCallback@Nan@@VSlice@leveldb@@2_NAAV?$Local@VObject@v8@@@v8@@4@Z$3 1004b279 f   database_async.obj
 0001:0004a282       __ehhandler$??0WriteWorker@leveldown@@QAE@PAVDatabase@1@PAVCallback@Nan@@VSlice@leveldb@@2_NAAV?$Local@VObject@v8@@@v8@@4@Z 1004b282 f   database_async.obj
 0001:0004a2a0       __unwindfunclet$??_GWriteWorker@leveldown@@UAEPAXI@Z$0 1004b2a0 f   database_async.obj
 0001:0004a2a8       __unwindfunclet$??_GWriteWorker@leveldown@@UAEPAXI@Z$1 1004b2a8 f   database_async.obj
 0001:0004a2b0       __unwindfunclet$??_GWriteWorker@leveldown@@UAEPAXI@Z$2 1004b2b0 f   database_async.obj
 0001:0004a2b8       __unwindfunclet$??_GWriteWorker@leveldown@@UAEPAXI@Z$3 1004b2b8 f   database_async.obj
 0001:0004a2c0       __unwindfunclet$??_GWriteWorker@leveldown@@UAEPAXI@Z$4 1004b2c0 f   database_async.obj
 0001:0004a2cb       __ehhandler$??_GWriteWorker@leveldown@@UAEPAXI@Z 1004b2cb f   database_async.obj
 0001:0004a2f0       __unwindfunclet$??0BatchWorker@leveldown@@QAE@PAVDatabase@1@PAVCallback@Nan@@PAVWriteBatch@leveldb@@_N@Z$2 1004b2f0 f   database_async.obj
 0001:0004a2f8       __unwindfunclet$??0BatchWorker@leveldown@@QAE@PAVDatabase@1@PAVCallback@Nan@@PAVWriteBatch@leveldb@@_N@Z$3 1004b2f8 f   database_async.obj
 0001:0004a303       __unwindfunclet$??0BatchWorker@leveldown@@QAE@PAVDatabase@1@PAVCallback@Nan@@PAVWriteBatch@leveldb@@_N@Z$0 1004b303 f   database_async.obj
 0001:0004a30b       __unwindfunclet$??0BatchWorker@leveldown@@QAE@PAVDatabase@1@PAVCallback@Nan@@PAVWriteBatch@leveldb@@_N@Z$1 1004b30b f   database_async.obj
 0001:0004a31a       __ehhandler$??0BatchWorker@leveldown@@QAE@PAVDatabase@1@PAVCallback@Nan@@PAVWriteBatch@leveldb@@_N@Z 1004b31a f   database_async.obj
 0001:0004a340       __unwindfunclet$??1BatchWorker@leveldown@@UAE@XZ$0 1004b340 f   database_async.obj
 0001:0004a348       __unwindfunclet$??1BatchWorker@leveldown@@UAE@XZ$1 1004b348 f   database_async.obj
 0001:0004a350       __unwindfunclet$??1BatchWorker@leveldown@@UAE@XZ$2 1004b350 f   database_async.obj
 0001:0004a358       __unwindfunclet$??1BatchWorker@leveldown@@UAE@XZ$3 1004b358 f   database_async.obj
 0001:0004a363       __ehhandler$??1BatchWorker@leveldown@@UAE@XZ 1004b363 f   database_async.obj
 0001:0004a380       __unwindfunclet$?WorkComplete@ApproximateSizeWorker@leveldown@@UAEXXZ$1 1004b380 f   database_async.obj
 0001:0004a389       __unwindfunclet$?WorkComplete@ApproximateSizeWorker@leveldown@@UAEXXZ$0 1004b389 f   database_async.obj
 0001:0004a391       __unwindfunclet$?WorkComplete@ApproximateSizeWorker@leveldown@@UAEXXZ$2 1004b391 f   database_async.obj
 0001:0004a39a       __ehhandler$?WorkComplete@ApproximateSizeWorker@leveldown@@UAEXXZ 1004b39a f   database_async.obj
 0001:0004a3c0       __unwindfunclet$?HandleOKCallback@ApproximateSizeWorker@leveldown@@UAEXXZ$1 1004b3c0 f   database_async.obj
 0001:0004a3c9       __unwindfunclet$?HandleOKCallback@ApproximateSizeWorker@leveldown@@UAEXXZ$0 1004b3c9 f   database_async.obj
 0001:0004a3d1       __unwindfunclet$?HandleOKCallback@ApproximateSizeWorker@leveldown@@UAEXXZ$2 1004b3d1 f   database_async.obj
 0001:0004a3da       __ehhandler$?HandleOKCallback@ApproximateSizeWorker@leveldown@@UAEXXZ 1004b3da f   database_async.obj
 0001:0004a400       __unwindfunclet$?ToString@Slice@leveldb@@QBE?AV?$basic_string@DU?$char_traits@D@std@@V?$allocator@D@2@@std@@XZ$0 1004b400 f   iterator.obj
 0001:0004a419       __ehhandler$?ToString@Slice@leveldb@@QBE?AV?$basic_string@DU?$char_traits@D@std@@V?$allocator@D@2@@std@@XZ 1004b419 f   iterator.obj
 0001:0004a440       __unwindfunclet$?StringOrBufferLength@@YAIV?$Local@VValue@v8@@@v8@@@Z$1 1004b440 f   iterator.obj
 0001:0004a449       __unwindfunclet$?StringOrBufferLength@@YAIV?$Local@VValue@v8@@@v8@@@Z$0 1004b449 f   iterator.obj
 0001:0004a451       __unwindfunclet$?StringOrBufferLength@@YAIV?$Local@VValue@v8@@@v8@@@Z$2 1004b451 f   iterator.obj
 0001:0004a45a       __ehhandler$?StringOrBufferLength@@YAIV?$Local@VValue@v8@@@v8@@@Z 1004b45a f   iterator.obj
 0001:0004a480       __unwindfunclet$??0Iterator@leveldown@@QAE@PAVDatabase@1@IPAVSlice@leveldb@@PAV?$basic_string@DU?$char_traits@D@std@@V?$allocator@D@2@@std@@_N33H2222333I@Z$4 1004b480 f   iterator.obj
 0001:0004a485       __unwindfunclet$??0Iterator@leveldown@@QAE@PAVDatabase@1@IPAVSlice@leveldb@@PAV?$basic_string@DU?$char_traits@D@std@@V?$allocator@D@2@@std@@_N33H2222333I@Z$3 1004b485 f   iterator.obj
 0001:0004a48a       __unwindfunclet$??0Iterator@leveldown@@QAE@PAVDatabase@1@IPAVSlice@leveldb@@PAV?$basic_string@DU?$char_traits@D@std@@V?$allocator@D@2@@std@@_N33H2222333I@Z$0 1004b48a f   iterator.obj
 0001:0004a492       __unwindfunclet$??0Iterator@leveldown@@QAE@PAVDatabase@1@IPAVSlice@leveldb@@PAV?$basic_string@DU?$char_traits@D@std@@V?$allocator@D@2@@std@@_N33H2222333I@Z$5 1004b492 f   iterator.obj
 0001:0004a49b       __unwindfunclet$??0Iterator@leveldown@@QAE@PAVDatabase@1@IPAVSlice@leveldb@@PAV?$basic_string@DU?$char_traits@D@std@@V?$allocator@D@2@@std@@_N33H2222333I@Z$1 1004b49b f   iterator.obj
 0001:0004a4a3       __unwindfunclet$??0Iterator@leveldown@@QAE@PAVDatabase@1@IPAVSlice@leveldb@@PAV?$basic_string@DU?$char_traits@D@std@@V?$allocator@D@2@@std@@_N33H2222333I@Z$2 1004b4a3 f   iterator.obj
 0001:0004a4b2       __unwindfunclet$??0Iterator@leveldown@@QAE@PAVDatabase@1@IPAVSlice@leveldb@@PAV?$basic_string@DU?$char_traits@D@std@@V?$allocator@D@2@@std@@_N33H2222333I@Z$6 1004b4b2 f   iterator.obj
 0001:0004a4bb       __ehhandler$??0Iterator@leveldown@@QAE@PAVDatabase@1@IPAVSlice@leveldb@@PAV?$basic_string@DU?$char_traits@D@std@@V?$allocator@D@2@@std@@_N33H2222333I@Z 1004b4bb f   iterator.obj
 0001:0004a4e0       __unwindfunclet$??1Iterator@leveldown@@UAE@XZ$0 1004b4e0 f   iterator.obj
 0001:0004a4e8       __ehhandler$??1Iterator@leveldown@@UAE@XZ 1004b4e8 f   iterator.obj
 0001:0004a510       __unwindfunclet$?GetIterator@Iterator@leveldown@@AAE_NXZ$0 1004b510 f   iterator.obj
 0001:0004a518       __unwindfunclet$?GetIterator@Iterator@leveldown@@AAE_NXZ$1 1004b518 f   iterator.obj
 0001:0004a520       __unwindfunclet$?GetIterator@Iterator@leveldown@@AAE_NXZ$2 1004b520 f   iterator.obj
 0001:0004a539       __ehhandler$?GetIterator@Iterator@leveldown@@AAE_NXZ 1004b539 f   iterator.obj
 0001:0004a560       __unwindfunclet$?Read@Iterator@leveldown@@AAE_NAAV?$basic_string@DU?$char_traits@D@std@@V?$allocator@D@2@@std@@0@Z$0 1004b560 f   iterator.obj
 0001:0004a568       __ehhandler$?Read@Iterator@leveldown@@AAE_NAAV?$basic_string@DU?$char_traits@D@std@@V?$allocator@D@2@@std@@0@Z 1004b568 f   iterator.obj
 0001:0004a590       __unwindfunclet$?IteratorNext@Iterator@leveldown@@QAE_NAAV?$vector@U?$pair@V?$basic_string@DU?$char_traits@D@std@@V?$allocator@D@2@@std@@V12@@std@@V?$allocator@U?$pair@V?$basic_string@DU?$char_traits@D@std@@V?$allocator@D@2@@std@@V12@@std@@@2@@std@@@Z$0 1004b590 f   iterator.obj
 0001:0004a598       __unwindfunclet$?IteratorNext@Iterator@leveldown@@QAE_NAAV?$vector@U?$pair@V?$basic_string@DU?$char_traits@D@std@@V?$allocator@D@2@@std@@V12@@std@@V?$allocator@U?$pair@V?$basic_string@DU?$char_traits@D@std@@V?$allocator@D@2@@std@@V12@@std@@@2@@std@@@Z$1 1004b598 f   iterator.obj
 0001:0004a5a0       __unwindfunclet$?IteratorNext@Iterator@leveldown@@QAE_NAAV?$vector@U?$pair@V?$basic_string@DU?$char_traits@D@std@@V?$allocator@D@2@@std@@V12@@std@@V?$allocator@U?$pair@V?$basic_string@DU?$char_traits@D@std@@V?$allocator@D@2@@std@@V12@@std@@@2@@std@@@Z$2 1004b5a0 f   iterator.obj
 0001:0004a5a8       __unwindfunclet$?IteratorNext@Iterator@leveldown@@QAE_NAAV?$vector@U?$pair@V?$basic_string@DU?$char_traits@D@std@@V?$allocator@D@2@@std@@V12@@std@@V?$allocator@U?$pair@V?$basic_string@DU?$char_traits@D@std@@V?$allocator@D@2@@std@@V12@@std@@@2@@std@@@Z$3 1004b5a8 f   iterator.obj
 0001:0004a5b0       __unwindfunclet$?IteratorNext@Iterator@leveldown@@QAE_NAAV?$vector@U?$pair@V?$basic_string@DU?$char_traits@D@std@@V?$allocator@D@2@@std@@V12@@std@@V?$allocator@U?$pair@V?$basic_string@DU?$char_traits@D@std@@V?$allocator@D@2@@std@@V12@@std@@@2@@std@@@Z$4 1004b5b0 f   iterator.obj
 0001:0004a5b8       __ehhandler$?IteratorNext@Iterator@leveldown@@QAE_NAAV?$vector@U?$pair@V?$basic_string@DU?$char_traits@D@std@@V?$allocator@D@2@@std@@V12@@std@@V?$allocator@U?$pair@V?$basic_string@DU?$char_traits@D@std@@V?$allocator@D@2@@std@@V12@@std@@@2@@std@@@Z 1004b5b8 f   iterator.obj
 0001:0004a5e0       __unwindfunclet$??1?$pair@V?$basic_string@DU?$char_traits@D@std@@V?$allocator@D@2@@std@@V12@@std@@QAE@XZ$0 1004b5e0 f   iterator.obj
 0001:0004a5e8       __unwindfunclet$??1?$pair@V?$basic_string@DU?$char_traits@D@std@@V?$allocator@D@2@@std@@V12@@std@@QAE@XZ$1 1004b5e8 f   iterator.obj
 0001:0004a5f3       __ehhandler$??1?$pair@V?$basic_string@DU?$char_traits@D@std@@V?$allocator@D@2@@std@@V12@@std@@QAE@XZ 1004b5f3 f   iterator.obj
 0001:0004a610       __unwindfunclet$?Seek@Iterator@leveldown@@CAXABV?$FunctionCallbackInfo@VValue@v8@@@Nan@@@Z$0 1004b610 f   iterator.obj
 0001:0004a618       __ehhandler$?Seek@Iterator@leveldown@@CAXABV?$FunctionCallbackInfo@VValue@v8@@@Nan@@@Z 1004b618 f   iterator.obj
 0001:0004a640       __unwindfunclet$?Next@Iterator@leveldown@@CAXABV?$FunctionCallbackInfo@VValue@v8@@@Nan@@@Z$0 1004b640 f   iterator.obj
 0001:0004a652       __unwindfunclet$?Next@Iterator@leveldown@@CAXABV?$FunctionCallbackInfo@VValue@v8@@@Nan@@@Z$1 1004b652 f   iterator.obj
 0001:0004a661       __ehhandler$?Next@Iterator@leveldown@@CAXABV?$FunctionCallbackInfo@VValue@v8@@@Nan@@@Z 1004b661 f   iterator.obj
 0001:0004a680       __unwindfunclet$?End@Iterator@leveldown@@CAXABV?$FunctionCallbackInfo@VValue@v8@@@Nan@@@Z$0 1004b680 f   iterator.obj
 0001:0004a68f       __unwindfunclet$?End@Iterator@leveldown@@CAXABV?$FunctionCallbackInfo@VValue@v8@@@Nan@@@Z$1 1004b68f f   iterator.obj
 0001:0004a69e       __unwindfunclet$?End@Iterator@leveldown@@CAXABV?$FunctionCallbackInfo@VValue@v8@@@Nan@@@Z$3 1004b69e f   iterator.obj
 0001:0004a6a6       __unwindfunclet$?End@Iterator@leveldown@@CAXABV?$FunctionCallbackInfo@VValue@v8@@@Nan@@@Z$4 1004b6a6 f   iterator.obj
 0001:0004a6b1       __unwindfunclet$?End@Iterator@leveldown@@CAXABV?$FunctionCallbackInfo@VValue@v8@@@Nan@@@Z$2 1004b6b1 f   iterator.obj
 0001:0004a6b9       __ehhandler$?End@Iterator@leveldown@@CAXABV?$FunctionCallbackInfo@VValue@v8@@@Nan@@@Z 1004b6b9 f   iterator.obj
 0001:0004a6e0       __unwindfunclet$?NewInstance@Iterator@leveldown@@SA?AV?$Local@VObject@v8@@@v8@@V34@V?$Local@VNumber@v8@@@4@0@Z$1 1004b6e0 f   iterator.obj
 0001:0004a6e9       __unwindfunclet$?NewInstance@Iterator@leveldown@@SA?AV?$Local@VObject@v8@@@v8@@V34@V?$Local@VNumber@v8@@@4@0@Z$0 1004b6e9 f   iterator.obj
 0001:0004a6f1       __unwindfunclet$?NewInstance@Iterator@leveldown@@SA?AV?$Local@VObject@v8@@@v8@@V34@V?$Local@VNumber@v8@@@4@0@Z$2 1004b6f1 f   iterator.obj
 0001:0004a6fa       __unwindfunclet$?NewInstance@Iterator@leveldown@@SA?AV?$Local@VObject@v8@@@v8@@V34@V?$Local@VNumber@v8@@@4@0@Z$3 1004b6fa f   iterator.obj
 0001:0004a703       __ehhandler$?NewInstance@Iterator@leveldown@@SA?AV?$Local@VObject@v8@@@v8@@V34@V?$Local@VNumber@v8@@@4@0@Z 1004b703 f   iterator.obj
 0001:0004a730       __unwindfunclet$?New@Iterator@leveldown@@CAXABV?$FunctionCallbackInfo@VValue@v8@@@Nan@@@Z$0 1004b730 f   iterator.obj
 0001:0004a73f       __unwindfunclet$?New@Iterator@leveldown@@CAXABV?$FunctionCallbackInfo@VValue@v8@@@Nan@@@Z$1 1004b73f f   iterator.obj
 0001:0004a74e       __unwindfunclet$?New@Iterator@leveldown@@CAXABV?$FunctionCallbackInfo@VValue@v8@@@Nan@@@Z$2 1004b74e f   iterator.obj
 0001:0004a75d       __unwindfunclet$?New@Iterator@leveldown@@CAXABV?$FunctionCallbackInfo@VValue@v8@@@Nan@@@Z$3 1004b75d f   iterator.obj
 0001:0004a76c       __unwindfunclet$?New@Iterator@leveldown@@CAXABV?$FunctionCallbackInfo@VValue@v8@@@Nan@@@Z$4 1004b76c f   iterator.obj
 0001:0004a77b       __unwindfunclet$?New@Iterator@leveldown@@CAXABV?$FunctionCallbackInfo@VValue@v8@@@Nan@@@Z$5 1004b77b f   iterator.obj
 0001:0004a78a       __unwindfunclet$?New@Iterator@leveldown@@CAXABV?$FunctionCallbackInfo@VValue@v8@@@Nan@@@Z$6 1004b78a f   iterator.obj
 0001:0004a799       __unwindfunclet$?New@Iterator@leveldown@@CAXABV?$FunctionCallbackInfo@VValue@v8@@@Nan@@@Z$7 1004b799 f   iterator.obj
 0001:0004a7a8       __unwindfunclet$?New@Iterator@leveldown@@CAXABV?$FunctionCallbackInfo@VValue@v8@@@Nan@@@Z$8 1004b7a8 f   iterator.obj
 0001:0004a7b7       __unwindfunclet$?New@Iterator@leveldown@@CAXABV?$FunctionCallbackInfo@VValue@v8@@@Nan@@@Z$9 1004b7b7 f   iterator.obj
 0001:0004a7c6       __unwindfunclet$?New@Iterator@leveldown@@CAXABV?$FunctionCallbackInfo@VValue@v8@@@Nan@@@Z$10 1004b7c6 f   iterator.obj
 0001:0004a7d5       __ehhandler$?New@Iterator@leveldown@@CAXABV?$FunctionCallbackInfo@VValue@v8@@@Nan@@@Z 1004b7d5 f   iterator.obj
 0001:0004a7f0       __unwindfunclet$?push_back@?$vector@U?$pair@V?$basic_string@DU?$char_traits@D@std@@V?$allocator@D@2@@std@@V12@@std@@V?$allocator@U?$pair@V?$basic_string@DU?$char_traits@D@std@@V?$allocator@D@2@@std@@V12@@std@@@2@@std@@QAEX$$QAU?$pair@V?$basic_string@DU?$char_traits@D@std@@V?$allocator@D@2@@std@@V12@@2@@Z$0 1004b7f0 f   iterator.obj
 0001:0004a7f8       __unwindfunclet$?push_back@?$vector@U?$pair@V?$basic_string@DU?$char_traits@D@std@@V?$allocator@D@2@@std@@V12@@std@@V?$allocator@U?$pair@V?$basic_string@DU?$char_traits@D@std@@V?$allocator@D@2@@std@@V12@@std@@@2@@std@@QAEX$$QAU?$pair@V?$basic_string@DU?$char_traits@D@std@@V?$allocator@D@2@@std@@V12@@2@@Z$1 1004b7f8 f   iterator.obj
 0001:0004a803       __unwindfunclet$?push_back@?$vector@U?$pair@V?$basic_string@DU?$char_traits@D@std@@V?$allocator@D@2@@std@@V12@@std@@V?$allocator@U?$pair@V?$basic_string@DU?$char_traits@D@std@@V?$allocator@D@2@@std@@V12@@std@@@2@@std@@QAEX$$QAU?$pair@V?$basic_string@DU?$char_traits@D@std@@V?$allocator@D@2@@std@@V12@@2@@Z$2 1004b803 f   iterator.obj
 0001:0004a80b       __unwindfunclet$?push_back@?$vector@U?$pair@V?$basic_string@DU?$char_traits@D@std@@V?$allocator@D@2@@std@@V12@@std@@V?$allocator@U?$pair@V?$basic_string@DU?$char_traits@D@std@@V?$allocator@D@2@@std@@V12@@std@@@2@@std@@QAEX$$QAU?$pair@V?$basic_string@DU?$char_traits@D@std@@V?$allocator@D@2@@std@@V12@@2@@Z$3 1004b80b f   iterator.obj
